Archive member included because of file (symbol)

/opt/ps3dev/portlibs/ppu/lib/libya2d.a(ya2d.o)
                              main.o (ya2d_init)
/opt/ps3dev/portlibs/ppu/lib/libya2d.a(ya2d_controls.o)
                              main.o (ya2d_controlsRead)
/opt/ps3dev/portlibs/ppu/lib/libya2d.a(ya2d_draw.o)
                              main.o (ya2d_drawFillRect)
/opt/ps3dev/portlibs/ppu/lib/libya2d.a(ya2d_screen.o)
                              main.o (ya2d_screenClear)
/opt/ps3dev/portlibs/ppu/lib/libya2d.a(ya2d_texture.o)
                              main.o (ya2d_freeTexture)
/opt/ps3dev/portlibs/ppu/lib/libya2d.a(ya2d_utils.o)
                              /opt/ps3dev/portlibs/ppu/lib/libya2d.a(ya2d_texture.o) (swizzle_fast)
/opt/ps3dev/portlibs/ppu/lib/libya2d.a(msxfont.o)
                              /opt/ps3dev/portlibs/ppu/lib/libya2d.a(ya2d.o) (msxfont)
/opt/ps3dev/portlibs/ppu/lib/libya2d.a(valloc.o)
                              /opt/ps3dev/portlibs/ppu/lib/libya2d.a(ya2d.o) (init_valloc)
/opt/ps3dev/portlibs/ppu/lib/libfont.a(libfont.o)
                              /opt/ps3dev/portlibs/ppu/lib/libya2d.a(ya2d.o) (ResetFont)
/opt/ps3dev/portlibs/ppu/lib/libtiny3d.a(matrix.o)
                              /opt/ps3dev/portlibs/ppu/lib/libya2d.a(ya2d_texture.o) (MatrixMultiply)
/opt/ps3dev/portlibs/ppu/lib/libtiny3d.a(tiny3d.o)
                              /opt/ps3dev/portlibs/ppu/lib/libya2d.a(ya2d.o) (tiny3d_Exit)
/opt/ps3dev/portlibs/ppu/lib/libtiny3d.a(vshader_text_normal.vcg.o)
                              /opt/ps3dev/portlibs/ppu/lib/libtiny3d.a(tiny3d.o) (vshader_text_normal_bin)
/opt/ps3dev/portlibs/ppu/lib/libtiny3d.a(commands.o)
                              /opt/ps3dev/portlibs/ppu/lib/libtiny3d.a(tiny3d.o) (rsxtiny_MakeCmdSpace)
/opt/ps3dev/portlibs/ppu/lib/libtiny3d.a(glue.o)
                              /opt/ps3dev/portlibs/ppu/lib/libtiny3d.a(tiny3d.o) (rsxtiny_FlushBuffer)
/opt/ps3dev/portlibs/ppu/lib/libtiny3d.a(mm.o)
                              /opt/ps3dev/portlibs/ppu/lib/libtiny3d.a(tiny3d.o) (rsxtiny_MemAlign)
/opt/ps3dev/portlibs/ppu/lib/libtiny3d.a(realityVP.o)
                              /opt/ps3dev/portlibs/ppu/lib/libtiny3d.a(commands.o) (rsxtiny_VertexProgramGetUCode)
/opt/ps3dev/portlibs/ppu/lib/libtiny3d.a(rsxutil.o)
                              /opt/ps3dev/portlibs/ppu/lib/libtiny3d.a(tiny3d.o) (waitFlip)
/opt/ps3dev/portlibs/ppu/lib/libtiny3d.a(buffer.o)
                              /opt/ps3dev/portlibs/ppu/lib/libtiny3d.a(commands.o) (tiny_rsxContextCallback)
/opt/ps3dev/ppu/lib/gcc/powerpc64-ps3-elf/4.7.0/../../../../powerpc64-ps3-elf/lib/libc.a(lib_a-atexit.o)
                              /opt/ps3dev/portlibs/ppu/lib/libtiny3d.a(tiny3d.o) (atexit)
/opt/ps3dev/ppu/lib/gcc/powerpc64-ps3-elf/4.7.0/../../../../powerpc64-ps3-elf/lib/libc.a(lib_a-exit.o)
                              /opt/ps3dev/ppu/lib/gcc/powerpc64-ps3-elf/4.7.0/../../../../powerpc64-ps3-elf/lib/lv2-crt0.o (exit)
/opt/ps3dev/ppu/lib/gcc/powerpc64-ps3-elf/4.7.0/../../../../powerpc64-ps3-elf/lib/libc.a(lib_a-impure.o)
                              /opt/ps3dev/ppu/lib/gcc/powerpc64-ps3-elf/4.7.0/../../../../powerpc64-ps3-elf/lib/libc.a(lib_a-exit.o) (_global_impure_ptr)
/opt/ps3dev/ppu/lib/gcc/powerpc64-ps3-elf/4.7.0/../../../../powerpc64-ps3-elf/lib/libc.a(lib_a-malign.o)
                              /opt/ps3dev/portlibs/ppu/lib/libtiny3d.a(rsxutil.o) (memalign)
/opt/ps3dev/ppu/lib/gcc/powerpc64-ps3-elf/4.7.0/../../../../powerpc64-ps3-elf/lib/libc.a(lib_a-malignr.o)
                              /opt/ps3dev/ppu/lib/gcc/powerpc64-ps3-elf/4.7.0/../../../../powerpc64-ps3-elf/lib/libc.a(lib_a-malign.o) (_memalign_r)
/opt/ps3dev/ppu/lib/gcc/powerpc64-ps3-elf/4.7.0/../../../../powerpc64-ps3-elf/lib/libc.a(lib_a-malloc.o)
                              /opt/ps3dev/portlibs/ppu/lib/libya2d.a(ya2d_texture.o) (malloc)
/opt/ps3dev/ppu/lib/gcc/powerpc64-ps3-elf/4.7.0/../../../../powerpc64-ps3-elf/lib/libc.a(lib_a-mallocr.o)
                              /opt/ps3dev/ppu/lib/gcc/powerpc64-ps3-elf/4.7.0/../../../../powerpc64-ps3-elf/lib/libc.a(lib_a-malignr.o) (_malloc_r)
/opt/ps3dev/ppu/lib/gcc/powerpc64-ps3-elf/4.7.0/../../../../powerpc64-ps3-elf/lib/libc.a(lib_a-memcpy.o)
                              /opt/ps3dev/portlibs/ppu/lib/libya2d.a(ya2d_texture.o) (memcpy)
/opt/ps3dev/ppu/lib/gcc/powerpc64-ps3-elf/4.7.0/../../../../powerpc64-ps3-elf/lib/libc.a(lib_a-memset.o)
                              /opt/ps3dev/portlibs/ppu/lib/libfont.a(libfont.o) (memset)
/opt/ps3dev/ppu/lib/gcc/powerpc64-ps3-elf/4.7.0/../../../../powerpc64-ps3-elf/lib/libc.a(lib_a-mlock.o)
                              /opt/ps3dev/ppu/lib/gcc/powerpc64-ps3-elf/4.7.0/../../../../powerpc64-ps3-elf/lib/libc.a(lib_a-malignr.o) (__malloc_lock)
/opt/ps3dev/ppu/lib/gcc/powerpc64-ps3-elf/4.7.0/../../../../powerpc64-ps3-elf/lib/libc.a(lib_a-rand.o)
                              main.o (rand)
/opt/ps3dev/ppu/lib/gcc/powerpc64-ps3-elf/4.7.0/../../../../powerpc64-ps3-elf/lib/libc.a(lib_a-strcasecmp.o)
                              /opt/ps3dev/portlibs/ppu/lib/libtiny3d.a(realityVP.o) (strcasecmp)
/opt/ps3dev/ppu/lib/gcc/powerpc64-ps3-elf/4.7.0/../../../../powerpc64-ps3-elf/lib/libc.a(lib_a-vsprintf.o)
                              /opt/ps3dev/portlibs/ppu/lib/libfont.a(libfont.o) (vsprintf)
/opt/ps3dev/ppu/lib/gcc/powerpc64-ps3-elf/4.7.0/../../../../powerpc64-ps3-elf/lib/libc.a(lib_a-__atexit.o)
                              /opt/ps3dev/ppu/lib/gcc/powerpc64-ps3-elf/4.7.0/../../../../powerpc64-ps3-elf/lib/libc.a(lib_a-atexit.o) (__register_exitproc)
/opt/ps3dev/ppu/lib/gcc/powerpc64-ps3-elf/4.7.0/../../../../powerpc64-ps3-elf/lib/libc.a(lib_a-__call_atexit.o)
                              /opt/ps3dev/ppu/lib/gcc/powerpc64-ps3-elf/4.7.0/../../../../powerpc64-ps3-elf/lib/libc.a(lib_a-exit.o) (__call_exitprocs)
/opt/ps3dev/ppu/lib/gcc/powerpc64-ps3-elf/4.7.0/../../../../powerpc64-ps3-elf/lib/libc.a(lib_a-ctype_.o)
                              /opt/ps3dev/ppu/lib/gcc/powerpc64-ps3-elf/4.7.0/../../../../powerpc64-ps3-elf/lib/libc.a(lib_a-strcasecmp.o) (__ctype_ptr__)
/opt/ps3dev/ppu/lib/gcc/powerpc64-ps3-elf/4.7.0/../../../../powerpc64-ps3-elf/lib/libc.a(lib_a-freer.o)
                              /opt/ps3dev/ppu/lib/gcc/powerpc64-ps3-elf/4.7.0/../../../../powerpc64-ps3-elf/lib/libc.a(lib_a-malignr.o) (_free_r)
/opt/ps3dev/ppu/lib/gcc/powerpc64-ps3-elf/4.7.0/../../../../powerpc64-ps3-elf/lib/libc.a(lib_a-getreent.o)
                              /opt/ps3dev/ppu/lib/gcc/powerpc64-ps3-elf/4.7.0/../../../../powerpc64-ps3-elf/lib/libc.a(lib_a-malign.o) (__getreent)
/opt/ps3dev/ppu/lib/gcc/powerpc64-ps3-elf/4.7.0/../../../../powerpc64-ps3-elf/lib/libc.a(lib_a-lock_recursive.o)
                              /opt/ps3dev/ppu/lib/gcc/powerpc64-ps3-elf/4.7.0/../../../../powerpc64-ps3-elf/lib/libc.a(lib_a-mlock.o) (__libc_lock_acquire_recursive)
/opt/ps3dev/ppu/lib/gcc/powerpc64-ps3-elf/4.7.0/../../../../powerpc64-ps3-elf/lib/libc.a(lib_a-svfprintf.o)
                              /opt/ps3dev/ppu/lib/gcc/powerpc64-ps3-elf/4.7.0/../../../../powerpc64-ps3-elf/lib/libc.a(lib_a-vsprintf.o) (_svfprintf_r)
/opt/ps3dev/ppu/lib/gcc/powerpc64-ps3-elf/4.7.0/../../../../powerpc64-ps3-elf/lib/libc.a(lib_a-dtoa.o)
                              /opt/ps3dev/ppu/lib/gcc/powerpc64-ps3-elf/4.7.0/../../../../powerpc64-ps3-elf/lib/libc.a(lib_a-svfprintf.o) (_dtoa_r)
/opt/ps3dev/ppu/lib/gcc/powerpc64-ps3-elf/4.7.0/../../../../powerpc64-ps3-elf/lib/libc.a(lib_a-locale.o)
                              /opt/ps3dev/ppu/lib/gcc/powerpc64-ps3-elf/4.7.0/../../../../powerpc64-ps3-elf/lib/libc.a(lib_a-svfprintf.o) (_localeconv_r)
/opt/ps3dev/ppu/lib/gcc/powerpc64-ps3-elf/4.7.0/../../../../powerpc64-ps3-elf/lib/libc.a(lib_a-lock_internal.o)
                              /opt/ps3dev/ppu/lib/gcc/powerpc64-ps3-elf/4.7.0/../../../../powerpc64-ps3-elf/lib/libc.a(lib_a-lock_recursive.o) (__libc_auto_lock_allocate)
/opt/ps3dev/ppu/lib/gcc/powerpc64-ps3-elf/4.7.0/../../../../powerpc64-ps3-elf/lib/libc.a(lib_a-memchr.o)
                              /opt/ps3dev/ppu/lib/gcc/powerpc64-ps3-elf/4.7.0/../../../../powerpc64-ps3-elf/lib/libc.a(lib_a-svfprintf.o) (memchr)
/opt/ps3dev/ppu/lib/gcc/powerpc64-ps3-elf/4.7.0/../../../../powerpc64-ps3-elf/lib/libc.a(lib_a-mprec.o)
                              /opt/ps3dev/ppu/lib/gcc/powerpc64-ps3-elf/4.7.0/../../../../powerpc64-ps3-elf/lib/libc.a(lib_a-dtoa.o) (_Balloc)
/opt/ps3dev/ppu/lib/gcc/powerpc64-ps3-elf/4.7.0/../../../../powerpc64-ps3-elf/lib/libc.a(lib_a-s_fpclassify.o)
                              /opt/ps3dev/ppu/lib/gcc/powerpc64-ps3-elf/4.7.0/../../../../powerpc64-ps3-elf/lib/libc.a(lib_a-svfprintf.o) (__fpclassifyd)
/opt/ps3dev/ppu/lib/gcc/powerpc64-ps3-elf/4.7.0/../../../../powerpc64-ps3-elf/lib/libc.a(lib_a-strcmp.o)
                              /opt/ps3dev/ppu/lib/gcc/powerpc64-ps3-elf/4.7.0/../../../../powerpc64-ps3-elf/lib/libc.a(lib_a-locale.o) (strcmp)
/opt/ps3dev/ppu/lib/gcc/powerpc64-ps3-elf/4.7.0/../../../../powerpc64-ps3-elf/lib/libc.a(lib_a-strlen.o)
                              /opt/ps3dev/ppu/lib/gcc/powerpc64-ps3-elf/4.7.0/../../../../powerpc64-ps3-elf/lib/libc.a(lib_a-svfprintf.o) (strlen)
/opt/ps3dev/ppu/lib/gcc/powerpc64-ps3-elf/4.7.0/../../../../powerpc64-ps3-elf/lib/libc.a(lib_a-svfiprintf.o)
                              /opt/ps3dev/ppu/lib/gcc/powerpc64-ps3-elf/4.7.0/../../../../powerpc64-ps3-elf/lib/libc.a(lib_a-svfprintf.o) (__ssprint_r)
/opt/ps3dev/ppu/lib/gcc/powerpc64-ps3-elf/4.7.0/../../../../powerpc64-ps3-elf/lib/libc.a(lib_a-abort.o)
                              /opt/ps3dev/ppu/lib/gcc/powerpc64-ps3-elf/4.7.0/../../../../powerpc64-ps3-elf/lib/libc.a(lib_a-lock_internal.o) (abort)
/opt/ps3dev/ppu/lib/gcc/powerpc64-ps3-elf/4.7.0/../../../../powerpc64-ps3-elf/lib/libc.a(lib_a-callocr.o)
                              /opt/ps3dev/ppu/lib/gcc/powerpc64-ps3-elf/4.7.0/../../../../powerpc64-ps3-elf/lib/libc.a(lib_a-mprec.o) (_calloc_r)
/opt/ps3dev/ppu/lib/gcc/powerpc64-ps3-elf/4.7.0/../../../../powerpc64-ps3-elf/lib/libc.a(lib_a-memmove.o)
                              /opt/ps3dev/ppu/lib/gcc/powerpc64-ps3-elf/4.7.0/../../../../powerpc64-ps3-elf/lib/libc.a(lib_a-svfiprintf.o) (memmove)
/opt/ps3dev/ppu/lib/gcc/powerpc64-ps3-elf/4.7.0/../../../../powerpc64-ps3-elf/lib/libc.a(lib_a-reallocr.o)
                              /opt/ps3dev/ppu/lib/gcc/powerpc64-ps3-elf/4.7.0/../../../../powerpc64-ps3-elf/lib/libc.a(lib_a-svfiprintf.o) (_realloc_r)
/opt/ps3dev/ppu/lib/gcc/powerpc64-ps3-elf/4.7.0/../../../../powerpc64-ps3-elf/lib/libc.a(lib_a-signal.o)
                              /opt/ps3dev/ppu/lib/gcc/powerpc64-ps3-elf/4.7.0/../../../../powerpc64-ps3-elf/lib/libc.a(lib_a-abort.o) (raise)
/opt/ps3dev/psl1ght/ppu/lib/libgcm_sys.a(sprx.o)
                              /opt/ps3dev/portlibs/ppu/lib/libtiny3d.a(rsxutil.o) (gcmSetFlip)
/opt/ps3dev/psl1ght/ppu/lib/libsysutil.a(sprx.o)
                              /opt/ps3dev/portlibs/ppu/lib/libtiny3d.a(rsxutil.o) (videoConfigure)
/opt/ps3dev/psl1ght/ppu/lib/libsysutil.a(sysutil_wrapper.o)
                              /opt/ps3dev/portlibs/ppu/lib/libtiny3d.a(tiny3d.o) (sysUtilRegisterCallback)
/opt/ps3dev/psl1ght/ppu/lib/libio.a(sprx.o)
                              /opt/ps3dev/portlibs/ppu/lib/libya2d.a(ya2d.o) (ioPadEnd)
/opt/ps3dev/ppu/lib/gcc/powerpc64-ps3-elf/4.7.0/../../../../powerpc64-ps3-elf/lib/libm.a(lib_a-sf_cos.o)
                              /opt/ps3dev/portlibs/ppu/lib/libtiny3d.a(matrix.o) (cosf)
/opt/ps3dev/ppu/lib/gcc/powerpc64-ps3-elf/4.7.0/../../../../powerpc64-ps3-elf/lib/libm.a(lib_a-sf_sin.o)
                              /opt/ps3dev/portlibs/ppu/lib/libtiny3d.a(matrix.o) (sinf)
/opt/ps3dev/ppu/lib/gcc/powerpc64-ps3-elf/4.7.0/../../../../powerpc64-ps3-elf/lib/libm.a(lib_a-sf_tan.o)
                              /opt/ps3dev/portlibs/ppu/lib/libtiny3d.a(matrix.o) (tanf)
/opt/ps3dev/ppu/lib/gcc/powerpc64-ps3-elf/4.7.0/../../../../powerpc64-ps3-elf/lib/libm.a(lib_a-wf_sqrt.o)
                              /opt/ps3dev/portlibs/ppu/lib/libtiny3d.a(matrix.o) (sqrtf)
/opt/ps3dev/ppu/lib/gcc/powerpc64-ps3-elf/4.7.0/../../../../powerpc64-ps3-elf/lib/libm.a(lib_a-w_sqrt.o)
                              /opt/ps3dev/portlibs/ppu/lib/libtiny3d.a(matrix.o) (sqrt)
/opt/ps3dev/ppu/lib/gcc/powerpc64-ps3-elf/4.7.0/../../../../powerpc64-ps3-elf/lib/libm.a(lib_a-ef_rem_pio2.o)
                              /opt/ps3dev/ppu/lib/gcc/powerpc64-ps3-elf/4.7.0/../../../../powerpc64-ps3-elf/lib/libm.a(lib_a-sf_cos.o) (__ieee754_rem_pio2f)
/opt/ps3dev/ppu/lib/gcc/powerpc64-ps3-elf/4.7.0/../../../../powerpc64-ps3-elf/lib/libm.a(lib_a-ef_sqrt.o)
                              /opt/ps3dev/ppu/lib/gcc/powerpc64-ps3-elf/4.7.0/../../../../powerpc64-ps3-elf/lib/libm.a(lib_a-wf_sqrt.o) (__ieee754_sqrtf)
/opt/ps3dev/ppu/lib/gcc/powerpc64-ps3-elf/4.7.0/../../../../powerpc64-ps3-elf/lib/libm.a(lib_a-e_sqrt.o)
                              /opt/ps3dev/ppu/lib/gcc/powerpc64-ps3-elf/4.7.0/../../../../powerpc64-ps3-elf/lib/libm.a(lib_a-w_sqrt.o) (__ieee754_sqrt)
/opt/ps3dev/ppu/lib/gcc/powerpc64-ps3-elf/4.7.0/../../../../powerpc64-ps3-elf/lib/libm.a(lib_a-kf_cos.o)
                              /opt/ps3dev/ppu/lib/gcc/powerpc64-ps3-elf/4.7.0/../../../../powerpc64-ps3-elf/lib/libm.a(lib_a-sf_cos.o) (__kernel_cosf)
/opt/ps3dev/ppu/lib/gcc/powerpc64-ps3-elf/4.7.0/../../../../powerpc64-ps3-elf/lib/libm.a(lib_a-kf_rem_pio2.o)
                              /opt/ps3dev/ppu/lib/gcc/powerpc64-ps3-elf/4.7.0/../../../../powerpc64-ps3-elf/lib/libm.a(lib_a-ef_rem_pio2.o) (__kernel_rem_pio2f)
/opt/ps3dev/ppu/lib/gcc/powerpc64-ps3-elf/4.7.0/../../../../powerpc64-ps3-elf/lib/libm.a(lib_a-kf_sin.o)
                              /opt/ps3dev/ppu/lib/gcc/powerpc64-ps3-elf/4.7.0/../../../../powerpc64-ps3-elf/lib/libm.a(lib_a-sf_cos.o) (__kernel_sinf)
/opt/ps3dev/ppu/lib/gcc/powerpc64-ps3-elf/4.7.0/../../../../powerpc64-ps3-elf/lib/libm.a(lib_a-kf_tan.o)
                              /opt/ps3dev/ppu/lib/gcc/powerpc64-ps3-elf/4.7.0/../../../../powerpc64-ps3-elf/lib/libm.a(lib_a-sf_tan.o) (__kernel_tanf)
/opt/ps3dev/ppu/lib/gcc/powerpc64-ps3-elf/4.7.0/../../../../powerpc64-ps3-elf/lib/libm.a(lib_a-sf_fabs.o)
                              /opt/ps3dev/ppu/lib/gcc/powerpc64-ps3-elf/4.7.0/../../../../powerpc64-ps3-elf/lib/libm.a(lib_a-ef_rem_pio2.o) (fabsf)
/opt/ps3dev/ppu/lib/gcc/powerpc64-ps3-elf/4.7.0/../../../../powerpc64-ps3-elf/lib/libm.a(lib_a-sf_floor.o)
                              /opt/ps3dev/ppu/lib/gcc/powerpc64-ps3-elf/4.7.0/../../../../powerpc64-ps3-elf/lib/libm.a(lib_a-kf_rem_pio2.o) (floorf)
/opt/ps3dev/ppu/lib/gcc/powerpc64-ps3-elf/4.7.0/../../../../powerpc64-ps3-elf/lib/libm.a(lib_a-sf_fpclassify.o)
                              /opt/ps3dev/ppu/lib/gcc/powerpc64-ps3-elf/4.7.0/../../../../powerpc64-ps3-elf/lib/libm.a(lib_a-wf_sqrt.o) (__fpclassifyf)
/opt/ps3dev/ppu/lib/gcc/powerpc64-ps3-elf/4.7.0/../../../../powerpc64-ps3-elf/lib/libm.a(lib_a-sf_scalbn.o)
                              /opt/ps3dev/ppu/lib/gcc/powerpc64-ps3-elf/4.7.0/../../../../powerpc64-ps3-elf/lib/libm.a(lib_a-kf_rem_pio2.o) (scalbnf)
/opt/ps3dev/ppu/lib/gcc/powerpc64-ps3-elf/4.7.0/../../../../powerpc64-ps3-elf/lib/libm.a(lib_a-s_lib_ver.o)
                              /opt/ps3dev/ppu/lib/gcc/powerpc64-ps3-elf/4.7.0/../../../../powerpc64-ps3-elf/lib/libm.a(lib_a-wf_sqrt.o) (__fdlib_version)
/opt/ps3dev/ppu/lib/gcc/powerpc64-ps3-elf/4.7.0/../../../../powerpc64-ps3-elf/lib/libm.a(lib_a-s_matherr.o)
                              /opt/ps3dev/ppu/lib/gcc/powerpc64-ps3-elf/4.7.0/../../../../powerpc64-ps3-elf/lib/libm.a(lib_a-wf_sqrt.o) (matherr)
/opt/ps3dev/ppu/lib/gcc/powerpc64-ps3-elf/4.7.0/../../../../powerpc64-ps3-elf/lib/libm.a(lib_a-sf_copysign.o)
                              /opt/ps3dev/ppu/lib/gcc/powerpc64-ps3-elf/4.7.0/../../../../powerpc64-ps3-elf/lib/libm.a(lib_a-sf_scalbn.o) (copysignf)
/opt/ps3dev/psl1ght/ppu/lib/librt.a(sbrk.o)
                              /opt/ps3dev/ppu/lib/gcc/powerpc64-ps3-elf/4.7.0/../../../../powerpc64-ps3-elf/lib/lv2-crt0.o (__librt_sbrk_r)
/opt/ps3dev/psl1ght/ppu/lib/librt.a(exit.o)
                              /opt/ps3dev/ppu/lib/gcc/powerpc64-ps3-elf/4.7.0/../../../../powerpc64-ps3-elf/lib/lv2-crt0.o (__librt_exit)
/opt/ps3dev/psl1ght/ppu/lib/librt.a(close.o)
                              /opt/ps3dev/ppu/lib/gcc/powerpc64-ps3-elf/4.7.0/../../../../powerpc64-ps3-elf/lib/lv2-crt0.o (__librt_close_r)
/opt/ps3dev/psl1ght/ppu/lib/librt.a(lseek.o)
                              /opt/ps3dev/ppu/lib/gcc/powerpc64-ps3-elf/4.7.0/../../../../powerpc64-ps3-elf/lib/lv2-crt0.o (__librt_lseek_r)
/opt/ps3dev/psl1ght/ppu/lib/librt.a(read.o)
                              /opt/ps3dev/ppu/lib/gcc/powerpc64-ps3-elf/4.7.0/../../../../powerpc64-ps3-elf/lib/lv2-crt0.o (__librt_read_r)
/opt/ps3dev/psl1ght/ppu/lib/librt.a(open.o)
                              /opt/ps3dev/ppu/lib/gcc/powerpc64-ps3-elf/4.7.0/../../../../powerpc64-ps3-elf/lib/lv2-crt0.o (__librt_open_r)
/opt/ps3dev/psl1ght/ppu/lib/librt.a(sleep.o)
                              /opt/ps3dev/ppu/lib/gcc/powerpc64-ps3-elf/4.7.0/../../../../powerpc64-ps3-elf/lib/lv2-crt0.o (__librt_usleep_r)
/opt/ps3dev/psl1ght/ppu/lib/librt.a(write.o)
                              /opt/ps3dev/ppu/lib/gcc/powerpc64-ps3-elf/4.7.0/../../../../powerpc64-ps3-elf/lib/lv2-crt0.o (__librt_write_r)
/opt/ps3dev/psl1ght/ppu/lib/librt.a(fstat.o)
                              /opt/ps3dev/ppu/lib/gcc/powerpc64-ps3-elf/4.7.0/../../../../powerpc64-ps3-elf/lib/lv2-crt0.o (__librt_fstat_r)
/opt/ps3dev/psl1ght/ppu/lib/librt.a(socket.o)
                              /opt/ps3dev/psl1ght/ppu/lib/librt.a(write.o) (send)
/opt/ps3dev/psl1ght/ppu/lib/librt.a(lock.o)
                              /opt/ps3dev/ppu/lib/gcc/powerpc64-ps3-elf/4.7.0/../../../../powerpc64-ps3-elf/lib/lv2-crt0.o (__librt_sys_lwmutex_create_r)
/opt/ps3dev/psl1ght/ppu/lib/librt.a(dirent.o)
                              /opt/ps3dev/ppu/lib/gcc/powerpc64-ps3-elf/4.7.0/../../../../powerpc64-ps3-elf/lib/lv2-crt0.o (__librt_opendir_r)
/opt/ps3dev/psl1ght/ppu/lib/librt.a(mkdir.o)
                              /opt/ps3dev/ppu/lib/gcc/powerpc64-ps3-elf/4.7.0/../../../../powerpc64-ps3-elf/lib/lv2-crt0.o (__librt_mkdir_r)
/opt/ps3dev/psl1ght/ppu/lib/librt.a(times.o)
                              /opt/ps3dev/ppu/lib/gcc/powerpc64-ps3-elf/4.7.0/../../../../powerpc64-ps3-elf/lib/lv2-crt0.o (__librt_times_r)
/opt/ps3dev/psl1ght/ppu/lib/librt.a(umask.o)
                              /opt/ps3dev/ppu/lib/gcc/powerpc64-ps3-elf/4.7.0/../../../../powerpc64-ps3-elf/lib/lv2-crt0.o (__librt_umask_r)
/opt/ps3dev/psl1ght/ppu/lib/librt.a(lv2errno.o)
                              /opt/ps3dev/psl1ght/ppu/lib/librt.a(socket.o) (lv2errno)
/opt/ps3dev/psl1ght/ppu/lib/librt.a(heap.o)
                              /opt/ps3dev/psl1ght/ppu/lib/librt.a(sbrk.o) (heapInit)
/opt/ps3dev/psl1ght/ppu/lib/librt.a(chmod.o)
                              /opt/ps3dev/ppu/lib/gcc/powerpc64-ps3-elf/4.7.0/../../../../powerpc64-ps3-elf/lib/lv2-crt0.o (__librt_chmod_r)
/opt/ps3dev/psl1ght/ppu/lib/librt.a(rmdir.o)
                              /opt/ps3dev/ppu/lib/gcc/powerpc64-ps3-elf/4.7.0/../../../../powerpc64-ps3-elf/lib/lv2-crt0.o (__librt_rmdir_r)
/opt/ps3dev/psl1ght/ppu/lib/librt.a(isatty.o)
                              /opt/ps3dev/ppu/lib/gcc/powerpc64-ps3-elf/4.7.0/../../../../powerpc64-ps3-elf/lib/lv2-crt0.o (__librt_isatty_r)
/opt/ps3dev/psl1ght/ppu/lib/librt.a(gettod.o)
                              /opt/ps3dev/ppu/lib/gcc/powerpc64-ps3-elf/4.7.0/../../../../powerpc64-ps3-elf/lib/lv2-crt0.o (__librt_gettod_r)
/opt/ps3dev/psl1ght/ppu/lib/librt.a(settod.o)
                              /opt/ps3dev/ppu/lib/gcc/powerpc64-ps3-elf/4.7.0/../../../../powerpc64-ps3-elf/lib/lv2-crt0.o (__librt_settod_r)
/opt/ps3dev/psl1ght/ppu/lib/liblv2.a(sprx.o)
                              /opt/ps3dev/psl1ght/ppu/lib/librt.a(sbrk.o) (sysSpinlockInitialize)
/opt/ps3dev/psl1ght/ppu/lib/libsysmodule.a(sprx.o)
                              /opt/ps3dev/portlibs/ppu/lib/libya2d.a(ya2d.o) (sysModuleLoad)
/opt/ps3dev/psl1ght/ppu/lib/libpngdec.a(pngdec.o)
                              /opt/ps3dev/portlibs/ppu/lib/libya2d.a(ya2d_texture.o) (pngLoadFromFile)
/opt/ps3dev/psl1ght/ppu/lib/libpngdec.a(sprx.o)
                              /opt/ps3dev/psl1ght/ppu/lib/libpngdec.a(pngdec.o) (pngDecDestroy)
/opt/ps3dev/psl1ght/ppu/lib/libjpgdec.a(jpgdec.o)
                              /opt/ps3dev/portlibs/ppu/lib/libya2d.a(ya2d_texture.o) (jpgLoadFromFile)
/opt/ps3dev/psl1ght/ppu/lib/libjpgdec.a(sprx.o)
                              /opt/ps3dev/psl1ght/ppu/lib/libjpgdec.a(jpgdec.o) (jpgDecClose)
/opt/ps3dev/ppu/lib/gcc/powerpc64-ps3-elf/4.7.0/../../../../powerpc64-ps3-elf/lib/libsysbase.a(sbrk.o)
                              /opt/ps3dev/ppu/lib/gcc/powerpc64-ps3-elf/4.7.0/../../../../powerpc64-ps3-elf/lib/libc.a(lib_a-mallocr.o) (_sbrk_r)
/opt/ps3dev/ppu/lib/gcc/powerpc64-ps3-elf/4.7.0/../../../../powerpc64-ps3-elf/lib/libsysbase.a(syscalls.o)
                              /opt/ps3dev/ppu/lib/gcc/powerpc64-ps3-elf/4.7.0/../../../../powerpc64-ps3-elf/lib/lv2-crt0.o (__syscalls)
/opt/ps3dev/ppu/lib/gcc/powerpc64-ps3-elf/4.7.0/../../../../powerpc64-ps3-elf/lib/libsysbase.a(_exit.o)
                              /opt/ps3dev/ppu/lib/gcc/powerpc64-ps3-elf/4.7.0/../../../../powerpc64-ps3-elf/lib/libc.a(lib_a-exit.o) (_exit)
/opt/ps3dev/ppu/lib/gcc/powerpc64-ps3-elf/4.7.0/../../../../powerpc64-ps3-elf/lib/libsysbase.a(lock.o)
                              /opt/ps3dev/ppu/lib/gcc/powerpc64-ps3-elf/4.7.0/../../../../powerpc64-ps3-elf/lib/libc.a(lib_a-lock_recursive.o) (sys_lwmutex_create)
/opt/ps3dev/ppu/lib/gcc/powerpc64-ps3-elf/4.7.0/../../../../powerpc64-ps3-elf/lib/libsysbase.a(getpid.o)
                              /opt/ps3dev/ppu/lib/gcc/powerpc64-ps3-elf/4.7.0/../../../../powerpc64-ps3-elf/lib/libc.a(lib_a-signal.o) (_getpid_r)
/opt/ps3dev/ppu/lib/gcc/powerpc64-ps3-elf/4.7.0/../../../../powerpc64-ps3-elf/lib/libsysbase.a(kill.o)
                              /opt/ps3dev/ppu/lib/gcc/powerpc64-ps3-elf/4.7.0/../../../../powerpc64-ps3-elf/lib/libc.a(lib_a-signal.o) (_kill_r)
/opt/ps3dev/ppu/lib/gcc/powerpc64-ps3-elf/4.7.0/../../../../powerpc64-ps3-elf/lib/libsysbase.a(sleep.o)
                              /opt/ps3dev/portlibs/ppu/lib/libtiny3d.a(tiny3d.o) (usleep)
/opt/ps3dev/ppu/lib/gcc/powerpc64-ps3-elf/4.7.0/../../../../powerpc64-ps3-elf/lib/libc.a(lib_a-errno.o)
                              /opt/ps3dev/ppu/lib/gcc/powerpc64-ps3-elf/4.7.0/../../../../powerpc64-ps3-elf/lib/libm.a(lib_a-wf_sqrt.o) (__errno)
/opt/ps3dev/ppu/lib/gcc/powerpc64-ps3-elf/4.7.0/../../../../powerpc64-ps3-elf/lib/libc.a(lib_a-sscanf.o)
                              /opt/ps3dev/psl1ght/ppu/lib/librt.a(socket.o) (sscanf)
/opt/ps3dev/ppu/lib/gcc/powerpc64-ps3-elf/4.7.0/../../../../powerpc64-ps3-elf/lib/libc.a(lib_a-stdio.o)
                              /opt/ps3dev/ppu/lib/gcc/powerpc64-ps3-elf/4.7.0/../../../../powerpc64-ps3-elf/lib/libc.a(lib_a-sscanf.o) (__seofread)
/opt/ps3dev/ppu/lib/gcc/powerpc64-ps3-elf/4.7.0/../../../../powerpc64-ps3-elf/lib/libc.a(lib_a-strncpy.o)
                              /opt/ps3dev/psl1ght/ppu/lib/librt.a(dirent.o) (strncpy)
/opt/ps3dev/ppu/lib/gcc/powerpc64-ps3-elf/4.7.0/../../../../powerpc64-ps3-elf/lib/libc.a(lib_a-svfscanf.o)
                              /opt/ps3dev/ppu/lib/gcc/powerpc64-ps3-elf/4.7.0/../../../../powerpc64-ps3-elf/lib/libc.a(lib_a-sscanf.o) (__ssvfscanf_r)
/opt/ps3dev/ppu/lib/gcc/powerpc64-ps3-elf/4.7.0/../../../../powerpc64-ps3-elf/lib/libc.a(lib_a-iswspace.o)
                              /opt/ps3dev/ppu/lib/gcc/powerpc64-ps3-elf/4.7.0/../../../../powerpc64-ps3-elf/lib/libc.a(lib_a-svfscanf.o) (iswspace)
/opt/ps3dev/ppu/lib/gcc/powerpc64-ps3-elf/4.7.0/../../../../powerpc64-ps3-elf/lib/libc.a(lib_a-mbrtowc.o)
                              /opt/ps3dev/ppu/lib/gcc/powerpc64-ps3-elf/4.7.0/../../../../powerpc64-ps3-elf/lib/libc.a(lib_a-svfscanf.o) (_mbrtowc_r)
/opt/ps3dev/ppu/lib/gcc/powerpc64-ps3-elf/4.7.0/../../../../powerpc64-ps3-elf/lib/libc.a(lib_a-mbtowc_r.o)
                              /opt/ps3dev/ppu/lib/gcc/powerpc64-ps3-elf/4.7.0/../../../../powerpc64-ps3-elf/lib/libc.a(lib_a-mbrtowc.o) (__mbtowc)
/opt/ps3dev/ppu/lib/gcc/powerpc64-ps3-elf/4.7.0/../../../../powerpc64-ps3-elf/lib/libc.a(lib_a-sccl.o)
                              /opt/ps3dev/ppu/lib/gcc/powerpc64-ps3-elf/4.7.0/../../../../powerpc64-ps3-elf/lib/libc.a(lib_a-svfscanf.o) (__sccl)
/opt/ps3dev/ppu/lib/gcc/powerpc64-ps3-elf/4.7.0/../../../../powerpc64-ps3-elf/lib/libc.a(lib_a-sf_nan.o)
                              /opt/ps3dev/ppu/lib/gcc/powerpc64-ps3-elf/4.7.0/../../../../powerpc64-ps3-elf/lib/libc.a(lib_a-svfscanf.o) (nanf)
/opt/ps3dev/ppu/lib/gcc/powerpc64-ps3-elf/4.7.0/../../../../powerpc64-ps3-elf/lib/libc.a(lib_a-sprintf.o)
                              /opt/ps3dev/ppu/lib/gcc/powerpc64-ps3-elf/4.7.0/../../../../powerpc64-ps3-elf/lib/libc.a(lib_a-svfscanf.o) (sprintf)
/opt/ps3dev/ppu/lib/gcc/powerpc64-ps3-elf/4.7.0/../../../../powerpc64-ps3-elf/lib/libc.a(lib_a-strtod.o)
                              /opt/ps3dev/ppu/lib/gcc/powerpc64-ps3-elf/4.7.0/../../../../powerpc64-ps3-elf/lib/libc.a(lib_a-svfscanf.o) (_strtod_r)
/opt/ps3dev/ppu/lib/gcc/powerpc64-ps3-elf/4.7.0/../../../../powerpc64-ps3-elf/lib/libc.a(lib_a-strtoll_r.o)
                              /opt/ps3dev/ppu/lib/gcc/powerpc64-ps3-elf/4.7.0/../../../../powerpc64-ps3-elf/lib/libc.a(lib_a-svfscanf.o) (_strtoll_r)
/opt/ps3dev/ppu/lib/gcc/powerpc64-ps3-elf/4.7.0/../../../../powerpc64-ps3-elf/lib/libc.a(lib_a-strtol.o)
                              /opt/ps3dev/ppu/lib/gcc/powerpc64-ps3-elf/4.7.0/../../../../powerpc64-ps3-elf/lib/libc.a(lib_a-svfscanf.o) (_strtol_r)
/opt/ps3dev/ppu/lib/gcc/powerpc64-ps3-elf/4.7.0/../../../../powerpc64-ps3-elf/lib/libc.a(lib_a-strtoull_r.o)
                              /opt/ps3dev/ppu/lib/gcc/powerpc64-ps3-elf/4.7.0/../../../../powerpc64-ps3-elf/lib/libc.a(lib_a-svfscanf.o) (_strtoull_r)
/opt/ps3dev/ppu/lib/gcc/powerpc64-ps3-elf/4.7.0/../../../../powerpc64-ps3-elf/lib/libc.a(lib_a-strtoul.o)
                              /opt/ps3dev/ppu/lib/gcc/powerpc64-ps3-elf/4.7.0/../../../../powerpc64-ps3-elf/lib/libc.a(lib_a-svfscanf.o) (_strtoul_r)
/opt/ps3dev/ppu/lib/gcc/powerpc64-ps3-elf/4.7.0/../../../../powerpc64-ps3-elf/lib/libc.a(lib_a-svfiscanf.o)
                              /opt/ps3dev/ppu/lib/gcc/powerpc64-ps3-elf/4.7.0/../../../../powerpc64-ps3-elf/lib/libc.a(lib_a-svfscanf.o) (_sungetc_r)
/opt/ps3dev/ppu/lib/gcc/powerpc64-ps3-elf/4.7.0/../../../../powerpc64-ps3-elf/lib/libc.a(lib_a-ungetc.o)
                              /opt/ps3dev/ppu/lib/gcc/powerpc64-ps3-elf/4.7.0/../../../../powerpc64-ps3-elf/lib/libc.a(lib_a-svfiscanf.o) (__submore)
/opt/ps3dev/ppu/lib/gcc/powerpc64-ps3-elf/4.7.0/../../../../powerpc64-ps3-elf/lib/libc.a(lib_a-fflush.o)
                              /opt/ps3dev/ppu/lib/gcc/powerpc64-ps3-elf/4.7.0/../../../../powerpc64-ps3-elf/lib/libc.a(lib_a-ungetc.o) (_fflush_r)
/opt/ps3dev/ppu/lib/gcc/powerpc64-ps3-elf/4.7.0/../../../../powerpc64-ps3-elf/lib/libc.a(lib_a-findfp.o)
                              /opt/ps3dev/ppu/lib/gcc/powerpc64-ps3-elf/4.7.0/../../../../powerpc64-ps3-elf/lib/libc.a(lib_a-ungetc.o) (__sinit)
/opt/ps3dev/ppu/lib/gcc/powerpc64-ps3-elf/4.7.0/../../../../powerpc64-ps3-elf/lib/libc.a(lib_a-fwalk.o)
                              /opt/ps3dev/ppu/lib/gcc/powerpc64-ps3-elf/4.7.0/../../../../powerpc64-ps3-elf/lib/libc.a(lib_a-findfp.o) (_fwalk)
/opt/ps3dev/ppu/lib/gcc/powerpc64-ps3-elf/4.7.0/../../../../powerpc64-ps3-elf/lib/libc.a(lib_a-gdtoa-gethex.o)
                              /opt/ps3dev/ppu/lib/gcc/powerpc64-ps3-elf/4.7.0/../../../../powerpc64-ps3-elf/lib/libc.a(lib_a-strtod.o) (__gethex)
/opt/ps3dev/ppu/lib/gcc/powerpc64-ps3-elf/4.7.0/../../../../powerpc64-ps3-elf/lib/libc.a(lib_a-gdtoa-hexnan.o)
                              /opt/ps3dev/ppu/lib/gcc/powerpc64-ps3-elf/4.7.0/../../../../powerpc64-ps3-elf/lib/libc.a(lib_a-strtod.o) (__hexnan)
/opt/ps3dev/ppu/lib/gcc/powerpc64-ps3-elf/4.7.0/../../../../powerpc64-ps3-elf/lib/libc.a(lib_a-strncmp.o)
                              /opt/ps3dev/ppu/lib/gcc/powerpc64-ps3-elf/4.7.0/../../../../powerpc64-ps3-elf/lib/libc.a(lib_a-strtod.o) (strncmp)
/opt/ps3dev/ppu/lib/gcc/powerpc64-ps3-elf/4.7.0/../../../../powerpc64-ps3-elf/lib/libc.a(lib_a-fclose.o)
                              /opt/ps3dev/ppu/lib/gcc/powerpc64-ps3-elf/4.7.0/../../../../powerpc64-ps3-elf/lib/libc.a(lib_a-findfp.o) (fclose)
/opt/ps3dev/ppu/lib/gcc/powerpc64-ps3-elf/4.7.0/../../../../powerpc64-ps3-elf/lib/libsysbase.a(close.o)
                              /opt/ps3dev/ppu/lib/gcc/powerpc64-ps3-elf/4.7.0/../../../../powerpc64-ps3-elf/lib/libc.a(lib_a-stdio.o) (_close_r)
/opt/ps3dev/ppu/lib/gcc/powerpc64-ps3-elf/4.7.0/../../../../powerpc64-ps3-elf/lib/libsysbase.a(lseek.o)
                              /opt/ps3dev/ppu/lib/gcc/powerpc64-ps3-elf/4.7.0/../../../../powerpc64-ps3-elf/lib/libc.a(lib_a-stdio.o) (_lseek_r)
/opt/ps3dev/ppu/lib/gcc/powerpc64-ps3-elf/4.7.0/../../../../powerpc64-ps3-elf/lib/libsysbase.a(read.o)
                              /opt/ps3dev/ppu/lib/gcc/powerpc64-ps3-elf/4.7.0/../../../../powerpc64-ps3-elf/lib/libc.a(lib_a-stdio.o) (_read_r)
/opt/ps3dev/ppu/lib/gcc/powerpc64-ps3-elf/4.7.0/../../../../powerpc64-ps3-elf/lib/libsysbase.a(write.o)
                              /opt/ps3dev/ppu/lib/gcc/powerpc64-ps3-elf/4.7.0/../../../../powerpc64-ps3-elf/lib/libc.a(lib_a-stdio.o) (_write_r)

Allocating common symbols
Common symbol       size              file

Video_buffer        0x10              /opt/ps3dev/portlibs/ppu/lib/libtiny3d.a(rsxutil.o)
Video_aspect        0x1               /opt/ps3dev/portlibs/ppu/lib/libtiny3d.a(rsxutil.o)
Video_pitch         0x4               /opt/ps3dev/portlibs/ppu/lib/libtiny3d.a(rsxutil.o)
ya2d_paddata        0x39c             main.o
__hexdig            0x100             /opt/ps3dev/ppu/lib/gcc/powerpc64-ps3-elf/4.7.0/../../../../powerpc64-ps3-elf/lib/libc.a(lib_a-gdtoa-gethex.o)
context             0x8               /opt/ps3dev/portlibs/ppu/lib/libtiny3d.a(rsxutil.o)
heap_pointer        0x8               /opt/ps3dev/portlibs/ppu/lib/libtiny3d.a(mm.o)
ya2d_padinfo        0x7c              main.o
Video_Resolution    0x4               /opt/ps3dev/portlibs/ppu/lib/libtiny3d.a(rsxutil.o)
config              0x18              /opt/ps3dev/portlibs/ppu/lib/libtiny3d.a(mm.o)

Discarded input sections

 .note.GNU-stack
                0x0000000000000000        0x0 /opt/ps3dev/psl1ght/ppu/lib/libgcm_sys.a(sprx.o)
 .note.GNU-stack
                0x0000000000000000        0x0 /opt/ps3dev/psl1ght/ppu/lib/libsysutil.a(sprx.o)
 .note.GNU-stack
                0x0000000000000000        0x0 /opt/ps3dev/psl1ght/ppu/lib/libio.a(sprx.o)
 .note.GNU-stack
                0x0000000000000000        0x0 /opt/ps3dev/psl1ght/ppu/lib/liblv2.a(sprx.o)
 .note.GNU-stack
                0x0000000000000000        0x0 /opt/ps3dev/psl1ght/ppu/lib/libsysmodule.a(sprx.o)
 .note.GNU-stack
                0x0000000000000000        0x0 /opt/ps3dev/psl1ght/ppu/lib/libpngdec.a(sprx.o)
 .note.GNU-stack
                0x0000000000000000        0x0 /opt/ps3dev/psl1ght/ppu/lib/libjpgdec.a(sprx.o)

Memory Configuration

Name             Origin             Length             Attributes
*default*        0x0000000000000000 0xffffffffffffffff

Linker script and memory map

                0x0000000000010000                PROVIDE (__executable_start, 0x10000)
                0x0000000000010200                . = (0x10000 + SIZEOF_HEADERS)

.interp
 *(.interp)

.hash
 *(.hash)

.dynsym
 *(.dynsym)

.dynstr
 *(.dynstr)

.gnu.version
 *(.gnu.version)

.gnu.version_d
 *(.gnu.version_d)

.gnu.version_r
 *(.gnu.version_r)

.rel.dyn
 *(.rel.init)
 *(.rel.text .rel.text.* .rel.gnu.linkonce.t.*)
 *(.rel.fini)
 *(.rel.rodata .rel.rodata.* .rel.gnu.linkonce.r.*)
 *(.rel.data.rel.ro*)
 *(.rel.data .rel.data.* .rel.gnu.linkonce.d.*)
 *(.rel.tdata .rel.tdata.* .rel.gnu.linkonce.td.*)
 *(.rel.tbss .rel.tbss.* .rel.gnu.linkonce.tb.*)
 *(.rel.ctors)
 *(.rel.dtors)
 *(.rel.got)
 *(.rel.sdata .rel.sdata.* .rel.gnu.linkonce.s.*)
 *(.rel.sbss .rel.sbss.* .rel.gnu.linkonce.sb.*)
 *(.rel.sdata2 .rel.sdata2.* .rel.gnu.linkonce.s2.*)
 *(.rel.sbss2 .rel.sbss2.* .rel.gnu.linkonce.sb2.*)
 *(.rel.bss .rel.bss.* .rel.gnu.linkonce.b.*)

.rela.dyn       0x0000000000010200        0x0
 *(.rela.init)
 *(.rela.text .rela.text.* .rela.gnu.linkonce.t.*)
 *(.rela.fini)
 *(.rela.rodata .rela.rodata.* .rela.gnu.linkonce.r.*)
 *(.rela.data .rela.data.* .rela.gnu.linkonce.d.*)
 *(.rela.tdata .rela.tdata.* .rela.gnu.linkonce.td.*)
 *(.rela.tbss .rela.tbss.* .rela.gnu.linkonce.tb.*)
 *(.rela.ctors)
 *(.rela.dtors)
 *(.rela.got)
 *(.rela.toc)
 .rela.toc      0x0000000000000000        0x0 linker stubs
 *(.rela.sdata .rela.sdata.* .rela.gnu.linkonce.s.*)
 *(.rela.sbss .rela.sbss.* .rela.gnu.linkonce.sb.*)
 *(.rela.sdata2 .rela.sdata2.* .rela.gnu.linkonce.s2.*)
 *(.rela.sbss2 .rela.sbss2.* .rela.gnu.linkonce.sb2.*)
 *(.rela.bss .rela.bss.* .rela.gnu.linkonce.b.*)
 .rela.iplt     0x0000000000000000        0x0 linker stubs
 .rela.sys_proc_prx_param
                0x0000000000000000        0x0 linker stubs
 .rela.opd      0x0000000000000000        0x0 linker stubs

.rel.plt
 *(.rel.plt)

.rela.plt
 *(.rela.plt)

.rela.tocbss
 *(.rela.tocbss)

.init           0x0000000000010200       0x2c
 *(.init)
 .init          0x0000000000010200        0xc /opt/ps3dev/ppu/lib/gcc/powerpc64-ps3-elf/4.7.0/../../../../powerpc64-ps3-elf/lib/lv2-crti.o
                0x0000000000010200                ._init
 .init          0x000000000001020c        0x8 /opt/ps3dev/ppu/lib/gcc/powerpc64-ps3-elf/4.7.0/crtbegin.o
 .init          0x0000000000010214        0x8 /opt/ps3dev/ppu/lib/gcc/powerpc64-ps3-elf/4.7.0/crtend.o
 .init          0x000000000001021c       0x10 /opt/ps3dev/ppu/lib/gcc/powerpc64-ps3-elf/4.7.0/../../../../powerpc64-ps3-elf/lib/lv2-crtn.o

.text           0x0000000000010230    0x24c94
 *(.text .stub .text.* .gnu.linkonce.t.*)
 .text          0x0000000000010230        0x0 /opt/ps3dev/ppu/lib/gcc/powerpc64-ps3-elf/4.7.0/../../../../powerpc64-ps3-elf/lib/lv2-crti.o
 .text          0x0000000000010230        0x0 /opt/ps3dev/ppu/lib/gcc/powerpc64-ps3-elf/4.7.0/crtbegin.o
 .text.deregister_tm_clones
                0x0000000000010230       0x5c /opt/ps3dev/ppu/lib/gcc/powerpc64-ps3-elf/4.7.0/crtbegin.o
 *fill*         0x000000000001028c        0x4 60000000
 .text.register_tm_clones
                0x0000000000010290       0x60 /opt/ps3dev/ppu/lib/gcc/powerpc64-ps3-elf/4.7.0/crtbegin.o
 .text.__do_global_dtors_aux
                0x00000000000102f0       0xcc /opt/ps3dev/ppu/lib/gcc/powerpc64-ps3-elf/4.7.0/crtbegin.o
 *fill*         0x00000000000103bc        0x4 60000000
 .text.frame_dummy
                0x00000000000103c0       0x70 /opt/ps3dev/ppu/lib/gcc/powerpc64-ps3-elf/4.7.0/crtbegin.o
 .text          0x0000000000010430       0x58 /opt/ps3dev/ppu/lib/gcc/powerpc64-ps3-elf/4.7.0/../../../../powerpc64-ps3-elf/lib/lv2-crt0.o
                0x0000000000010430                ._start
 .text.startup.__syscalls_init
                0x0000000000010488      0x12c /opt/ps3dev/ppu/lib/gcc/powerpc64-ps3-elf/4.7.0/../../../../powerpc64-ps3-elf/lib/lv2-crt0.o
 *fill*         0x00000000000105b4        0x4 60000000
 .text._initialize
                0x00000000000105b8       0x40 /opt/ps3dev/ppu/lib/gcc/powerpc64-ps3-elf/4.7.0/../../../../powerpc64-ps3-elf/lib/lv2-crt0.o
                0x00000000000105b8                ._initialize
 .text          0x00000000000105f8        0x0 /opt/ps3dev/ppu/lib/gcc/powerpc64-ps3-elf/4.7.0/../../../../powerpc64-ps3-elf/lib/lv2-sprx.o
 .text          0x00000000000105f8        0x0 alphaimg.png.o
 .text          0x00000000000105f8        0x0 pngsample.png.o
 .text          0x00000000000105f8        0x0 main.o
 .text.startup.main
                0x00000000000105f8      0x27c main.o
                0x00000000000105f8                .main
 .text          0x0000000000010874        0x0 /opt/ps3dev/portlibs/ppu/lib/libya2d.a(ya2d.o)
 *fill*         0x0000000000010874        0x4 60000000
 .text.ya2d_init
                0x0000000000010878      0x124 /opt/ps3dev/portlibs/ppu/lib/libya2d.a(ya2d.o)
                0x0000000000010878                .ya2d_init
 *fill*         0x000000000001099c        0x4 60000000
 .text.ya2d_deinit
                0x00000000000109a0       0x6c /opt/ps3dev/portlibs/ppu/lib/libya2d.a(ya2d.o)
                0x00000000000109a0                .ya2d_deinit
 *fill*         0x0000000000010a0c        0x4 60000000
 .text.ya2d_readControls
                0x0000000000010a10       0x10 /opt/ps3dev/portlibs/ppu/lib/libya2d.a(ya2d.o)
                0x0000000000010a10                .ya2d_readControls
 .text.ya2d_error
                0x0000000000010a20       0x6c /opt/ps3dev/portlibs/ppu/lib/libya2d.a(ya2d.o)
                0x0000000000010a20                .ya2d_error
 .text          0x0000000000010a8c        0x0 /opt/ps3dev/portlibs/ppu/lib/libya2d.a(ya2d_controls.o)
 *fill*         0x0000000000010a8c        0x4 60000000
 .text.ya2d_controlsRead
                0x0000000000010a90       0xa4 /opt/ps3dev/portlibs/ppu/lib/libya2d.a(ya2d_controls.o)
                0x0000000000010a90                .ya2d_controlsRead
 .text          0x0000000000010b34        0x0 /opt/ps3dev/portlibs/ppu/lib/libya2d.a(ya2d_draw.o)
 *fill*         0x0000000000010b34        0x4 60000000
 .text.ya2d_drawRect
                0x0000000000010b38      0x1dc /opt/ps3dev/portlibs/ppu/lib/libya2d.a(ya2d_draw.o)
                0x0000000000010b38                .ya2d_drawRect
 *fill*         0x0000000000010d14        0x4 60000000
 .text.ya2d_drawFillRect
                0x0000000000010d18      0x1dc /opt/ps3dev/portlibs/ppu/lib/libya2d.a(ya2d_draw.o)
                0x0000000000010d18                .ya2d_drawFillRect
 .text          0x0000000000010ef4        0x0 /opt/ps3dev/portlibs/ppu/lib/libya2d.a(ya2d_screen.o)
 *fill*         0x0000000000010ef4        0x4 60000000
 .text.ya2d_screenClear
                0x0000000000010ef8       0x74 /opt/ps3dev/portlibs/ppu/lib/libya2d.a(ya2d_screen.o)
                0x0000000000010ef8                .ya2d_screenClear
 *fill*         0x0000000000010f6c        0x4 60000000
 .text.ya2d_screenSetClearColor
                0x0000000000010f70       0x18 /opt/ps3dev/portlibs/ppu/lib/libya2d.a(ya2d_screen.o)
                0x0000000000010f70                .ya2d_screenSetClearColor
 .text.ya2d_screenBeginDrawing
                0x0000000000010f88       0x30 /opt/ps3dev/portlibs/ppu/lib/libya2d.a(ya2d_screen.o)
                0x0000000000010f88                .ya2d_screenBeginDrawing
 .text.ya2d_screenFlip
                0x0000000000010fb8      0x1b4 /opt/ps3dev/portlibs/ppu/lib/libya2d.a(ya2d_screen.o)
                0x0000000000010fb8                .ya2d_screenFlip
 *fill*         0x000000000001116c        0x4 60000000
 .text.ya2d_screenFPS
                0x0000000000011170       0x18 /opt/ps3dev/portlibs/ppu/lib/libya2d.a(ya2d_screen.o)
                0x0000000000011170                .ya2d_screenFPS
 .text          0x0000000000011188        0x0 /opt/ps3dev/portlibs/ppu/lib/libya2d.a(ya2d_texture.o)
 .text.ya2d_createTexture
                0x0000000000011188      0x118 /opt/ps3dev/portlibs/ppu/lib/libya2d.a(ya2d_texture.o)
                0x0000000000011188                .ya2d_createTexture
 .text.ya2d_swizzleTexture
                0x00000000000112a0       0xc8 /opt/ps3dev/portlibs/ppu/lib/libya2d.a(ya2d_texture.o)
                0x00000000000112a0                .ya2d_swizzleTexture
 .text.ya2d_setTexture
                0x0000000000011368       0x50 /opt/ps3dev/portlibs/ppu/lib/libya2d.a(ya2d_texture.o)
                0x0000000000011368                .ya2d_setTexture
 .text.ya2d_freeTexture
                0x00000000000113b8       0x64 /opt/ps3dev/portlibs/ppu/lib/libya2d.a(ya2d_texture.o)
                0x00000000000113b8                .ya2d_freeTexture
 *fill*         0x000000000001141c        0x4 60000000
 .text.ya2d_drawTexture
                0x0000000000011420      0x334 /opt/ps3dev/portlibs/ppu/lib/libya2d.a(ya2d_texture.o)
                0x0000000000011420                .ya2d_drawTexture
 *fill*         0x0000000000011754        0x4 60000000
 .text.ya2d_drawRotateTexture
                0x0000000000011758      0x6ac /opt/ps3dev/portlibs/ppu/lib/libya2d.a(ya2d_texture.o)
                0x0000000000011758                .ya2d_drawRotateTexture
 *fill*         0x0000000000011e04        0x4 60000000
 .text.ya2d_drawBlendTexture
                0x0000000000011e08      0x344 /opt/ps3dev/portlibs/ppu/lib/libya2d.a(ya2d_texture.o)
                0x0000000000011e08                .ya2d_drawBlendTexture
 *fill*         0x000000000001214c        0x4 60000000
 .text.ya2d_loadPNGfromFile
                0x0000000000012150       0x94 /opt/ps3dev/portlibs/ppu/lib/libya2d.a(ya2d_texture.o)
                0x0000000000012150                .ya2d_loadPNGfromFile
 *fill*         0x00000000000121e4        0x4 60000000
 .text.ya2d_loadPNGfromBuffer
                0x00000000000121e8       0x94 /opt/ps3dev/portlibs/ppu/lib/libya2d.a(ya2d_texture.o)
                0x00000000000121e8                .ya2d_loadPNGfromBuffer
 *fill*         0x000000000001227c        0x4 60000000
 .text.ya2d_loadJPGfromFile
                0x0000000000012280       0x94 /opt/ps3dev/portlibs/ppu/lib/libya2d.a(ya2d_texture.o)
                0x0000000000012280                .ya2d_loadJPGfromFile
 *fill*         0x0000000000012314        0x4 60000000
 .text.ya2d_loadJPGfromBuffer
                0x0000000000012318       0x94 /opt/ps3dev/portlibs/ppu/lib/libya2d.a(ya2d_texture.o)
                0x0000000000012318                .ya2d_loadJPGfromBuffer
 .text          0x00000000000123ac        0x0 /opt/ps3dev/portlibs/ppu/lib/libya2d.a(ya2d_utils.o)
 *fill*         0x00000000000123ac        0x4 60000000
 .text.swizzle_fast
                0x00000000000123b0       0xf0 /opt/ps3dev/portlibs/ppu/lib/libya2d.a(ya2d_utils.o)
                0x00000000000123b0                .swizzle_fast
 .text.next_pow2
                0x00000000000124a0       0x44 /opt/ps3dev/portlibs/ppu/lib/libya2d.a(ya2d_utils.o)
                0x00000000000124a0                .next_pow2
 .text          0x00000000000124e4        0x0 /opt/ps3dev/portlibs/ppu/lib/libya2d.a(msxfont.o)
 .text          0x00000000000124e4        0x0 /opt/ps3dev/portlibs/ppu/lib/libya2d.a(valloc.o)
 *fill*         0x00000000000124e4        0x4 60000000
 .text.init_valloc
                0x00000000000124e8       0x20 /opt/ps3dev/portlibs/ppu/lib/libya2d.a(valloc.o)
                0x00000000000124e8                .init_valloc
 .text.vgetMemorySize
                0x0000000000012508       0x64 /opt/ps3dev/portlibs/ppu/lib/libya2d.a(valloc.o)
                0x0000000000012508                .vgetMemorySize
 *fill*         0x000000000001256c        0x4 60000000
 .text.vGuPointer
                0x0000000000012570       0x1c /opt/ps3dev/portlibs/ppu/lib/libya2d.a(valloc.o)
                0x0000000000012570                .vGuPointer
 *fill*         0x000000000001258c        0x4 60000000
 .text.vCPUPointer
                0x0000000000012590       0x1c /opt/ps3dev/portlibs/ppu/lib/libya2d.a(valloc.o)
                0x0000000000012590                .vCPUPointer
 *fill*         0x00000000000125ac        0x4 60000000
 .text._vram_mem_fit
                0x00000000000125b0       0xa8 /opt/ps3dev/portlibs/ppu/lib/libya2d.a(valloc.o)
                0x00000000000125b0                ._vram_mem_fit
 .text.valloc   0x0000000000012658      0x18c /opt/ps3dev/portlibs/ppu/lib/libya2d.a(valloc.o)
                0x0000000000012658                .valloc
 *fill*         0x00000000000127e4        0x4 60000000
 .text.vfree    0x00000000000127e8      0x104 /opt/ps3dev/portlibs/ppu/lib/libya2d.a(valloc.o)
                0x00000000000127e8                .vfree
 *fill*         0x00000000000128ec        0x4 60000000
 .text.vmemavail
                0x00000000000128f0       0x78 /opt/ps3dev/portlibs/ppu/lib/libya2d.a(valloc.o)
                0x00000000000128f0                .vmemavail
 .text.vlargestblock
                0x0000000000012968       0x7c /opt/ps3dev/portlibs/ppu/lib/libya2d.a(valloc.o)
                0x0000000000012968                .vlargestblock
 .text          0x00000000000129e4        0x0 /opt/ps3dev/portlibs/ppu/lib/libfont.a(libfont.o)
 *fill*         0x00000000000129e4        0x4 60000000
 .text.i_must_break_line
                0x00000000000129e8      0x12c /opt/ps3dev/portlibs/ppu/lib/libfont.a(libfont.o)
 *fill*         0x0000000000012b14        0x4 60000000
 .text.ResetFont
                0x0000000000012b18       0x7c /opt/ps3dev/portlibs/ppu/lib/libfont.a(libfont.o)
                0x0000000000012b18                .ResetFont
 *fill*         0x0000000000012b94        0x4 60000000
 .text.AddFontFromBitmapArray
                0x0000000000012b98      0x434 /opt/ps3dev/portlibs/ppu/lib/libfont.a(libfont.o)
                0x0000000000012b98                .AddFontFromBitmapArray
 *fill*         0x0000000000012fcc        0x4 60000000
 .text.AddFontFromTTF
                0x0000000000012fd0      0x3c4 /opt/ps3dev/portlibs/ppu/lib/libfont.a(libfont.o)
                0x0000000000012fd0                .AddFontFromTTF
 *fill*         0x0000000000013394        0x4 60000000
 .text.SetCurrentFont
                0x0000000000013398       0x4c /opt/ps3dev/portlibs/ppu/lib/libfont.a(libfont.o)
                0x0000000000013398                .SetCurrentFont
 *fill*         0x00000000000133e4        0x4 60000000
 .text.SetFontSize
                0x00000000000133e8       0x34 /opt/ps3dev/portlibs/ppu/lib/libfont.a(libfont.o)
                0x00000000000133e8                .SetFontSize
 *fill*         0x000000000001341c        0x4 60000000
 .text.SetFontColor
                0x0000000000013420       0x1c /opt/ps3dev/portlibs/ppu/lib/libfont.a(libfont.o)
                0x0000000000013420                .SetFontColor
 *fill*         0x000000000001343c        0x4 60000000
 .text.SetFontTextureMethod
                0x0000000000013440       0x18 /opt/ps3dev/portlibs/ppu/lib/libfont.a(libfont.o)
                0x0000000000013440                .SetFontTextureMethod
 .text.SetDoubleTextureModule
                0x0000000000013458       0x1c /opt/ps3dev/portlibs/ppu/lib/libfont.a(libfont.o)
                0x0000000000013458                .SetDoubleTextureModule
 *fill*         0x0000000000013474        0x4 60000000
 .text.SetFontAutoCenter
                0x0000000000013478       0x20 /opt/ps3dev/portlibs/ppu/lib/libfont.a(libfont.o)
                0x0000000000013478                .SetFontAutoCenter
 .text.SetFontAutoNewLine
                0x0000000000013498       0x20 /opt/ps3dev/portlibs/ppu/lib/libfont.a(libfont.o)
                0x0000000000013498                .SetFontAutoNewLine
 .text.SetFontZ
                0x00000000000134b8       0x18 /opt/ps3dev/portlibs/ppu/lib/libfont.a(libfont.o)
                0x00000000000134b8                .SetFontZ
 .text.GetFontX
                0x00000000000134d0       0x18 /opt/ps3dev/portlibs/ppu/lib/libfont.a(libfont.o)
                0x00000000000134d0                .GetFontX
 .text.GetFontY
                0x00000000000134e8       0x18 /opt/ps3dev/portlibs/ppu/lib/libfont.a(libfont.o)
                0x00000000000134e8                .GetFontY
 .text.SetFontScreenLimits
                0x0000000000013500       0x1c /opt/ps3dev/portlibs/ppu/lib/libfont.a(libfont.o)
                0x0000000000013500                .SetFontScreenLimits
 *fill*         0x000000000001351c        0x4 60000000
 .text.DrawChar
                0x0000000000013520      0xa1c /opt/ps3dev/portlibs/ppu/lib/libfont.a(libfont.o)
                0x0000000000013520                .DrawChar
 *fill*         0x0000000000013f3c        0x4 60000000
 .text.DrawString
                0x0000000000013f40      0x2fc /opt/ps3dev/portlibs/ppu/lib/libfont.a(libfont.o)
                0x0000000000013f40                .DrawString
 *fill*         0x000000000001423c        0x4 60000000
 .text.DrawFormatString
                0x0000000000014240      0x330 /opt/ps3dev/portlibs/ppu/lib/libfont.a(libfont.o)
                0x0000000000014240                .DrawFormatString
 .text          0x0000000000014570        0x0 /opt/ps3dev/portlibs/ppu/lib/libtiny3d.a(matrix.o)
 .text.MatrixProjPerspective
                0x0000000000014570      0x120 /opt/ps3dev/portlibs/ppu/lib/libtiny3d.a(matrix.o)
                0x0000000000014570                .MatrixProjPerspective
 .text.MatrixVectorMultiply
                0x0000000000014690       0xa4 /opt/ps3dev/portlibs/ppu/lib/libtiny3d.a(matrix.o)
                0x0000000000014690                .MatrixVectorMultiply
 *fill*         0x0000000000014734        0x4 60000000
 .text.MatrixVectorMultiply3x3
                0x0000000000014738       0x8c /opt/ps3dev/portlibs/ppu/lib/libtiny3d.a(matrix.o)
                0x0000000000014738                .MatrixVectorMultiply3x3
 *fill*         0x00000000000147c4        0x4 60000000
 .text.MatrixMultiply
                0x00000000000147c8      0x2cc /opt/ps3dev/portlibs/ppu/lib/libtiny3d.a(matrix.o)
                0x00000000000147c8                .MatrixMultiply
 *fill*         0x0000000000014a94        0x4 60000000
 .text.MatrixIdentity
                0x0000000000014a98       0x54 /opt/ps3dev/portlibs/ppu/lib/libtiny3d.a(matrix.o)
                0x0000000000014a98                .MatrixIdentity
 *fill*         0x0000000000014aec        0x4 60000000
 .text.MatrixTranslation
                0x0000000000014af0       0x58 /opt/ps3dev/portlibs/ppu/lib/libtiny3d.a(matrix.o)
                0x0000000000014af0                .MatrixTranslation
 .text.MatrixTranspose
                0x0000000000014b48       0xb8 /opt/ps3dev/portlibs/ppu/lib/libtiny3d.a(matrix.o)
                0x0000000000014b48                .MatrixTranspose
 .text.MatrixScale
                0x0000000000014c00       0x60 /opt/ps3dev/portlibs/ppu/lib/libtiny3d.a(matrix.o)
                0x0000000000014c00                .MatrixScale
 .text.MatrixRotationX
                0x0000000000014c60       0xbc /opt/ps3dev/portlibs/ppu/lib/libtiny3d.a(matrix.o)
                0x0000000000014c60                .MatrixRotationX
 *fill*         0x0000000000014d1c        0x4 60000000
 .text.MatrixRotationY
                0x0000000000014d20       0xbc /opt/ps3dev/portlibs/ppu/lib/libtiny3d.a(matrix.o)
                0x0000000000014d20                .MatrixRotationY
 *fill*         0x0000000000014ddc        0x4 60000000
 .text.MatrixRotationZ
                0x0000000000014de0       0xbc /opt/ps3dev/portlibs/ppu/lib/libtiny3d.a(matrix.o)
                0x0000000000014de0                .MatrixRotationZ
 *fill*         0x0000000000014e9c        0x4 60000000
 .text.MatrixRotationAxis
                0x0000000000014ea0      0x2a8 /opt/ps3dev/portlibs/ppu/lib/libtiny3d.a(matrix.o)
                0x0000000000014ea0                .MatrixRotationAxis
 .text.VectorToUnit
                0x0000000000015148       0xbc /opt/ps3dev/portlibs/ppu/lib/libtiny3d.a(matrix.o)
                0x0000000000015148                .VectorToUnit
 *fill*         0x0000000000015204        0x4 60000000
 .text.VectorNormalPlane
                0x0000000000015208       0xdc /opt/ps3dev/portlibs/ppu/lib/libtiny3d.a(matrix.o)
                0x0000000000015208                .VectorNormalPlane
 *fill*         0x00000000000152e4        0x4 60000000
 .text.MakeLookAtMatrix
                0x00000000000152e8      0x2b8 /opt/ps3dev/portlibs/ppu/lib/libtiny3d.a(matrix.o)
                0x00000000000152e8                .MakeLookAtMatrix
 .text          0x00000000000155a0        0x0 /opt/ps3dev/portlibs/ppu/lib/libtiny3d.a(tiny3d.o)
 .text.put_vertex
                0x00000000000155a0      0x22c /opt/ps3dev/portlibs/ppu/lib/libtiny3d.a(tiny3d.o)
 *fill*         0x00000000000157cc        0x4 60000000
 .text.push_list_cmd
                0x00000000000157d0      0x15c /opt/ps3dev/portlibs/ppu/lib/libtiny3d.a(tiny3d.o)
 *fill*         0x000000000001592c        0x4 60000000
 .text.tiny3d_callback
                0x0000000000015930      0x164 /opt/ps3dev/portlibs/ppu/lib/libtiny3d.a(tiny3d.o)
 *fill*         0x0000000000015a94        0x4 60000000
 .text.tiny3d_Exit
                0x0000000000015a98      0x18c /opt/ps3dev/portlibs/ppu/lib/libtiny3d.a(tiny3d.o)
                0x0000000000015a98                .tiny3d_Exit
 *fill*         0x0000000000015c24        0x4 60000000
 .text.Update_With_Normal
                0x0000000000015c28      0x2f8 /opt/ps3dev/portlibs/ppu/lib/libtiny3d.a(tiny3d.o)
 .text.set_shader_context
                0x0000000000015f20      0x390 /opt/ps3dev/portlibs/ppu/lib/libtiny3d.a(tiny3d.o)
 .text.push_position_list
                0x00000000000162b0      0x1e8 /opt/ps3dev/portlibs/ppu/lib/libtiny3d.a(tiny3d.o)
 .text.push_normal_list
                0x0000000000016498      0x1b4 /opt/ps3dev/portlibs/ppu/lib/libtiny3d.a(tiny3d.o)
 *fill*         0x000000000001664c        0x4 60000000
 .text.tiny3d_alarm
                0x0000000000016650       0x10 /opt/ps3dev/portlibs/ppu/lib/libtiny3d.a(tiny3d.o)
                0x0000000000016650                .tiny3d_alarm
 .text.tiny3d_RecordList
                0x0000000000016660       0x9c /opt/ps3dev/portlibs/ppu/lib/libtiny3d.a(tiny3d.o)
                0x0000000000016660                .tiny3d_RecordList
 *fill*         0x00000000000166fc        0x4 60000000
 .text.tiny3d_StopList
                0x0000000000016700      0x158 /opt/ps3dev/portlibs/ppu/lib/libtiny3d.a(tiny3d.o)
                0x0000000000016700                .tiny3d_StopList
 .text.tiny3d_FreeList
                0x0000000000016858       0xcc /opt/ps3dev/portlibs/ppu/lib/libtiny3d.a(tiny3d.o)
                0x0000000000016858                .tiny3d_FreeList
 *fill*         0x0000000000016924        0x4 60000000
 .text.tiny3d_DynamicMatrixList
                0x0000000000016928       0xf0 /opt/ps3dev/portlibs/ppu/lib/libtiny3d.a(tiny3d.o)
                0x0000000000016928                .tiny3d_DynamicMatrixList
 .text.tiny3d_ApplyMatrixList
                0x0000000000016a18       0xb0 /opt/ps3dev/portlibs/ppu/lib/libtiny3d.a(tiny3d.o)
                0x0000000000016a18                .tiny3d_ApplyMatrixList
 .text.tiny3d_Init
                0x0000000000016ac8      0x500 /opt/ps3dev/portlibs/ppu/lib/libtiny3d.a(tiny3d.o)
                0x0000000000016ac8                .tiny3d_Init
 .text.tiny3d_SetPolygon
                0x0000000000016fc8      0x26c /opt/ps3dev/portlibs/ppu/lib/libtiny3d.a(tiny3d.o)
                0x0000000000016fc8                .tiny3d_SetPolygon
 *fill*         0x0000000000017234        0x4 60000000
 .text.tiny3d_VertexPos
                0x0000000000017238       0xcc /opt/ps3dev/portlibs/ppu/lib/libtiny3d.a(tiny3d.o)
                0x0000000000017238                .tiny3d_VertexPos
 *fill*         0x0000000000017304        0x4 60000000
 .text.tiny3d_VertexPos4
                0x0000000000017308       0xd0 /opt/ps3dev/portlibs/ppu/lib/libtiny3d.a(tiny3d.o)
                0x0000000000017308                .tiny3d_VertexPos4
 .text.tiny3d_VertexPosVector
                0x00000000000173d8       0xe0 /opt/ps3dev/portlibs/ppu/lib/libtiny3d.a(tiny3d.o)
                0x00000000000173d8                .tiny3d_VertexPosVector
 .text.tiny3d_VertexColor
                0x00000000000174b8       0xb4 /opt/ps3dev/portlibs/ppu/lib/libtiny3d.a(tiny3d.o)
                0x00000000000174b8                .tiny3d_VertexColor
 *fill*         0x000000000001756c        0x4 60000000
 .text.tiny3d_VertexFcolor
                0x0000000000017570      0x104 /opt/ps3dev/portlibs/ppu/lib/libtiny3d.a(tiny3d.o)
                0x0000000000017570                .tiny3d_VertexFcolor
 *fill*         0x0000000000017674        0x4 60000000
 .text.tiny3d_VertexTexture
                0x0000000000017678       0xbc /opt/ps3dev/portlibs/ppu/lib/libtiny3d.a(tiny3d.o)
                0x0000000000017678                .tiny3d_VertexTexture
 *fill*         0x0000000000017734        0x4 60000000
 .text.tiny3d_VertexTexture2
                0x0000000000017738       0xcc /opt/ps3dev/portlibs/ppu/lib/libtiny3d.a(tiny3d.o)
                0x0000000000017738                .tiny3d_VertexTexture2
 *fill*         0x0000000000017804        0x4 60000000
 .text.tiny3d_Normal
                0x0000000000017808       0x48 /opt/ps3dev/portlibs/ppu/lib/libtiny3d.a(tiny3d.o)
                0x0000000000017808                .tiny3d_Normal
 .text.tiny3d_NormalVector
                0x0000000000017850       0x58 /opt/ps3dev/portlibs/ppu/lib/libtiny3d.a(tiny3d.o)
                0x0000000000017850                .tiny3d_NormalVector
 .text.tiny3d_End
                0x00000000000178a8      0x64c /opt/ps3dev/portlibs/ppu/lib/libtiny3d.a(tiny3d.o)
                0x00000000000178a8                .tiny3d_End
 *fill*         0x0000000000017ef4        0x4 60000000
 .text.tiny3d_SetMatrixModelView
                0x0000000000017ef8      0x274 /opt/ps3dev/portlibs/ppu/lib/libtiny3d.a(tiny3d.o)
                0x0000000000017ef8                .tiny3d_SetMatrixModelView
 *fill*         0x000000000001816c        0x4 60000000
 .text.tiny3d_SetProjectionMatrix
                0x0000000000018170       0xd8 /opt/ps3dev/portlibs/ppu/lib/libtiny3d.a(tiny3d.o)
                0x0000000000018170                .tiny3d_SetProjectionMatrix
 .text.tiny3d_Flip
                0x0000000000018248       0xf8 /opt/ps3dev/portlibs/ppu/lib/libtiny3d.a(tiny3d.o)
                0x0000000000018248                .tiny3d_Flip
 .text.tiny3d_UserViewport
                0x0000000000018340       0x64 /opt/ps3dev/portlibs/ppu/lib/libtiny3d.a(tiny3d.o)
                0x0000000000018340                .tiny3d_UserViewport
 *fill*         0x00000000000183a4        0x4 60000000
 .text.tiny3d_UserViewport2
                0x00000000000183a8       0x58 /opt/ps3dev/portlibs/ppu/lib/libtiny3d.a(tiny3d.o)
                0x00000000000183a8                .tiny3d_UserViewport2
 .text.tiny3d_UserViewportSurface
                0x0000000000018400       0x28 /opt/ps3dev/portlibs/ppu/lib/libtiny3d.a(tiny3d.o)
                0x0000000000018400                .tiny3d_UserViewportSurface
 .text.tiny3d_Project2D
                0x0000000000018428      0x328 /opt/ps3dev/portlibs/ppu/lib/libtiny3d.a(tiny3d.o)
                0x0000000000018428                .tiny3d_Project2D
 .text.tiny3d_Project3D
                0x0000000000018750      0x248 /opt/ps3dev/portlibs/ppu/lib/libtiny3d.a(tiny3d.o)
                0x0000000000018750                .tiny3d_Project3D
 .text.tiny3d_Clear
                0x0000000000018998      0x330 /opt/ps3dev/portlibs/ppu/lib/libtiny3d.a(tiny3d.o)
                0x0000000000018998                .tiny3d_Clear
 .text.tiny3d_ClearSurface
                0x0000000000018cc8      0x204 /opt/ps3dev/portlibs/ppu/lib/libtiny3d.a(tiny3d.o)
                0x0000000000018cc8                .tiny3d_ClearSurface
 *fill*         0x0000000000018ecc        0x4 60000000
 .text.tiny3d_AlphaTest
                0x0000000000018ed0       0x88 /opt/ps3dev/portlibs/ppu/lib/libtiny3d.a(tiny3d.o)
                0x0000000000018ed0                .tiny3d_AlphaTest
 .text.tiny3d_BlendFunc
                0x0000000000018f58       0x84 /opt/ps3dev/portlibs/ppu/lib/libtiny3d.a(tiny3d.o)
                0x0000000000018f58                .tiny3d_BlendFunc
 *fill*         0x0000000000018fdc        0x4 60000000
 .text.tiny3d_SetTextureWrap
                0x0000000000018fe0      0x27c /opt/ps3dev/portlibs/ppu/lib/libtiny3d.a(tiny3d.o)
                0x0000000000018fe0                .tiny3d_SetTextureWrap
 *fill*         0x000000000001925c        0x4 60000000
 .text.tiny3d_SetTexture
                0x0000000000019260      0x1a0 /opt/ps3dev/portlibs/ppu/lib/libtiny3d.a(tiny3d.o)
                0x0000000000019260                .tiny3d_SetTexture
 .text.tiny3d_AllocTexture
                0x0000000000019400       0x38 /opt/ps3dev/portlibs/ppu/lib/libtiny3d.a(tiny3d.o)
                0x0000000000019400                .tiny3d_AllocTexture
 .text.tiny3d_TextureOffset
                0x0000000000019438       0x40 /opt/ps3dev/portlibs/ppu/lib/libtiny3d.a(tiny3d.o)
                0x0000000000019438                .tiny3d_TextureOffset
 .text.tiny3d_EmissiveMaterial
                0x0000000000019478       0xf4 /opt/ps3dev/portlibs/ppu/lib/libtiny3d.a(tiny3d.o)
                0x0000000000019478                .tiny3d_EmissiveMaterial
 *fill*         0x000000000001956c        0x4 60000000
 .text.tiny3d_AmbientMaterial
                0x0000000000019570       0xf4 /opt/ps3dev/portlibs/ppu/lib/libtiny3d.a(tiny3d.o)
                0x0000000000019570                .tiny3d_AmbientMaterial
 *fill*         0x0000000000019664        0x4 60000000
 .text.tiny3d_DiffuseMaterial
                0x0000000000019668       0xf4 /opt/ps3dev/portlibs/ppu/lib/libtiny3d.a(tiny3d.o)
                0x0000000000019668                .tiny3d_DiffuseMaterial
 *fill*         0x000000000001975c        0x4 60000000
 .text.tiny3d_SpecularMaterial
                0x0000000000019760       0xf4 /opt/ps3dev/portlibs/ppu/lib/libtiny3d.a(tiny3d.o)
                0x0000000000019760                .tiny3d_SpecularMaterial
 *fill*         0x0000000000019854        0x4 60000000
 .text.tiny3d_SetLightCameraPosition
                0x0000000000019858       0x38 /opt/ps3dev/portlibs/ppu/lib/libtiny3d.a(tiny3d.o)
                0x0000000000019858                .tiny3d_SetLightCameraPosition
 .text.tiny3d_SetLight
                0x0000000000019890       0x90 /opt/ps3dev/portlibs/ppu/lib/libtiny3d.a(tiny3d.o)
                0x0000000000019890                .tiny3d_SetLight
 .text.tiny3d_SetLightsOff
                0x0000000000019920       0x38 /opt/ps3dev/portlibs/ppu/lib/libtiny3d.a(tiny3d.o)
                0x0000000000019920                .tiny3d_SetLightsOff
 .text.tiny3d_SetAmbientLight
                0x0000000000019958       0x38 /opt/ps3dev/portlibs/ppu/lib/libtiny3d.a(tiny3d.o)
                0x0000000000019958                .tiny3d_SetAmbientLight
 .text.tiny3d_SelMultiTexturesMethod
                0x0000000000019990       0xac /opt/ps3dev/portlibs/ppu/lib/libtiny3d.a(tiny3d.o)
                0x0000000000019990                .tiny3d_SelMultiTexturesMethod
 *fill*         0x0000000000019a3c        0x4 60000000
 .text.tiny3d_DrawList
                0x0000000000019a40      0x654 /opt/ps3dev/portlibs/ppu/lib/libtiny3d.a(tiny3d.o)
                0x0000000000019a40                .tiny3d_DrawList
 *fill*         0x000000000001a094        0x4 60000000
 .text.tiny3d_MenuActive
                0x000000000001a098       0x1c /opt/ps3dev/portlibs/ppu/lib/libtiny3d.a(tiny3d.o)
                0x000000000001a098                .tiny3d_MenuActive
 *fill*         0x000000000001a0b4        0x4 60000000
 .text.tiny3d_Enable_YUV
                0x000000000001a0b8       0x2c /opt/ps3dev/portlibs/ppu/lib/libtiny3d.a(tiny3d.o)
                0x000000000001a0b8                .tiny3d_Enable_YUV
 *fill*         0x000000000001a0e4        0x4 60000000
 .text.tiny3d_Disable_YUV
                0x000000000001a0e8       0x28 /opt/ps3dev/portlibs/ppu/lib/libtiny3d.a(tiny3d.o)
                0x000000000001a0e8                .tiny3d_Disable_YUV
 .text.tiny3d_Dirty_Status
                0x000000000001a110       0x78 /opt/ps3dev/portlibs/ppu/lib/libtiny3d.a(tiny3d.o)
                0x000000000001a110                .tiny3d_Dirty_Status
 .text.tiny3d_Get_GCM_Context
                0x000000000001a188       0x18 /opt/ps3dev/portlibs/ppu/lib/libtiny3d.a(tiny3d.o)
                0x000000000001a188                .tiny3d_Get_GCM_Context
 .text.tiny3d_DoCmd_Space
                0x000000000001a1a0       0x68 /opt/ps3dev/portlibs/ppu/lib/libtiny3d.a(tiny3d.o)
                0x000000000001a1a0                .tiny3d_DoCmd_Space
 .text          0x000000000001a208        0x0 /opt/ps3dev/portlibs/ppu/lib/libtiny3d.a(vshader_text_normal.vcg.o)
 .text          0x000000000001a208        0x0 /opt/ps3dev/portlibs/ppu/lib/libtiny3d.a(commands.o)
 .text.rsxtiny_MakeCmdSpace
                0x000000000001a208       0xec /opt/ps3dev/portlibs/ppu/lib/libtiny3d.a(commands.o)
                0x000000000001a208                .rsxtiny_MakeCmdSpace
 *fill*         0x000000000001a2f4        0x4 60000000
 .text.rsxtiny_SetReferenceCommand
                0x000000000001a2f8      0x10c /opt/ps3dev/portlibs/ppu/lib/libtiny3d.a(commands.o)
                0x000000000001a2f8                .rsxtiny_SetReferenceCommand
 *fill*         0x000000000001a404        0x4 60000000
 .text.rsxtiny_SetWriteBackendLabel
                0x000000000001a408      0x14c /opt/ps3dev/portlibs/ppu/lib/libtiny3d.a(commands.o)
                0x000000000001a408                .rsxtiny_SetWriteBackendLabel
 *fill*         0x000000000001a554        0x4 60000000
 .text.rsxtiny_SetWaitLabel
                0x000000000001a558      0x12c /opt/ps3dev/portlibs/ppu/lib/libtiny3d.a(commands.o)
                0x000000000001a558                .rsxtiny_SetWaitLabel
 *fill*         0x000000000001a684        0x4 60000000
 .text.rsxtiny_SetScissor
                0x000000000001a688      0x14c /opt/ps3dev/portlibs/ppu/lib/libtiny3d.a(commands.o)
                0x000000000001a688                .rsxtiny_SetScissor
 *fill*         0x000000000001a7d4        0x4 60000000
 .text.rsxtiny_SetClearColor
                0x000000000001a7d8      0x10c /opt/ps3dev/portlibs/ppu/lib/libtiny3d.a(commands.o)
                0x000000000001a7d8                .rsxtiny_SetClearColor
 *fill*         0x000000000001a8e4        0x4 60000000
 .text.rsxtiny_SetClearDepthValue
                0x000000000001a8e8      0x10c /opt/ps3dev/portlibs/ppu/lib/libtiny3d.a(commands.o)
                0x000000000001a8e8                .rsxtiny_SetClearDepthValue
 *fill*         0x000000000001a9f4        0x4 60000000
 .text.rsxtiny_Nop
                0x000000000001a9f8       0xfc /opt/ps3dev/portlibs/ppu/lib/libtiny3d.a(commands.o)
                0x000000000001a9f8                .rsxtiny_Nop
 *fill*         0x000000000001aaf4        0x4 60000000
 .text.rsxtiny_ClearBuffers
                0x000000000001aaf8      0x124 /opt/ps3dev/portlibs/ppu/lib/libtiny3d.a(commands.o)
                0x000000000001aaf8                .rsxtiny_ClearBuffers
 *fill*         0x000000000001ac1c        0x4 60000000
 .text.rsxtiny_SetRenderSurface
                0x000000000001ac20      0x16c /opt/ps3dev/portlibs/ppu/lib/libtiny3d.a(commands.o)
                0x000000000001ac20                .rsxtiny_SetRenderSurface
 *fill*         0x000000000001ad8c        0x4 60000000
 .text.rsxtiny_SelectRenderTarget
                0x000000000001ad90      0x1e4 /opt/ps3dev/portlibs/ppu/lib/libtiny3d.a(commands.o)
                0x000000000001ad90                .rsxtiny_SelectRenderTarget
 *fill*         0x000000000001af74        0x4 60000000
 .text.rsxtiny_Viewport
                0x000000000001af78      0x124 /opt/ps3dev/portlibs/ppu/lib/libtiny3d.a(commands.o)
                0x000000000001af78                .rsxtiny_Viewport
 *fill*         0x000000000001b09c        0x4 60000000
 .text.rsxtiny_ViewportClip
                0x000000000001b0a0      0x144 /opt/ps3dev/portlibs/ppu/lib/libtiny3d.a(commands.o)
                0x000000000001b0a0                .rsxtiny_ViewportClip
 *fill*         0x000000000001b1e4        0x4 60000000
 .text.rsxtiny_VertexBegin
                0x000000000001b1e8      0x10c /opt/ps3dev/portlibs/ppu/lib/libtiny3d.a(commands.o)
                0x000000000001b1e8                .rsxtiny_VertexBegin
 *fill*         0x000000000001b2f4        0x4 60000000
 .text.rsxtiny_VertexEnd
                0x000000000001b2f8       0xfc /opt/ps3dev/portlibs/ppu/lib/libtiny3d.a(commands.o)
                0x000000000001b2f8                .rsxtiny_VertexEnd
 *fill*         0x000000000001b3f4        0x4 60000000
 .text.rsxtiny_Vertex4f
                0x000000000001b3f8      0x124 /opt/ps3dev/portlibs/ppu/lib/libtiny3d.a(commands.o)
                0x000000000001b3f8                .rsxtiny_Vertex4f
 *fill*         0x000000000001b51c        0x4 60000000
 .text.rsxtiny_TexCoord2f
                0x000000000001b520      0x10c /opt/ps3dev/portlibs/ppu/lib/libtiny3d.a(commands.o)
                0x000000000001b520                .rsxtiny_TexCoord2f
 *fill*         0x000000000001b62c        0x4 60000000
 .text.rsxtiny_SetVertexProgramConstant4f
                0x000000000001b630      0x13c /opt/ps3dev/portlibs/ppu/lib/libtiny3d.a(commands.o)
                0x000000000001b630                .rsxtiny_SetVertexProgramConstant4f
 *fill*         0x000000000001b76c        0x4 60000000
 .text.rsxtiny_LoadVertexProgram
                0x000000000001b770      0x2b8 /opt/ps3dev/portlibs/ppu/lib/libtiny3d.a(commands.o)
                0x000000000001b770                .rsxtiny_LoadVertexProgram
 .text.rsxtiny_SetVertexProgramConstant4fBlock
                0x000000000001ba28      0x160 /opt/ps3dev/portlibs/ppu/lib/libtiny3d.a(commands.o)
                0x000000000001ba28                .rsxtiny_SetVertexProgramConstant4fBlock
 .text.rsxtiny_InstallFragmentProgram
                0x000000000001bb88       0x70 /opt/ps3dev/portlibs/ppu/lib/libtiny3d.a(commands.o)
                0x000000000001bb88                .rsxtiny_InstallFragmentProgram
 .text.rsxtiny_LoadFragmentProgram
                0x000000000001bbf8      0x134 /opt/ps3dev/portlibs/ppu/lib/libtiny3d.a(commands.o)
                0x000000000001bbf8                .rsxtiny_LoadFragmentProgram
 *fill*         0x000000000001bd2c        0x4 60000000
 .text.rsxtiny_InvalidateTextureCache
                0x000000000001bd30      0x10c /opt/ps3dev/portlibs/ppu/lib/libtiny3d.a(commands.o)
                0x000000000001bd30                .rsxtiny_InvalidateTextureCache
 *fill*         0x000000000001be3c        0x4 60000000
 .text.rsxtiny_SetTexture
                0x000000000001be40      0x18c /opt/ps3dev/portlibs/ppu/lib/libtiny3d.a(commands.o)
                0x000000000001be40                .rsxtiny_SetTexture
 *fill*         0x000000000001bfcc        0x4 60000000
 .text.rsxtiny_ViewportTranslate
                0x000000000001bfd0      0x124 /opt/ps3dev/portlibs/ppu/lib/libtiny3d.a(commands.o)
                0x000000000001bfd0                .rsxtiny_ViewportTranslate
 *fill*         0x000000000001c0f4        0x4 60000000
 .text.rsxtiny_ViewportScale
                0x000000000001c0f8      0x124 /opt/ps3dev/portlibs/ppu/lib/libtiny3d.a(commands.o)
                0x000000000001c0f8                .rsxtiny_ViewportScale
 *fill*         0x000000000001c21c        0x4 60000000
 .text.rsxtiny_CullFace
                0x000000000001c220      0x10c /opt/ps3dev/portlibs/ppu/lib/libtiny3d.a(commands.o)
                0x000000000001c220                .rsxtiny_CullFace
 *fill*         0x000000000001c32c        0x4 60000000
 .text.rsxtiny_FrontFace
                0x000000000001c330      0x10c /opt/ps3dev/portlibs/ppu/lib/libtiny3d.a(commands.o)
                0x000000000001c330                .rsxtiny_FrontFace
 *fill*         0x000000000001c43c        0x4 60000000
 .text.rsxtiny_CullEnable
                0x000000000001c440      0x10c /opt/ps3dev/portlibs/ppu/lib/libtiny3d.a(commands.o)
                0x000000000001c440                .rsxtiny_CullEnable
 *fill*         0x000000000001c54c        0x4 60000000
 .text.rsxtiny_AlphaEnable
                0x000000000001c550      0x10c /opt/ps3dev/portlibs/ppu/lib/libtiny3d.a(commands.o)
                0x000000000001c550                .rsxtiny_AlphaEnable
 *fill*         0x000000000001c65c        0x4 60000000
 .text.rsxtiny_AlphaRef
                0x000000000001c660      0x10c /opt/ps3dev/portlibs/ppu/lib/libtiny3d.a(commands.o)
                0x000000000001c660                .rsxtiny_AlphaRef
 *fill*         0x000000000001c76c        0x4 60000000
 .text.rsxtiny_AlphaFunc
                0x000000000001c770      0x10c /opt/ps3dev/portlibs/ppu/lib/libtiny3d.a(commands.o)
                0x000000000001c770                .rsxtiny_AlphaFunc
 *fill*         0x000000000001c87c        0x4 60000000
 .text.rsxtiny_BlendEnable
                0x000000000001c880      0x10c /opt/ps3dev/portlibs/ppu/lib/libtiny3d.a(commands.o)
                0x000000000001c880                .rsxtiny_BlendEnable
 *fill*         0x000000000001c98c        0x4 60000000
 .text.rsxtiny_BlendEquation
                0x000000000001c990      0x10c /opt/ps3dev/portlibs/ppu/lib/libtiny3d.a(commands.o)
                0x000000000001c990                .rsxtiny_BlendEquation
 *fill*         0x000000000001ca9c        0x4 60000000
 .text.rsxtiny_BlendFunc
                0x000000000001caa0      0x11c /opt/ps3dev/portlibs/ppu/lib/libtiny3d.a(commands.o)
                0x000000000001caa0                .rsxtiny_BlendFunc
 *fill*         0x000000000001cbbc        0x4 60000000
 .text.rsxtiny_ZControl
                0x000000000001cbc0      0x13c /opt/ps3dev/portlibs/ppu/lib/libtiny3d.a(commands.o)
                0x000000000001cbc0                .rsxtiny_ZControl
 *fill*         0x000000000001ccfc        0x4 60000000
 .text.rsxtiny_BindVertexBufferAttribute
                0x000000000001cd00      0x18c /opt/ps3dev/portlibs/ppu/lib/libtiny3d.a(commands.o)
                0x000000000001cd00                .rsxtiny_BindVertexBufferAttribute
 *fill*         0x000000000001ce8c        0x4 60000000
 .text.rsxtiny_VertexInvalidate
                0x000000000001ce90      0x104 /opt/ps3dev/portlibs/ppu/lib/libtiny3d.a(commands.o)
                0x000000000001ce90                .rsxtiny_VertexInvalidate
 *fill*         0x000000000001cf94        0x4 60000000
 .text.rsxtiny_DrawVertexBuffer
                0x000000000001cf98      0x2e0 /opt/ps3dev/portlibs/ppu/lib/libtiny3d.a(commands.o)
                0x000000000001cf98                .rsxtiny_DrawVertexBuffer
 .text.rsxtiny_DrawVertexBufferIndex
                0x000000000001d278      0x320 /opt/ps3dev/portlibs/ppu/lib/libtiny3d.a(commands.o)
                0x000000000001d278                .rsxtiny_DrawVertexBufferIndex
 .text.rsxtiny_DepthTestEnable
                0x000000000001d598      0x10c /opt/ps3dev/portlibs/ppu/lib/libtiny3d.a(commands.o)
                0x000000000001d598                .rsxtiny_DepthTestEnable
 *fill*         0x000000000001d6a4        0x4 60000000
 .text.rsxtiny_DepthTestFunc
                0x000000000001d6a8      0x10c /opt/ps3dev/portlibs/ppu/lib/libtiny3d.a(commands.o)
                0x000000000001d6a8                .rsxtiny_DepthTestFunc
 *fill*         0x000000000001d7b4        0x4 60000000
 .text.rsxtiny_DepthWriteEnable
                0x000000000001d7b8      0x10c /opt/ps3dev/portlibs/ppu/lib/libtiny3d.a(commands.o)
                0x000000000001d7b8                .rsxtiny_DepthWriteEnable
 .text          0x000000000001d8c4        0x0 /opt/ps3dev/portlibs/ppu/lib/libtiny3d.a(glue.o)
 *fill*         0x000000000001d8c4        0x4 60000000
 .text.rsxtiny_FlushBuffer
                0x000000000001d8c8       0x78 /opt/ps3dev/portlibs/ppu/lib/libtiny3d.a(glue.o)
                0x000000000001d8c8                .rsxtiny_FlushBuffer
 .text.rsxtiny_Init
                0x000000000001d940       0x68 /opt/ps3dev/portlibs/ppu/lib/libtiny3d.a(glue.o)
                0x000000000001d940                .rsxtiny_Init
 .text.rsxtiny_AddressToOffset
                0x000000000001d9a8       0x30 /opt/ps3dev/portlibs/ppu/lib/libtiny3d.a(glue.o)
                0x000000000001d9a8                .rsxtiny_AddressToOffset
 .text          0x000000000001d9d8        0x0 /opt/ps3dev/portlibs/ppu/lib/libtiny3d.a(mm.o)
 .text.rsxtiny_MemAlign
                0x000000000001d9d8      0x128 /opt/ps3dev/portlibs/ppu/lib/libtiny3d.a(mm.o)
                0x000000000001d9d8                .rsxtiny_MemAlign
 .text.rsxtiny_Mem
                0x000000000001db00       0x18 /opt/ps3dev/portlibs/ppu/lib/libtiny3d.a(mm.o)
                0x000000000001db00                .rsxtiny_Mem
 .text          0x000000000001db18        0x0 /opt/ps3dev/portlibs/ppu/lib/libtiny3d.a(realityVP.o)
 .text.rsxtiny_VertexProgramGetUCode
                0x000000000001db18       0x18 /opt/ps3dev/portlibs/ppu/lib/libtiny3d.a(realityVP.o)
                0x000000000001db18                .rsxtiny_VertexProgramGetUCode
 .text.rsxtiny_VertexProgramGetInputMask
                0x000000000001db30       0x14 /opt/ps3dev/portlibs/ppu/lib/libtiny3d.a(realityVP.o)
                0x000000000001db30                .rsxtiny_VertexProgramGetInputMask
 *fill*         0x000000000001db44        0x4 60000000
 .text.rsxtiny_VertexProgramGetOutputMask
                0x000000000001db48       0x14 /opt/ps3dev/portlibs/ppu/lib/libtiny3d.a(realityVP.o)
                0x000000000001db48                .rsxtiny_VertexProgramGetOutputMask
 *fill*         0x000000000001db5c        0x4 60000000
 .text.rsxtiny_VertexProgramGetAttributes
                0x000000000001db60       0x18 /opt/ps3dev/portlibs/ppu/lib/libtiny3d.a(realityVP.o)
                0x000000000001db60                .rsxtiny_VertexProgramGetAttributes
 .text.rsxtiny_VertexProgramGetInputAttribute
                0x000000000001db78       0xe8 /opt/ps3dev/portlibs/ppu/lib/libtiny3d.a(realityVP.o)
                0x000000000001db78                .rsxtiny_VertexProgramGetInputAttribute
 .text.rsxtiny_VertexProgramGetConstants
                0x000000000001dc60       0x18 /opt/ps3dev/portlibs/ppu/lib/libtiny3d.a(realityVP.o)
                0x000000000001dc60                .rsxtiny_VertexProgramGetConstants
 .text.rsxtiny_VertexProgramGetConstant
                0x000000000001dc78       0xe8 /opt/ps3dev/portlibs/ppu/lib/libtiny3d.a(realityVP.o)
                0x000000000001dc78                .rsxtiny_VertexProgramGetConstant
 .text          0x000000000001dd60        0x0 /opt/ps3dev/portlibs/ppu/lib/libtiny3d.a(rsxutil.o)
 .text.waitFlip
                0x000000000001dd60       0xcc /opt/ps3dev/portlibs/ppu/lib/libtiny3d.a(rsxutil.o)
                0x000000000001dd60                .waitFlip
 *fill*         0x000000000001de2c        0x4 60000000
 .text.flip     0x000000000001de30       0x5c /opt/ps3dev/portlibs/ppu/lib/libtiny3d.a(rsxutil.o)
                0x000000000001de30                .flip
 *fill*         0x000000000001de8c        0x4 60000000
 .text.init_screen
                0x000000000001de90      0x360 /opt/ps3dev/portlibs/ppu/lib/libtiny3d.a(rsxutil.o)
                0x000000000001de90                .init_screen
 .text.setupRenderTarget
                0x000000000001e1f0      0x108 /opt/ps3dev/portlibs/ppu/lib/libtiny3d.a(rsxutil.o)
                0x000000000001e1f0                .setupRenderTarget
 .text.setupRenderTarget2
                0x000000000001e2f8      0x13c /opt/ps3dev/portlibs/ppu/lib/libtiny3d.a(rsxutil.o)
                0x000000000001e2f8                .setupRenderTarget2
 .text          0x000000000001e434        0x0 /opt/ps3dev/portlibs/ppu/lib/libtiny3d.a(buffer.o)
 *fill*         0x000000000001e434        0x4 60000000
 .text.tiny_rsxContextCallback
                0x000000000001e438       0x50 /opt/ps3dev/portlibs/ppu/lib/libtiny3d.a(buffer.o)
                0x000000000001e438                .tiny_rsxContextCallback
 .text.commandBufferPut
                0x000000000001e488       0x20 /opt/ps3dev/portlibs/ppu/lib/libtiny3d.a(buffer.o)
                0x000000000001e488                .commandBufferPut
 .text          0x000000000001e4a8        0x0 /opt/ps3dev/ppu/lib/gcc/powerpc64-ps3-elf/4.7.0/../../../../powerpc64-ps3-elf/lib/libc.a(lib_a-atexit.o)
 .text.atexit   0x000000000001e4a8       0x40 /opt/ps3dev/ppu/lib/gcc/powerpc64-ps3-elf/4.7.0/../../../../powerpc64-ps3-elf/lib/libc.a(lib_a-atexit.o)
                0x000000000001e4a8                .atexit
 .text          0x000000000001e4e8        0x0 /opt/ps3dev/ppu/lib/gcc/powerpc64-ps3-elf/4.7.0/../../../../powerpc64-ps3-elf/lib/libc.a(lib_a-exit.o)
 .text.exit     0x000000000001e4e8       0x68 /opt/ps3dev/ppu/lib/gcc/powerpc64-ps3-elf/4.7.0/../../../../powerpc64-ps3-elf/lib/libc.a(lib_a-exit.o)
                0x000000000001e4e8                .exit
 .text          0x000000000001e550        0x0 /opt/ps3dev/ppu/lib/gcc/powerpc64-ps3-elf/4.7.0/../../../../powerpc64-ps3-elf/lib/libc.a(lib_a-impure.o)
 .text          0x000000000001e550        0x0 /opt/ps3dev/ppu/lib/gcc/powerpc64-ps3-elf/4.7.0/../../../../powerpc64-ps3-elf/lib/libc.a(lib_a-malign.o)
 .text.memalign
                0x000000000001e550       0x58 /opt/ps3dev/ppu/lib/gcc/powerpc64-ps3-elf/4.7.0/../../../../powerpc64-ps3-elf/lib/libc.a(lib_a-malign.o)
                0x000000000001e550                .memalign
 .text          0x000000000001e5a8        0x0 /opt/ps3dev/ppu/lib/gcc/powerpc64-ps3-elf/4.7.0/../../../../powerpc64-ps3-elf/lib/libc.a(lib_a-malignr.o)
 .text._memalign_r
                0x000000000001e5a8      0x214 /opt/ps3dev/ppu/lib/gcc/powerpc64-ps3-elf/4.7.0/../../../../powerpc64-ps3-elf/lib/libc.a(lib_a-malignr.o)
                0x000000000001e5a8                ._memalign_r
 .text          0x000000000001e7bc        0x0 /opt/ps3dev/ppu/lib/gcc/powerpc64-ps3-elf/4.7.0/../../../../powerpc64-ps3-elf/lib/libc.a(lib_a-malloc.o)
 *fill*         0x000000000001e7bc        0x4 60000000
 .text.malloc   0x000000000001e7c0       0x48 /opt/ps3dev/ppu/lib/gcc/powerpc64-ps3-elf/4.7.0/../../../../powerpc64-ps3-elf/lib/libc.a(lib_a-malloc.o)
                0x000000000001e7c0                .malloc
 .text.free     0x000000000001e808       0x48 /opt/ps3dev/ppu/lib/gcc/powerpc64-ps3-elf/4.7.0/../../../../powerpc64-ps3-elf/lib/libc.a(lib_a-malloc.o)
                0x000000000001e808                .free
 .text          0x000000000001e850        0x0 /opt/ps3dev/ppu/lib/gcc/powerpc64-ps3-elf/4.7.0/../../../../powerpc64-ps3-elf/lib/libc.a(lib_a-mallocr.o)
 .text._malloc_r
                0x000000000001e850      0xa10 /opt/ps3dev/ppu/lib/gcc/powerpc64-ps3-elf/4.7.0/../../../../powerpc64-ps3-elf/lib/libc.a(lib_a-mallocr.o)
                0x000000000001e850                ._malloc_r
 .text          0x000000000001f260        0x0 /opt/ps3dev/ppu/lib/gcc/powerpc64-ps3-elf/4.7.0/../../../../powerpc64-ps3-elf/lib/libc.a(lib_a-memcpy.o)
 .text.memcpy   0x000000000001f260      0x108 /opt/ps3dev/ppu/lib/gcc/powerpc64-ps3-elf/4.7.0/../../../../powerpc64-ps3-elf/lib/libc.a(lib_a-memcpy.o)
                0x000000000001f260                .memcpy
 .text          0x000000000001f368        0x0 /opt/ps3dev/ppu/lib/gcc/powerpc64-ps3-elf/4.7.0/../../../../powerpc64-ps3-elf/lib/libc.a(lib_a-memset.o)
 .text.memset   0x000000000001f368      0x148 /opt/ps3dev/ppu/lib/gcc/powerpc64-ps3-elf/4.7.0/../../../../powerpc64-ps3-elf/lib/libc.a(lib_a-memset.o)
                0x000000000001f368                .memset
 .text          0x000000000001f4b0        0x0 /opt/ps3dev/ppu/lib/gcc/powerpc64-ps3-elf/4.7.0/../../../../powerpc64-ps3-elf/lib/libc.a(lib_a-mlock.o)
 .text.__malloc_lock
                0x000000000001f4b0       0x34 /opt/ps3dev/ppu/lib/gcc/powerpc64-ps3-elf/4.7.0/../../../../powerpc64-ps3-elf/lib/libc.a(lib_a-mlock.o)
                0x000000000001f4b0                .__malloc_lock
 *fill*         0x000000000001f4e4        0x4 60000000
 .text.__malloc_unlock
                0x000000000001f4e8       0x34 /opt/ps3dev/ppu/lib/gcc/powerpc64-ps3-elf/4.7.0/../../../../powerpc64-ps3-elf/lib/libc.a(lib_a-mlock.o)
                0x000000000001f4e8                .__malloc_unlock
 .text          0x000000000001f51c        0x0 /opt/ps3dev/ppu/lib/gcc/powerpc64-ps3-elf/4.7.0/../../../../powerpc64-ps3-elf/lib/libc.a(lib_a-rand.o)
 *fill*         0x000000000001f51c        0x4 60000000
 .text.srand    0x000000000001f520       0x40 /opt/ps3dev/ppu/lib/gcc/powerpc64-ps3-elf/4.7.0/../../../../powerpc64-ps3-elf/lib/libc.a(lib_a-rand.o)
                0x000000000001f520                .srand
 .text.rand     0x000000000001f560       0x78 /opt/ps3dev/ppu/lib/gcc/powerpc64-ps3-elf/4.7.0/../../../../powerpc64-ps3-elf/lib/libc.a(lib_a-rand.o)
                0x000000000001f560                .rand
 .text          0x000000000001f5d8        0x0 /opt/ps3dev/ppu/lib/gcc/powerpc64-ps3-elf/4.7.0/../../../../powerpc64-ps3-elf/lib/libc.a(lib_a-strcasecmp.o)
 .text.strcasecmp
                0x000000000001f5d8       0xb8 /opt/ps3dev/ppu/lib/gcc/powerpc64-ps3-elf/4.7.0/../../../../powerpc64-ps3-elf/lib/libc.a(lib_a-strcasecmp.o)
                0x000000000001f5d8                .strcasecmp
 .text          0x000000000001f690        0x0 /opt/ps3dev/ppu/lib/gcc/powerpc64-ps3-elf/4.7.0/../../../../powerpc64-ps3-elf/lib/libc.a(lib_a-vsprintf.o)
 .text._vsprintf_r
                0x000000000001f690       0x6c /opt/ps3dev/ppu/lib/gcc/powerpc64-ps3-elf/4.7.0/../../../../powerpc64-ps3-elf/lib/libc.a(lib_a-vsprintf.o)
                0x000000000001f690                ._vsprintf_r
 *fill*         0x000000000001f6fc        0x4 60000000
 .text.vsprintf
                0x000000000001f700       0x60 /opt/ps3dev/ppu/lib/gcc/powerpc64-ps3-elf/4.7.0/../../../../powerpc64-ps3-elf/lib/libc.a(lib_a-vsprintf.o)
                0x000000000001f700                .vsprintf
 .text          0x000000000001f760        0x0 /opt/ps3dev/ppu/lib/gcc/powerpc64-ps3-elf/4.7.0/../../../../powerpc64-ps3-elf/lib/libc.a(lib_a-__atexit.o)
 .text.__register_exitproc
                0x000000000001f760      0x1b8 /opt/ps3dev/ppu/lib/gcc/powerpc64-ps3-elf/4.7.0/../../../../powerpc64-ps3-elf/lib/libc.a(lib_a-__atexit.o)
                0x000000000001f760                .__register_exitproc
 .text          0x000000000001f918        0x0 /opt/ps3dev/ppu/lib/gcc/powerpc64-ps3-elf/4.7.0/../../../../powerpc64-ps3-elf/lib/libc.a(lib_a-__call_atexit.o)
 .text.__call_exitprocs
                0x000000000001f918      0x24c /opt/ps3dev/ppu/lib/gcc/powerpc64-ps3-elf/4.7.0/../../../../powerpc64-ps3-elf/lib/libc.a(lib_a-__call_atexit.o)
                0x000000000001f918                .__call_exitprocs
 .text          0x000000000001fb64        0x0 /opt/ps3dev/ppu/lib/gcc/powerpc64-ps3-elf/4.7.0/../../../../powerpc64-ps3-elf/lib/libc.a(lib_a-ctype_.o)
 .text          0x000000000001fb64        0x0 /opt/ps3dev/ppu/lib/gcc/powerpc64-ps3-elf/4.7.0/../../../../powerpc64-ps3-elf/lib/libc.a(lib_a-freer.o)
 *fill*         0x000000000001fb64        0x4 60000000
 .text._malloc_trim_r
                0x000000000001fb68      0x15c /opt/ps3dev/ppu/lib/gcc/powerpc64-ps3-elf/4.7.0/../../../../powerpc64-ps3-elf/lib/libc.a(lib_a-freer.o)
                0x000000000001fb68                ._malloc_trim_r
 *fill*         0x000000000001fcc4        0x4 60000000
 .text._free_r  0x000000000001fcc8      0x348 /opt/ps3dev/ppu/lib/gcc/powerpc64-ps3-elf/4.7.0/../../../../powerpc64-ps3-elf/lib/libc.a(lib_a-freer.o)
                0x000000000001fcc8                ._free_r
 .text          0x0000000000020010        0x0 /opt/ps3dev/ppu/lib/gcc/powerpc64-ps3-elf/4.7.0/../../../../powerpc64-ps3-elf/lib/libc.a(lib_a-getreent.o)
 .text.__getreent
                0x0000000000020010      0x1f0 /opt/ps3dev/ppu/lib/gcc/powerpc64-ps3-elf/4.7.0/../../../../powerpc64-ps3-elf/lib/libc.a(lib_a-getreent.o)
                0x0000000000020010                .__getreent
 .text          0x0000000000020200        0x0 /opt/ps3dev/ppu/lib/gcc/powerpc64-ps3-elf/4.7.0/../../../../powerpc64-ps3-elf/lib/libc.a(lib_a-lock_recursive.o)
 .text.__libc_lock_init_recursive
                0x0000000000020200       0x34 /opt/ps3dev/ppu/lib/gcc/powerpc64-ps3-elf/4.7.0/../../../../powerpc64-ps3-elf/lib/libc.a(lib_a-lock_recursive.o)
                0x0000000000020200                .__libc_lock_init_recursive
 *fill*         0x0000000000020234        0x4 60000000
 .text.__libc_lock_close_recursive
                0x0000000000020238       0x30 /opt/ps3dev/ppu/lib/gcc/powerpc64-ps3-elf/4.7.0/../../../../powerpc64-ps3-elf/lib/libc.a(lib_a-lock_recursive.o)
                0x0000000000020238                .__libc_lock_close_recursive
 .text.__libc_lock_acquire_recursive
                0x0000000000020268       0x58 /opt/ps3dev/ppu/lib/gcc/powerpc64-ps3-elf/4.7.0/../../../../powerpc64-ps3-elf/lib/libc.a(lib_a-lock_recursive.o)
                0x0000000000020268                .__libc_lock_acquire_recursive
 .text.__libc_lock_try_acquire_recursive
                0x00000000000202c0       0x54 /opt/ps3dev/ppu/lib/gcc/powerpc64-ps3-elf/4.7.0/../../../../powerpc64-ps3-elf/lib/libc.a(lib_a-lock_recursive.o)
                0x00000000000202c0                .__libc_lock_try_acquire_recursive
 *fill*         0x0000000000020314        0x4 60000000
 .text.__libc_lock_release_recursive
                0x0000000000020318       0x54 /opt/ps3dev/ppu/lib/gcc/powerpc64-ps3-elf/4.7.0/../../../../powerpc64-ps3-elf/lib/libc.a(lib_a-lock_recursive.o)
                0x0000000000020318                .__libc_lock_release_recursive
 .text          0x000000000002036c        0x0 /opt/ps3dev/ppu/lib/gcc/powerpc64-ps3-elf/4.7.0/../../../../powerpc64-ps3-elf/lib/libc.a(lib_a-svfprintf.o)
 *fill*         0x000000000002036c        0x4 60000000
 .text._svfprintf_r
                0x0000000000020370     0x1fd4 /opt/ps3dev/ppu/lib/gcc/powerpc64-ps3-elf/4.7.0/../../../../powerpc64-ps3-elf/lib/libc.a(lib_a-svfprintf.o)
                0x0000000000020370                ._svfprintf_r
 .text          0x0000000000022344        0x0 /opt/ps3dev/ppu/lib/gcc/powerpc64-ps3-elf/4.7.0/../../../../powerpc64-ps3-elf/lib/libc.a(lib_a-dtoa.o)
 *fill*         0x0000000000022344        0x4 60000000
 .text.quorem   0x0000000000022348      0x258 /opt/ps3dev/ppu/lib/gcc/powerpc64-ps3-elf/4.7.0/../../../../powerpc64-ps3-elf/lib/libc.a(lib_a-dtoa.o)
 .text._dtoa_r  0x00000000000225a0     0x1350 /opt/ps3dev/ppu/lib/gcc/powerpc64-ps3-elf/4.7.0/../../../../powerpc64-ps3-elf/lib/libc.a(lib_a-dtoa.o)
                0x00000000000225a0                ._dtoa_r
 .text          0x00000000000238f0        0x0 /opt/ps3dev/ppu/lib/gcc/powerpc64-ps3-elf/4.7.0/../../../../powerpc64-ps3-elf/lib/libc.a(lib_a-locale.o)
 .text._setlocale_r
                0x00000000000238f0       0xb4 /opt/ps3dev/ppu/lib/gcc/powerpc64-ps3-elf/4.7.0/../../../../powerpc64-ps3-elf/lib/libc.a(lib_a-locale.o)
                0x00000000000238f0                ._setlocale_r
 *fill*         0x00000000000239a4        0x4 60000000
 .text.__locale_charset
                0x00000000000239a8       0x14 /opt/ps3dev/ppu/lib/gcc/powerpc64-ps3-elf/4.7.0/../../../../powerpc64-ps3-elf/lib/libc.a(lib_a-locale.o)
                0x00000000000239a8                .__locale_charset
 *fill*         0x00000000000239bc        0x4 60000000
 .text.__locale_mb_cur_max
                0x00000000000239c0       0x1c /opt/ps3dev/ppu/lib/gcc/powerpc64-ps3-elf/4.7.0/../../../../powerpc64-ps3-elf/lib/libc.a(lib_a-locale.o)
                0x00000000000239c0                .__locale_mb_cur_max
 *fill*         0x00000000000239dc        0x4 60000000
 .text.__locale_msgcharset
                0x00000000000239e0       0x14 /opt/ps3dev/ppu/lib/gcc/powerpc64-ps3-elf/4.7.0/../../../../powerpc64-ps3-elf/lib/libc.a(lib_a-locale.o)
                0x00000000000239e0                .__locale_msgcharset
 *fill*         0x00000000000239f4        0x4 60000000
 .text.__locale_cjk_lang
                0x00000000000239f8       0x14 /opt/ps3dev/ppu/lib/gcc/powerpc64-ps3-elf/4.7.0/../../../../powerpc64-ps3-elf/lib/libc.a(lib_a-locale.o)
                0x00000000000239f8                .__locale_cjk_lang
 *fill*         0x0000000000023a0c        0x4 60000000
 .text._localeconv_r
                0x0000000000023a10       0x14 /opt/ps3dev/ppu/lib/gcc/powerpc64-ps3-elf/4.7.0/../../../../powerpc64-ps3-elf/lib/libc.a(lib_a-locale.o)
                0x0000000000023a10                ._localeconv_r
 *fill*         0x0000000000023a24        0x4 60000000
 .text.setlocale
                0x0000000000023a28       0x50 /opt/ps3dev/ppu/lib/gcc/powerpc64-ps3-elf/4.7.0/../../../../powerpc64-ps3-elf/lib/libc.a(lib_a-locale.o)
                0x0000000000023a28                .setlocale
 .text.localeconv
                0x0000000000023a78       0x34 /opt/ps3dev/ppu/lib/gcc/powerpc64-ps3-elf/4.7.0/../../../../powerpc64-ps3-elf/lib/libc.a(lib_a-locale.o)
                0x0000000000023a78                .localeconv
 .text          0x0000000000023aac        0x0 /opt/ps3dev/ppu/lib/gcc/powerpc64-ps3-elf/4.7.0/../../../../powerpc64-ps3-elf/lib/libc.a(lib_a-lock_internal.o)
 *fill*         0x0000000000023aac        0x4 60000000
 .text.startup.init_metalock
                0x0000000000023ab0       0x48 /opt/ps3dev/ppu/lib/gcc/powerpc64-ps3-elf/4.7.0/../../../../powerpc64-ps3-elf/lib/libc.a(lib_a-lock_internal.o)
 .text.__libc_auto_lock_allocate
                0x0000000000023af8       0x9c /opt/ps3dev/ppu/lib/gcc/powerpc64-ps3-elf/4.7.0/../../../../powerpc64-ps3-elf/lib/libc.a(lib_a-lock_internal.o)
                0x0000000000023af8                .__libc_auto_lock_allocate
 .text          0x0000000000023b94        0x0 /opt/ps3dev/ppu/lib/gcc/powerpc64-ps3-elf/4.7.0/../../../../powerpc64-ps3-elf/lib/libc.a(lib_a-memchr.o)
 *fill*         0x0000000000023b94        0x4 60000000
 .text.memchr   0x0000000000023b98      0x130 /opt/ps3dev/ppu/lib/gcc/powerpc64-ps3-elf/4.7.0/../../../../powerpc64-ps3-elf/lib/libc.a(lib_a-memchr.o)
                0x0000000000023b98                .memchr
 .text          0x0000000000023cc8        0x0 /opt/ps3dev/ppu/lib/gcc/powerpc64-ps3-elf/4.7.0/../../../../powerpc64-ps3-elf/lib/libc.a(lib_a-mprec.o)
 .text._Balloc  0x0000000000023cc8       0xd8 /opt/ps3dev/ppu/lib/gcc/powerpc64-ps3-elf/4.7.0/../../../../powerpc64-ps3-elf/lib/libc.a(lib_a-mprec.o)
                0x0000000000023cc8                ._Balloc
 .text._Bfree   0x0000000000023da0       0x34 /opt/ps3dev/ppu/lib/gcc/powerpc64-ps3-elf/4.7.0/../../../../powerpc64-ps3-elf/lib/libc.a(lib_a-mprec.o)
                0x0000000000023da0                ._Bfree
 *fill*         0x0000000000023dd4        0x4 60000000
 .text.__multadd
                0x0000000000023dd8      0x16c /opt/ps3dev/ppu/lib/gcc/powerpc64-ps3-elf/4.7.0/../../../../powerpc64-ps3-elf/lib/libc.a(lib_a-mprec.o)
                0x0000000000023dd8                .__multadd
 *fill*         0x0000000000023f44        0x4 60000000
 .text.__s2b    0x0000000000023f48      0x180 /opt/ps3dev/ppu/lib/gcc/powerpc64-ps3-elf/4.7.0/../../../../powerpc64-ps3-elf/lib/libc.a(lib_a-mprec.o)
                0x0000000000023f48                .__s2b
 .text.__hi0bits
                0x00000000000240c8       0x98 /opt/ps3dev/ppu/lib/gcc/powerpc64-ps3-elf/4.7.0/../../../../powerpc64-ps3-elf/lib/libc.a(lib_a-mprec.o)
                0x00000000000240c8                .__hi0bits
 .text.__lo0bits
                0x0000000000024160       0xec /opt/ps3dev/ppu/lib/gcc/powerpc64-ps3-elf/4.7.0/../../../../powerpc64-ps3-elf/lib/libc.a(lib_a-mprec.o)
                0x0000000000024160                .__lo0bits
 *fill*         0x000000000002424c        0x4 60000000
 .text.__i2b    0x0000000000024250       0x48 /opt/ps3dev/ppu/lib/gcc/powerpc64-ps3-elf/4.7.0/../../../../powerpc64-ps3-elf/lib/libc.a(lib_a-mprec.o)
                0x0000000000024250                .__i2b
 .text.__multiply
                0x0000000000024298      0x28c /opt/ps3dev/ppu/lib/gcc/powerpc64-ps3-elf/4.7.0/../../../../powerpc64-ps3-elf/lib/libc.a(lib_a-mprec.o)
                0x0000000000024298                .__multiply
 *fill*         0x0000000000024524        0x4 60000000
 .text.__pow5mult
                0x0000000000024528      0x15c /opt/ps3dev/ppu/lib/gcc/powerpc64-ps3-elf/4.7.0/../../../../powerpc64-ps3-elf/lib/libc.a(lib_a-mprec.o)
                0x0000000000024528                .__pow5mult
 *fill*         0x0000000000024684        0x4 60000000
 .text.__lshift
                0x0000000000024688      0x1c4 /opt/ps3dev/ppu/lib/gcc/powerpc64-ps3-elf/4.7.0/../../../../powerpc64-ps3-elf/lib/libc.a(lib_a-mprec.o)
                0x0000000000024688                .__lshift
 *fill*         0x000000000002484c        0x4 60000000
 .text.__mcmp   0x0000000000024850       0x84 /opt/ps3dev/ppu/lib/gcc/powerpc64-ps3-elf/4.7.0/../../../../powerpc64-ps3-elf/lib/libc.a(lib_a-mprec.o)
                0x0000000000024850                .__mcmp
 *fill*         0x00000000000248d4        0x4 60000000
 .text.__mdiff  0x00000000000248d8      0x1fc /opt/ps3dev/ppu/lib/gcc/powerpc64-ps3-elf/4.7.0/../../../../powerpc64-ps3-elf/lib/libc.a(lib_a-mprec.o)
                0x00000000000248d8                .__mdiff
 *fill*         0x0000000000024ad4        0x4 60000000
 .text.__ulp    0x0000000000024ad8       0xb0 /opt/ps3dev/ppu/lib/gcc/powerpc64-ps3-elf/4.7.0/../../../../powerpc64-ps3-elf/lib/libc.a(lib_a-mprec.o)
                0x0000000000024ad8                .__ulp
 .text.__b2d    0x0000000000024b88      0x1a0 /opt/ps3dev/ppu/lib/gcc/powerpc64-ps3-elf/4.7.0/../../../../powerpc64-ps3-elf/lib/libc.a(lib_a-mprec.o)
                0x0000000000024b88                .__b2d
 .text.__d2b    0x0000000000024d28      0x1a4 /opt/ps3dev/ppu/lib/gcc/powerpc64-ps3-elf/4.7.0/../../../../powerpc64-ps3-elf/lib/libc.a(lib_a-mprec.o)
                0x0000000000024d28                .__d2b
 *fill*         0x0000000000024ecc        0x4 60000000
 .text.__ratio  0x0000000000024ed0       0xf8 /opt/ps3dev/ppu/lib/gcc/powerpc64-ps3-elf/4.7.0/../../../../powerpc64-ps3-elf/lib/libc.a(lib_a-mprec.o)
                0x0000000000024ed0                .__ratio
 .text._mprec_log10
                0x0000000000024fc8       0x54 /opt/ps3dev/ppu/lib/gcc/powerpc64-ps3-elf/4.7.0/../../../../powerpc64-ps3-elf/lib/libc.a(lib_a-mprec.o)
                0x0000000000024fc8                ._mprec_log10
 *fill*         0x000000000002501c        0x4 60000000
 .text.__copybits
                0x0000000000025020       0x98 /opt/ps3dev/ppu/lib/gcc/powerpc64-ps3-elf/4.7.0/../../../../powerpc64-ps3-elf/lib/libc.a(lib_a-mprec.o)
                0x0000000000025020                .__copybits
 .text.__any_on
                0x00000000000250b8       0xcc /opt/ps3dev/ppu/lib/gcc/powerpc64-ps3-elf/4.7.0/../../../../powerpc64-ps3-elf/lib/libc.a(lib_a-mprec.o)
                0x00000000000250b8                .__any_on
 .text          0x0000000000025184        0x0 /opt/ps3dev/ppu/lib/gcc/powerpc64-ps3-elf/4.7.0/../../../../powerpc64-ps3-elf/lib/libc.a(lib_a-s_fpclassify.o)
 *fill*         0x0000000000025184        0x4 60000000
 .text.__fpclassifyd
                0x0000000000025188       0xc0 /opt/ps3dev/ppu/lib/gcc/powerpc64-ps3-elf/4.7.0/../../../../powerpc64-ps3-elf/lib/libc.a(lib_a-s_fpclassify.o)
                0x0000000000025188                .__fpclassifyd
 .text          0x0000000000025248        0x0 /opt/ps3dev/ppu/lib/gcc/powerpc64-ps3-elf/4.7.0/../../../../powerpc64-ps3-elf/lib/libc.a(lib_a-strcmp.o)
 .text.strcmp   0x0000000000025248       0xe4 /opt/ps3dev/ppu/lib/gcc/powerpc64-ps3-elf/4.7.0/../../../../powerpc64-ps3-elf/lib/libc.a(lib_a-strcmp.o)
                0x0000000000025248                .strcmp
 .text          0x000000000002532c        0x0 /opt/ps3dev/ppu/lib/gcc/powerpc64-ps3-elf/4.7.0/../../../../powerpc64-ps3-elf/lib/libc.a(lib_a-strlen.o)
 *fill*         0x000000000002532c        0x4 60000000
 .text.strlen   0x0000000000025330       0xd8 /opt/ps3dev/ppu/lib/gcc/powerpc64-ps3-elf/4.7.0/../../../../powerpc64-ps3-elf/lib/libc.a(lib_a-strlen.o)
                0x0000000000025330                .strlen
 .text          0x0000000000025408        0x0 /opt/ps3dev/ppu/lib/gcc/powerpc64-ps3-elf/4.7.0/../../../../powerpc64-ps3-elf/lib/libc.a(lib_a-svfiprintf.o)
 .text.__ssprint_r
                0x0000000000025408      0x2e8 /opt/ps3dev/ppu/lib/gcc/powerpc64-ps3-elf/4.7.0/../../../../powerpc64-ps3-elf/lib/libc.a(lib_a-svfiprintf.o)
                0x0000000000025408                .__ssprint_r
 .text._svfiprintf_r
                0x00000000000256f0      0xfa4 /opt/ps3dev/ppu/lib/gcc/powerpc64-ps3-elf/4.7.0/../../../../powerpc64-ps3-elf/lib/libc.a(lib_a-svfiprintf.o)
                0x00000000000256f0                ._svfiprintf_r
 .text          0x0000000000026694        0x0 /opt/ps3dev/ppu/lib/gcc/powerpc64-ps3-elf/4.7.0/../../../../powerpc64-ps3-elf/lib/libc.a(lib_a-abort.o)
 *fill*         0x0000000000026694        0x4 60000000
 .text.abort    0x0000000000026698       0x30 /opt/ps3dev/ppu/lib/gcc/powerpc64-ps3-elf/4.7.0/../../../../powerpc64-ps3-elf/lib/libc.a(lib_a-abort.o)
                0x0000000000026698                .abort
 .text          0x00000000000266c8        0x0 /opt/ps3dev/ppu/lib/gcc/powerpc64-ps3-elf/4.7.0/../../../../powerpc64-ps3-elf/lib/libc.a(lib_a-callocr.o)
 .text._calloc_r
                0x00000000000266c8       0xe0 /opt/ps3dev/ppu/lib/gcc/powerpc64-ps3-elf/4.7.0/../../../../powerpc64-ps3-elf/lib/libc.a(lib_a-callocr.o)
                0x00000000000266c8                ._calloc_r
 .text          0x00000000000267a8        0x0 /opt/ps3dev/ppu/lib/gcc/powerpc64-ps3-elf/4.7.0/../../../../powerpc64-ps3-elf/lib/libc.a(lib_a-memmove.o)
 .text.memmove  0x00000000000267a8      0x158 /opt/ps3dev/ppu/lib/gcc/powerpc64-ps3-elf/4.7.0/../../../../powerpc64-ps3-elf/lib/libc.a(lib_a-memmove.o)
                0x00000000000267a8                .memmove
 .text          0x0000000000026900        0x0 /opt/ps3dev/ppu/lib/gcc/powerpc64-ps3-elf/4.7.0/../../../../powerpc64-ps3-elf/lib/libc.a(lib_a-reallocr.o)
 .text._realloc_r
                0x0000000000026900      0x70c /opt/ps3dev/ppu/lib/gcc/powerpc64-ps3-elf/4.7.0/../../../../powerpc64-ps3-elf/lib/libc.a(lib_a-reallocr.o)
                0x0000000000026900                ._realloc_r
 .text          0x000000000002700c        0x0 /opt/ps3dev/ppu/lib/gcc/powerpc64-ps3-elf/4.7.0/../../../../powerpc64-ps3-elf/lib/libc.a(lib_a-signal.o)
 *fill*         0x000000000002700c        0x4 60000000
 .text._init_signal_r
                0x0000000000027010       0x90 /opt/ps3dev/ppu/lib/gcc/powerpc64-ps3-elf/4.7.0/../../../../powerpc64-ps3-elf/lib/libc.a(lib_a-signal.o)
                0x0000000000027010                ._init_signal_r
 .text._signal_r
                0x00000000000270a0       0x9c /opt/ps3dev/ppu/lib/gcc/powerpc64-ps3-elf/4.7.0/../../../../powerpc64-ps3-elf/lib/libc.a(lib_a-signal.o)
                0x00000000000270a0                ._signal_r
 *fill*         0x000000000002713c        0x4 60000000
 .text._raise_r
                0x0000000000027140      0x10c /opt/ps3dev/ppu/lib/gcc/powerpc64-ps3-elf/4.7.0/../../../../powerpc64-ps3-elf/lib/libc.a(lib_a-signal.o)
                0x0000000000027140                ._raise_r
 *fill*         0x000000000002724c        0x4 60000000
 .text.__sigtramp_r
                0x0000000000027250       0xd8 /opt/ps3dev/ppu/lib/gcc/powerpc64-ps3-elf/4.7.0/../../../../powerpc64-ps3-elf/lib/libc.a(lib_a-signal.o)
                0x0000000000027250                .__sigtramp_r
 .text.raise    0x0000000000027328       0x40 /opt/ps3dev/ppu/lib/gcc/powerpc64-ps3-elf/4.7.0/../../../../powerpc64-ps3-elf/lib/libc.a(lib_a-signal.o)
                0x0000000000027328                .raise
 .text.signal   0x0000000000027368       0x50 /opt/ps3dev/ppu/lib/gcc/powerpc64-ps3-elf/4.7.0/../../../../powerpc64-ps3-elf/lib/libc.a(lib_a-signal.o)
                0x0000000000027368                .signal
 .text._init_signal
                0x00000000000273b8       0x30 /opt/ps3dev/ppu/lib/gcc/powerpc64-ps3-elf/4.7.0/../../../../powerpc64-ps3-elf/lib/libc.a(lib_a-signal.o)
                0x00000000000273b8                ._init_signal
 .text.__sigtramp
                0x00000000000273e8       0x40 /opt/ps3dev/ppu/lib/gcc/powerpc64-ps3-elf/4.7.0/../../../../powerpc64-ps3-elf/lib/libc.a(lib_a-signal.o)
                0x00000000000273e8                .__sigtramp
 .text          0x0000000000027428        0x0 /opt/ps3dev/psl1ght/ppu/lib/libgcm_sys.a(sprx.o)
 .text          0x0000000000027428        0x0 /opt/ps3dev/psl1ght/ppu/lib/libsysutil.a(sprx.o)
 .text          0x0000000000027428        0x0 /opt/ps3dev/psl1ght/ppu/lib/libsysutil.a(sysutil_wrapper.o)
 .text.sysUtilRegisterCallback
                0x0000000000027428       0x34 /opt/ps3dev/psl1ght/ppu/lib/libsysutil.a(sysutil_wrapper.o)
                0x0000000000027428                .sysUtilRegisterCallback
 *fill*         0x000000000002745c        0x4 60000000
 .text.msgDialogOpen
                0x0000000000027460       0x34 /opt/ps3dev/psl1ght/ppu/lib/libsysutil.a(sysutil_wrapper.o)
                0x0000000000027460                .msgDialogOpen
 *fill*         0x0000000000027494        0x4 60000000
 .text.msgDialogOpen2
                0x0000000000027498       0x34 /opt/ps3dev/psl1ght/ppu/lib/libsysutil.a(sysutil_wrapper.o)
                0x0000000000027498                .msgDialogOpen2
 *fill*         0x00000000000274cc        0x4 60000000
 .text.msgDialogOpenErrorCode
                0x00000000000274d0       0x34 /opt/ps3dev/psl1ght/ppu/lib/libsysutil.a(sysutil_wrapper.o)
                0x00000000000274d0                .msgDialogOpenErrorCode
 *fill*         0x0000000000027504        0x4 60000000
 .text.sysSaveListLoad2
                0x0000000000027508       0x3c /opt/ps3dev/psl1ght/ppu/lib/libsysutil.a(sysutil_wrapper.o)
                0x0000000000027508                .sysSaveListLoad2
 *fill*         0x0000000000027544        0x4 60000000
 .text.sysSaveListSave2
                0x0000000000027548       0x3c /opt/ps3dev/psl1ght/ppu/lib/libsysutil.a(sysutil_wrapper.o)
                0x0000000000027548                .sysSaveListSave2
 *fill*         0x0000000000027584        0x4 60000000
 .text.sysSaveListAutoLoad
                0x0000000000027588       0x44 /opt/ps3dev/psl1ght/ppu/lib/libsysutil.a(sysutil_wrapper.o)
                0x0000000000027588                .sysSaveListAutoLoad
 *fill*         0x00000000000275cc        0x4 60000000
 .text.sysSaveListAutoSave
                0x00000000000275d0       0x44 /opt/ps3dev/psl1ght/ppu/lib/libsysutil.a(sysutil_wrapper.o)
                0x00000000000275d0                .sysSaveListAutoSave
 *fill*         0x0000000000027614        0x4 60000000
 .text.sysSaveFixedLoad2
                0x0000000000027618       0x3c /opt/ps3dev/psl1ght/ppu/lib/libsysutil.a(sysutil_wrapper.o)
                0x0000000000027618                .sysSaveFixedLoad2
 *fill*         0x0000000000027654        0x4 60000000
 .text.sysSaveFixedSave2
                0x0000000000027658       0x3c /opt/ps3dev/psl1ght/ppu/lib/libsysutil.a(sysutil_wrapper.o)
                0x0000000000027658                .sysSaveFixedSave2
 *fill*         0x0000000000027694        0x4 60000000
 .text.sysSaveAutoLoad2
                0x0000000000027698       0x38 /opt/ps3dev/psl1ght/ppu/lib/libsysutil.a(sysutil_wrapper.o)
                0x0000000000027698                .sysSaveAutoLoad2
 .text.sysSaveAutoSave2
                0x00000000000276d0       0x38 /opt/ps3dev/psl1ght/ppu/lib/libsysutil.a(sysutil_wrapper.o)
                0x00000000000276d0                .sysSaveAutoSave2
 .text.sysGameThemeInstallFromBuffer
                0x0000000000027708       0x34 /opt/ps3dev/psl1ght/ppu/lib/libsysutil.a(sysutil_wrapper.o)
                0x0000000000027708                .sysGameThemeInstallFromBuffer
 *fill*         0x000000000002773c        0x4 60000000
 .text.sysGameDiscRegisterDiscChangeCallback
                0x0000000000027740       0x38 /opt/ps3dev/psl1ght/ppu/lib/libsysutil.a(sysutil_wrapper.o)
                0x0000000000027740                .sysGameDiscRegisterDiscChangeCallback
 .text.sysDiscRegisterDiscChangeCallback
                0x0000000000027778       0x38 /opt/ps3dev/psl1ght/ppu/lib/libsysutil.a(sysutil_wrapper.o)
                0x0000000000027778                .sysDiscRegisterDiscChangeCallback
 .text          0x00000000000277b0        0x0 /opt/ps3dev/psl1ght/ppu/lib/libio.a(sprx.o)
 .text          0x00000000000277b0        0x0 /opt/ps3dev/ppu/lib/gcc/powerpc64-ps3-elf/4.7.0/../../../../powerpc64-ps3-elf/lib/libm.a(lib_a-sf_cos.o)
 .text.cosf     0x00000000000277b0      0x10c /opt/ps3dev/ppu/lib/gcc/powerpc64-ps3-elf/4.7.0/../../../../powerpc64-ps3-elf/lib/libm.a(lib_a-sf_cos.o)
                0x00000000000277b0                .cosf
 .text          0x00000000000278bc        0x0 /opt/ps3dev/ppu/lib/gcc/powerpc64-ps3-elf/4.7.0/../../../../powerpc64-ps3-elf/lib/libm.a(lib_a-sf_sin.o)
 *fill*         0x00000000000278bc        0x4 60000000
 .text.sinf     0x00000000000278c0      0x114 /opt/ps3dev/ppu/lib/gcc/powerpc64-ps3-elf/4.7.0/../../../../powerpc64-ps3-elf/lib/libm.a(lib_a-sf_sin.o)
                0x00000000000278c0                .sinf
 .text          0x00000000000279d4        0x0 /opt/ps3dev/ppu/lib/gcc/powerpc64-ps3-elf/4.7.0/../../../../powerpc64-ps3-elf/lib/libm.a(lib_a-sf_tan.o)
 *fill*         0x00000000000279d4        0x4 60000000
 .text.tanf     0x00000000000279d8       0xb8 /opt/ps3dev/ppu/lib/gcc/powerpc64-ps3-elf/4.7.0/../../../../powerpc64-ps3-elf/lib/libm.a(lib_a-sf_tan.o)
                0x00000000000279d8                .tanf
 .text          0x0000000000027a90        0x0 /opt/ps3dev/ppu/lib/gcc/powerpc64-ps3-elf/4.7.0/../../../../powerpc64-ps3-elf/lib/libm.a(lib_a-wf_sqrt.o)
 .text.sqrtf    0x0000000000027a90      0x150 /opt/ps3dev/ppu/lib/gcc/powerpc64-ps3-elf/4.7.0/../../../../powerpc64-ps3-elf/lib/libm.a(lib_a-wf_sqrt.o)
                0x0000000000027a90                .sqrtf
 .text          0x0000000000027be0        0x0 /opt/ps3dev/ppu/lib/gcc/powerpc64-ps3-elf/4.7.0/../../../../powerpc64-ps3-elf/lib/libm.a(lib_a-w_sqrt.o)
 .text.sqrt     0x0000000000027be0      0x144 /opt/ps3dev/ppu/lib/gcc/powerpc64-ps3-elf/4.7.0/../../../../powerpc64-ps3-elf/lib/libm.a(lib_a-w_sqrt.o)
                0x0000000000027be0                .sqrt
 .text          0x0000000000027d24        0x0 /opt/ps3dev/ppu/lib/gcc/powerpc64-ps3-elf/4.7.0/../../../../powerpc64-ps3-elf/lib/libm.a(lib_a-ef_rem_pio2.o)
 *fill*         0x0000000000027d24        0x4 60000000
 .text.__ieee754_rem_pio2f
                0x0000000000027d28      0x498 /opt/ps3dev/ppu/lib/gcc/powerpc64-ps3-elf/4.7.0/../../../../powerpc64-ps3-elf/lib/libm.a(lib_a-ef_rem_pio2.o)
                0x0000000000027d28                .__ieee754_rem_pio2f
 .text          0x00000000000281c0        0x0 /opt/ps3dev/ppu/lib/gcc/powerpc64-ps3-elf/4.7.0/../../../../powerpc64-ps3-elf/lib/libm.a(lib_a-ef_sqrt.o)
 .text.__ieee754_sqrtf
                0x00000000000281c0      0x178 /opt/ps3dev/ppu/lib/gcc/powerpc64-ps3-elf/4.7.0/../../../../powerpc64-ps3-elf/lib/libm.a(lib_a-ef_sqrt.o)
                0x00000000000281c0                .__ieee754_sqrtf
 .text          0x0000000000028338        0x0 /opt/ps3dev/ppu/lib/gcc/powerpc64-ps3-elf/4.7.0/../../../../powerpc64-ps3-elf/lib/libm.a(lib_a-e_sqrt.o)
 .text.__ieee754_sqrt
                0x0000000000028338      0x320 /opt/ps3dev/ppu/lib/gcc/powerpc64-ps3-elf/4.7.0/../../../../powerpc64-ps3-elf/lib/libm.a(lib_a-e_sqrt.o)
                0x0000000000028338                .__ieee754_sqrt
 .text          0x0000000000028658        0x0 /opt/ps3dev/ppu/lib/gcc/powerpc64-ps3-elf/4.7.0/../../../../powerpc64-ps3-elf/lib/libm.a(lib_a-kf_cos.o)
 .text.__kernel_cosf
                0x0000000000028658      0x1b8 /opt/ps3dev/ppu/lib/gcc/powerpc64-ps3-elf/4.7.0/../../../../powerpc64-ps3-elf/lib/libm.a(lib_a-kf_cos.o)
                0x0000000000028658                .__kernel_cosf
 .text          0x0000000000028810        0x0 /opt/ps3dev/ppu/lib/gcc/powerpc64-ps3-elf/4.7.0/../../../../powerpc64-ps3-elf/lib/libm.a(lib_a-kf_rem_pio2.o)
 .text.__kernel_rem_pio2f
                0x0000000000028810      0xc44 /opt/ps3dev/ppu/lib/gcc/powerpc64-ps3-elf/4.7.0/../../../../powerpc64-ps3-elf/lib/libm.a(lib_a-kf_rem_pio2.o)
                0x0000000000028810                .__kernel_rem_pio2f
 .text          0x0000000000029454        0x0 /opt/ps3dev/ppu/lib/gcc/powerpc64-ps3-elf/4.7.0/../../../../powerpc64-ps3-elf/lib/libm.a(lib_a-kf_sin.o)
 *fill*         0x0000000000029454        0x4 60000000
 .text.__kernel_sinf
                0x0000000000029458       0xe0 /opt/ps3dev/ppu/lib/gcc/powerpc64-ps3-elf/4.7.0/../../../../powerpc64-ps3-elf/lib/libm.a(lib_a-kf_sin.o)
                0x0000000000029458                .__kernel_sinf
 .text          0x0000000000029538        0x0 /opt/ps3dev/ppu/lib/gcc/powerpc64-ps3-elf/4.7.0/../../../../powerpc64-ps3-elf/lib/libm.a(lib_a-kf_tan.o)
 .text.__kernel_tanf
                0x0000000000029538      0x340 /opt/ps3dev/ppu/lib/gcc/powerpc64-ps3-elf/4.7.0/../../../../powerpc64-ps3-elf/lib/libm.a(lib_a-kf_tan.o)
                0x0000000000029538                .__kernel_tanf
 .text          0x0000000000029878        0x0 /opt/ps3dev/ppu/lib/gcc/powerpc64-ps3-elf/4.7.0/../../../../powerpc64-ps3-elf/lib/libm.a(lib_a-sf_fabs.o)
 .text.fabsf    0x0000000000029878       0x24 /opt/ps3dev/ppu/lib/gcc/powerpc64-ps3-elf/4.7.0/../../../../powerpc64-ps3-elf/lib/libm.a(lib_a-sf_fabs.o)
                0x0000000000029878                .fabsf
 .text          0x000000000002989c        0x0 /opt/ps3dev/ppu/lib/gcc/powerpc64-ps3-elf/4.7.0/../../../../powerpc64-ps3-elf/lib/libm.a(lib_a-sf_floor.o)
 *fill*         0x000000000002989c        0x4 60000000
 .text.floorf   0x00000000000298a0      0x11c /opt/ps3dev/ppu/lib/gcc/powerpc64-ps3-elf/4.7.0/../../../../powerpc64-ps3-elf/lib/libm.a(lib_a-sf_floor.o)
                0x00000000000298a0                .floorf
 .text          0x00000000000299bc        0x0 /opt/ps3dev/ppu/lib/gcc/powerpc64-ps3-elf/4.7.0/../../../../powerpc64-ps3-elf/lib/libm.a(lib_a-sf_fpclassify.o)
 *fill*         0x00000000000299bc        0x4 60000000
 .text.__fpclassifyf
                0x00000000000299c0       0xa8 /opt/ps3dev/ppu/lib/gcc/powerpc64-ps3-elf/4.7.0/../../../../powerpc64-ps3-elf/lib/libm.a(lib_a-sf_fpclassify.o)
                0x00000000000299c0                .__fpclassifyf
 .text          0x0000000000029a68        0x0 /opt/ps3dev/ppu/lib/gcc/powerpc64-ps3-elf/4.7.0/../../../../powerpc64-ps3-elf/lib/libm.a(lib_a-sf_scalbn.o)
 .text.scalbnf  0x0000000000029a68      0x1a4 /opt/ps3dev/ppu/lib/gcc/powerpc64-ps3-elf/4.7.0/../../../../powerpc64-ps3-elf/lib/libm.a(lib_a-sf_scalbn.o)
                0x0000000000029a68                .scalbnf
 .text          0x0000000000029c0c        0x0 /opt/ps3dev/ppu/lib/gcc/powerpc64-ps3-elf/4.7.0/../../../../powerpc64-ps3-elf/lib/libm.a(lib_a-s_lib_ver.o)
 .text          0x0000000000029c0c        0x0 /opt/ps3dev/ppu/lib/gcc/powerpc64-ps3-elf/4.7.0/../../../../powerpc64-ps3-elf/lib/libm.a(lib_a-s_matherr.o)
 *fill*         0x0000000000029c0c        0x4 60000000
 .text.matherr  0x0000000000029c10       0x14 /opt/ps3dev/ppu/lib/gcc/powerpc64-ps3-elf/4.7.0/../../../../powerpc64-ps3-elf/lib/libm.a(lib_a-s_matherr.o)
                0x0000000000029c10                .matherr
 .text          0x0000000000029c24        0x0 /opt/ps3dev/ppu/lib/gcc/powerpc64-ps3-elf/4.7.0/../../../../powerpc64-ps3-elf/lib/libm.a(lib_a-sf_copysign.o)
 *fill*         0x0000000000029c24        0x4 60000000
 .text.copysignf
                0x0000000000029c28       0x34 /opt/ps3dev/ppu/lib/gcc/powerpc64-ps3-elf/4.7.0/../../../../powerpc64-ps3-elf/lib/libm.a(lib_a-sf_copysign.o)
                0x0000000000029c28                .copysignf
 .text          0x0000000000029c5c        0x0 /opt/ps3dev/psl1ght/ppu/lib/librt.a(sbrk.o)
 *fill*         0x0000000000029c5c        0x4 60000000
 .text.startup.sbrk_init
                0x0000000000029c60       0xb4 /opt/ps3dev/psl1ght/ppu/lib/librt.a(sbrk.o)
 *fill*         0x0000000000029d14        0x4 60000000
 .text.sbrk_deinit
                0x0000000000029d18       0xc8 /opt/ps3dev/psl1ght/ppu/lib/librt.a(sbrk.o)
 .text.__librt_sbrk_r
                0x0000000000029de0      0x29c /opt/ps3dev/psl1ght/ppu/lib/librt.a(sbrk.o)
                0x0000000000029de0                .__librt_sbrk_r
 .text          0x000000000002a07c        0x0 /opt/ps3dev/psl1ght/ppu/lib/librt.a(exit.o)
 *fill*         0x000000000002a07c        0x4 60000000
 .text.__librt_exit
                0x000000000002a080       0x30 /opt/ps3dev/psl1ght/ppu/lib/librt.a(exit.o)
                0x000000000002a080                .__librt_exit
 .text          0x000000000002a0b0        0x0 /opt/ps3dev/psl1ght/ppu/lib/librt.a(close.o)
 .text.__librt_close_r
                0x000000000002a0b0       0x88 /opt/ps3dev/psl1ght/ppu/lib/librt.a(close.o)
                0x000000000002a0b0                .__librt_close_r
 .text          0x000000000002a138        0x0 /opt/ps3dev/psl1ght/ppu/lib/librt.a(lseek.o)
 .text.__librt_lseek_r
                0x000000000002a138       0x8c /opt/ps3dev/psl1ght/ppu/lib/librt.a(lseek.o)
                0x000000000002a138                .__librt_lseek_r
 *fill*         0x000000000002a1c4        0x4 60000000
 .text.__librt_lseek64_r
                0x000000000002a1c8       0x8c /opt/ps3dev/psl1ght/ppu/lib/librt.a(lseek.o)
                0x000000000002a1c8                .__librt_lseek64_r
 .text          0x000000000002a254        0x0 /opt/ps3dev/psl1ght/ppu/lib/librt.a(read.o)
 *fill*         0x000000000002a254        0x4 60000000
 .text.__librt_read_r
                0x000000000002a258      0x110 /opt/ps3dev/psl1ght/ppu/lib/librt.a(read.o)
                0x000000000002a258                .__librt_read_r
 .text          0x000000000002a368        0x0 /opt/ps3dev/psl1ght/ppu/lib/librt.a(open.o)
 .text.__librt_open_r
                0x000000000002a368      0x180 /opt/ps3dev/psl1ght/ppu/lib/librt.a(open.o)
                0x000000000002a368                .__librt_open_r
 .text          0x000000000002a4e8        0x0 /opt/ps3dev/psl1ght/ppu/lib/librt.a(sleep.o)
 .text.__librt_usleep_r
                0x000000000002a4e8       0x50 /opt/ps3dev/psl1ght/ppu/lib/librt.a(sleep.o)
                0x000000000002a4e8                .__librt_usleep_r
 .text.__librt_sleep_r
                0x000000000002a538       0x8c /opt/ps3dev/psl1ght/ppu/lib/librt.a(sleep.o)
                0x000000000002a538                .__librt_sleep_r
 .text          0x000000000002a5c4        0x0 /opt/ps3dev/psl1ght/ppu/lib/librt.a(write.o)
 *fill*         0x000000000002a5c4        0x4 60000000
 .text.__librt_write_r
                0x000000000002a5c8      0x124 /opt/ps3dev/psl1ght/ppu/lib/librt.a(write.o)
                0x000000000002a5c8                .__librt_write_r
 .text          0x000000000002a6ec        0x0 /opt/ps3dev/psl1ght/ppu/lib/librt.a(fstat.o)
 *fill*         0x000000000002a6ec        0x4 60000000
 .text.convertLv2Stat
                0x000000000002a6f0      0x234 /opt/ps3dev/psl1ght/ppu/lib/librt.a(fstat.o)
 *fill*         0x000000000002a924        0x4 60000000
 .text.__librt_fstat_r
                0x000000000002a928       0x88 /opt/ps3dev/psl1ght/ppu/lib/librt.a(fstat.o)
                0x000000000002a928                .__librt_fstat_r
 .text.__librt_fstat64_r
                0x000000000002a9b0       0x88 /opt/ps3dev/psl1ght/ppu/lib/librt.a(fstat.o)
                0x000000000002a9b0                .__librt_fstat64_r
 .text.__librt_stat_r
                0x000000000002aa38       0x88 /opt/ps3dev/psl1ght/ppu/lib/librt.a(fstat.o)
                0x000000000002aa38                .__librt_stat_r
 .text.__librt_stat64_r
                0x000000000002aac0       0x88 /opt/ps3dev/psl1ght/ppu/lib/librt.a(fstat.o)
                0x000000000002aac0                .__librt_stat64_r
 .text          0x000000000002ab48        0x0 /opt/ps3dev/psl1ght/ppu/lib/librt.a(socket.o)
 .text.accept   0x000000000002ab48       0xac /opt/ps3dev/psl1ght/ppu/lib/librt.a(socket.o)
                0x000000000002ab48                .accept
 *fill*         0x000000000002abf4        0x4 60000000
 .text.bind     0x000000000002abf8       0x48 /opt/ps3dev/psl1ght/ppu/lib/librt.a(socket.o)
                0x000000000002abf8                .bind
 .text.connect  0x000000000002ac40       0x48 /opt/ps3dev/psl1ght/ppu/lib/librt.a(socket.o)
                0x000000000002ac40                .connect
 .text.listen   0x000000000002ac88       0x48 /opt/ps3dev/psl1ght/ppu/lib/librt.a(socket.o)
                0x000000000002ac88                .listen
 .text.socket   0x000000000002acd0       0x54 /opt/ps3dev/psl1ght/ppu/lib/librt.a(socket.o)
                0x000000000002acd0                .socket
 *fill*         0x000000000002ad24        0x4 60000000
 .text.send     0x000000000002ad28       0x50 /opt/ps3dev/psl1ght/ppu/lib/librt.a(socket.o)
                0x000000000002ad28                .send
 .text.sendto   0x000000000002ad78       0x48 /opt/ps3dev/psl1ght/ppu/lib/librt.a(socket.o)
                0x000000000002ad78                .sendto
 .text.recv     0x000000000002adc0       0x50 /opt/ps3dev/psl1ght/ppu/lib/librt.a(socket.o)
                0x000000000002adc0                .recv
 .text.recvfrom
                0x000000000002ae10       0xa0 /opt/ps3dev/psl1ght/ppu/lib/librt.a(socket.o)
                0x000000000002ae10                .recvfrom
 .text.shutdown
                0x000000000002aeb0       0x48 /opt/ps3dev/psl1ght/ppu/lib/librt.a(socket.o)
                0x000000000002aeb0                .shutdown
 .text.inet_aton
                0x000000000002aef8       0xbc /opt/ps3dev/psl1ght/ppu/lib/librt.a(socket.o)
                0x000000000002aef8                .inet_aton
 *fill*         0x000000000002afb4        0x4 60000000
 .text.inet_pton
                0x000000000002afb8       0x48 /opt/ps3dev/psl1ght/ppu/lib/librt.a(socket.o)
                0x000000000002afb8                .inet_pton
 .text.select   0x000000000002b000       0x3c /opt/ps3dev/psl1ght/ppu/lib/librt.a(socket.o)
                0x000000000002b000                .select
 *fill*         0x000000000002b03c        0x4 60000000
 .text.closesocket
                0x000000000002b040       0x48 /opt/ps3dev/psl1ght/ppu/lib/librt.a(socket.o)
                0x000000000002b040                .closesocket
 .text          0x000000000002b088        0x0 /opt/ps3dev/psl1ght/ppu/lib/librt.a(lock.o)
 .text.__librt_sys_lwmutex_create_r
                0x000000000002b088       0x38 /opt/ps3dev/psl1ght/ppu/lib/librt.a(lock.o)
                0x000000000002b088                .__librt_sys_lwmutex_create_r
 .text.__librt_sys_lwmutex_destroy_r
                0x000000000002b0c0       0x34 /opt/ps3dev/psl1ght/ppu/lib/librt.a(lock.o)
                0x000000000002b0c0                .__librt_sys_lwmutex_destroy_r
 *fill*         0x000000000002b0f4        0x4 60000000
 .text.__librt_sys_lwmutex_lock_r
                0x000000000002b0f8       0x38 /opt/ps3dev/psl1ght/ppu/lib/librt.a(lock.o)
                0x000000000002b0f8                .__librt_sys_lwmutex_lock_r
 .text.__librt_sys_lwmutex_trylock_r
                0x000000000002b130       0x34 /opt/ps3dev/psl1ght/ppu/lib/librt.a(lock.o)
                0x000000000002b130                .__librt_sys_lwmutex_trylock_r
 *fill*         0x000000000002b164        0x4 60000000
 .text.__librt_sys_lwmutex_unlock_r
                0x000000000002b168       0x34 /opt/ps3dev/psl1ght/ppu/lib/librt.a(lock.o)
                0x000000000002b168                .__librt_sys_lwmutex_unlock_r
 .text          0x000000000002b19c        0x0 /opt/ps3dev/psl1ght/ppu/lib/librt.a(dirent.o)
 *fill*         0x000000000002b19c        0x4 60000000
 .text.readdir_i
                0x000000000002b1a0      0x10c /opt/ps3dev/psl1ght/ppu/lib/librt.a(dirent.o)
 *fill*         0x000000000002b2ac        0x4 60000000
 .text.__librt_opendir_r
                0x000000000002b2b0      0x13c /opt/ps3dev/psl1ght/ppu/lib/librt.a(dirent.o)
                0x000000000002b2b0                .__librt_opendir_r
 *fill*         0x000000000002b3ec        0x4 60000000
 .text.__librt_readdir_r
                0x000000000002b3f0       0x80 /opt/ps3dev/psl1ght/ppu/lib/librt.a(dirent.o)
                0x000000000002b3f0                .__librt_readdir_r
 .text.__librt_readdir_r_r
                0x000000000002b470       0x54 /opt/ps3dev/psl1ght/ppu/lib/librt.a(dirent.o)
                0x000000000002b470                .__librt_readdir_r_r
 *fill*         0x000000000002b4c4        0x4 60000000
 .text.__librt_closedir_r
                0x000000000002b4c8       0x84 /opt/ps3dev/psl1ght/ppu/lib/librt.a(dirent.o)
                0x000000000002b4c8                .__librt_closedir_r
 *fill*         0x000000000002b54c        0x4 60000000
 .text.__librt_telldir_r
                0x000000000002b550       0x2c /opt/ps3dev/psl1ght/ppu/lib/librt.a(dirent.o)
                0x000000000002b550                .__librt_telldir_r
 *fill*         0x000000000002b57c        0x4 60000000
 .text.__librt_rewinddir_r
                0x000000000002b580       0x18 /opt/ps3dev/psl1ght/ppu/lib/librt.a(dirent.o)
                0x000000000002b580                .__librt_rewinddir_r
 .text.__librt_seekdir_r
                0x000000000002b598       0x18 /opt/ps3dev/psl1ght/ppu/lib/librt.a(dirent.o)
                0x000000000002b598                .__librt_seekdir_r
 .text          0x000000000002b5b0        0x0 /opt/ps3dev/psl1ght/ppu/lib/librt.a(mkdir.o)
 .text.__librt_mkdir_r
                0x000000000002b5b0       0x60 /opt/ps3dev/psl1ght/ppu/lib/librt.a(mkdir.o)
                0x000000000002b5b0                .__librt_mkdir_r
 .text          0x000000000002b610        0x0 /opt/ps3dev/psl1ght/ppu/lib/librt.a(times.o)
 .text.__librt_times_r
                0x000000000002b610       0x1c /opt/ps3dev/psl1ght/ppu/lib/librt.a(times.o)
                0x000000000002b610                .__librt_times_r
 .text          0x000000000002b62c        0x0 /opt/ps3dev/psl1ght/ppu/lib/librt.a(umask.o)
 *fill*         0x000000000002b62c        0x4 60000000
 .text.__librt_umask_r
                0x000000000002b630       0x20 /opt/ps3dev/psl1ght/ppu/lib/librt.a(umask.o)
                0x000000000002b630                .__librt_umask_r
 .text          0x000000000002b650        0x0 /opt/ps3dev/psl1ght/ppu/lib/librt.a(lv2errno.o)
 .text.lv2error
                0x000000000002b650      0x3f8 /opt/ps3dev/psl1ght/ppu/lib/librt.a(lv2errno.o)
                0x000000000002b650                .lv2error
 .text.lv2errno
                0x000000000002ba48       0x68 /opt/ps3dev/psl1ght/ppu/lib/librt.a(lv2errno.o)
                0x000000000002ba48                .lv2errno
 .text.lv2errno_r
                0x000000000002bab0       0x58 /opt/ps3dev/psl1ght/ppu/lib/librt.a(lv2errno.o)
                0x000000000002bab0                .lv2errno_r
 .text          0x000000000002bb08        0x0 /opt/ps3dev/psl1ght/ppu/lib/librt.a(heap.o)
 .text.heapInit
                0x000000000002bb08       0xe8 /opt/ps3dev/psl1ght/ppu/lib/librt.a(heap.o)
                0x000000000002bb08                .heapInit
 .text.heapAllocate
                0x000000000002bbf0      0x17c /opt/ps3dev/psl1ght/ppu/lib/librt.a(heap.o)
                0x000000000002bbf0                .heapAllocate
 *fill*         0x000000000002bd6c        0x4 60000000
 .text.heapAllocateAligned
                0x000000000002bd70      0x21c /opt/ps3dev/psl1ght/ppu/lib/librt.a(heap.o)
                0x000000000002bd70                .heapAllocateAligned
 *fill*         0x000000000002bf8c        0x4 60000000
 .text.heapFree
                0x000000000002bf90      0x230 /opt/ps3dev/psl1ght/ppu/lib/librt.a(heap.o)
                0x000000000002bf90                .heapFree
 .text          0x000000000002c1c0        0x0 /opt/ps3dev/psl1ght/ppu/lib/librt.a(chmod.o)
 .text.__librt_chmod_r
                0x000000000002c1c0       0x54 /opt/ps3dev/psl1ght/ppu/lib/librt.a(chmod.o)
                0x000000000002c1c0                .__librt_chmod_r
 .text          0x000000000002c214        0x0 /opt/ps3dev/psl1ght/ppu/lib/librt.a(rmdir.o)
 *fill*         0x000000000002c214        0x4 60000000
 .text.__librt_rmdir_r
                0x000000000002c218       0x50 /opt/ps3dev/psl1ght/ppu/lib/librt.a(rmdir.o)
                0x000000000002c218                .__librt_rmdir_r
 .text          0x000000000002c268        0x0 /opt/ps3dev/psl1ght/ppu/lib/librt.a(isatty.o)
 .text.__librt_isatty_r
                0x000000000002c268       0x2c /opt/ps3dev/psl1ght/ppu/lib/librt.a(isatty.o)
                0x000000000002c268                .__librt_isatty_r
 .text          0x000000000002c294        0x0 /opt/ps3dev/psl1ght/ppu/lib/librt.a(gettod.o)
 *fill*         0x000000000002c294        0x4 60000000
 .text.__librt_gettod_r
                0x000000000002c298       0xb8 /opt/ps3dev/psl1ght/ppu/lib/librt.a(gettod.o)
                0x000000000002c298                .__librt_gettod_r
 .text          0x000000000002c350        0x0 /opt/ps3dev/psl1ght/ppu/lib/librt.a(settod.o)
 .text.__librt_settod_r
                0x000000000002c350       0x58 /opt/ps3dev/psl1ght/ppu/lib/librt.a(settod.o)
                0x000000000002c350                .__librt_settod_r
 .text          0x000000000002c3a8        0x0 /opt/ps3dev/psl1ght/ppu/lib/liblv2.a(sprx.o)
 .text          0x000000000002c3a8        0x0 /opt/ps3dev/psl1ght/ppu/lib/libsysmodule.a(sprx.o)
 .text          0x000000000002c3a8        0x0 /opt/ps3dev/psl1ght/ppu/lib/libpngdec.a(pngdec.o)
 .text.png_malloc
                0x000000000002c3a8       0x30 /opt/ps3dev/psl1ght/ppu/lib/libpngdec.a(pngdec.o)
 .text.png_free
                0x000000000002c3d8       0x30 /opt/ps3dev/psl1ght/ppu/lib/libpngdec.a(pngdec.o)
 .text.decodePNG
                0x000000000002c408      0x298 /opt/ps3dev/psl1ght/ppu/lib/libpngdec.a(pngdec.o)
 .text.pngLoadFromFile
                0x000000000002c6a0       0x60 /opt/ps3dev/psl1ght/ppu/lib/libpngdec.a(pngdec.o)
                0x000000000002c6a0                .pngLoadFromFile
 .text.pngLoadFromBuffer
                0x000000000002c700       0x70 /opt/ps3dev/psl1ght/ppu/lib/libpngdec.a(pngdec.o)
                0x000000000002c700                .pngLoadFromBuffer
 .text          0x000000000002c770        0x0 /opt/ps3dev/psl1ght/ppu/lib/libpngdec.a(sprx.o)
 .text          0x000000000002c770        0x0 /opt/ps3dev/psl1ght/ppu/lib/libjpgdec.a(jpgdec.o)
 .text.jpg_malloc
                0x000000000002c770       0x30 /opt/ps3dev/psl1ght/ppu/lib/libjpgdec.a(jpgdec.o)
 .text.jpg_free
                0x000000000002c7a0       0x30 /opt/ps3dev/psl1ght/ppu/lib/libjpgdec.a(jpgdec.o)
 .text.decodeJPEG
                0x000000000002c7d0      0x274 /opt/ps3dev/psl1ght/ppu/lib/libjpgdec.a(jpgdec.o)
 *fill*         0x000000000002ca44        0x4 60000000
 .text.jpgLoadFromFile
                0x000000000002ca48       0x60 /opt/ps3dev/psl1ght/ppu/lib/libjpgdec.a(jpgdec.o)
                0x000000000002ca48                .jpgLoadFromFile
 .text.jpgLoadFromBuffer
                0x000000000002caa8       0x70 /opt/ps3dev/psl1ght/ppu/lib/libjpgdec.a(jpgdec.o)
                0x000000000002caa8                .jpgLoadFromBuffer
 .text          0x000000000002cb18        0x0 /opt/ps3dev/psl1ght/ppu/lib/libjpgdec.a(sprx.o)
 .text          0x000000000002cb18        0x0 /opt/ps3dev/ppu/lib/gcc/powerpc64-ps3-elf/4.7.0/../../../../powerpc64-ps3-elf/lib/libsysbase.a(sbrk.o)
 .text._sbrk_r  0x000000000002cb18       0x68 /opt/ps3dev/ppu/lib/gcc/powerpc64-ps3-elf/4.7.0/../../../../powerpc64-ps3-elf/lib/libsysbase.a(sbrk.o)
                0x000000000002cb18                ._sbrk_r
 .text          0x000000000002cb80        0x0 /opt/ps3dev/ppu/lib/gcc/powerpc64-ps3-elf/4.7.0/../../../../powerpc64-ps3-elf/lib/libsysbase.a(syscalls.o)
 .text          0x000000000002cb80        0x0 /opt/ps3dev/ppu/lib/gcc/powerpc64-ps3-elf/4.7.0/../../../../powerpc64-ps3-elf/lib/libsysbase.a(_exit.o)
 .text._exit    0x000000000002cb80       0x48 /opt/ps3dev/ppu/lib/gcc/powerpc64-ps3-elf/4.7.0/../../../../powerpc64-ps3-elf/lib/libsysbase.a(_exit.o)
                0x000000000002cb80                ._exit
 .text          0x000000000002cbc8        0x0 /opt/ps3dev/ppu/lib/gcc/powerpc64-ps3-elf/4.7.0/../../../../powerpc64-ps3-elf/lib/libsysbase.a(lock.o)
 .text.sys_lwmutex_create
                0x000000000002cbc8       0x90 /opt/ps3dev/ppu/lib/gcc/powerpc64-ps3-elf/4.7.0/../../../../powerpc64-ps3-elf/lib/libsysbase.a(lock.o)
                0x000000000002cbc8                .sys_lwmutex_create
 .text.sys_lwmutex_destroy
                0x000000000002cc58       0x80 /opt/ps3dev/ppu/lib/gcc/powerpc64-ps3-elf/4.7.0/../../../../powerpc64-ps3-elf/lib/libsysbase.a(lock.o)
                0x000000000002cc58                .sys_lwmutex_destroy
 .text.sys_lwmutex_lock
                0x000000000002ccd8       0x90 /opt/ps3dev/ppu/lib/gcc/powerpc64-ps3-elf/4.7.0/../../../../powerpc64-ps3-elf/lib/libsysbase.a(lock.o)
                0x000000000002ccd8                .sys_lwmutex_lock
 .text.sys_lwmutex_trylock
                0x000000000002cd68       0x80 /opt/ps3dev/ppu/lib/gcc/powerpc64-ps3-elf/4.7.0/../../../../powerpc64-ps3-elf/lib/libsysbase.a(lock.o)
                0x000000000002cd68                .sys_lwmutex_trylock
 .text.sys_lwmutex_unlock
                0x000000000002cde8       0x80 /opt/ps3dev/ppu/lib/gcc/powerpc64-ps3-elf/4.7.0/../../../../powerpc64-ps3-elf/lib/libsysbase.a(lock.o)
                0x000000000002cde8                .sys_lwmutex_unlock
 .text          0x000000000002ce68        0x0 /opt/ps3dev/ppu/lib/gcc/powerpc64-ps3-elf/4.7.0/../../../../powerpc64-ps3-elf/lib/libsysbase.a(getpid.o)
 .text._getpid_r
                0x000000000002ce68       0x68 /opt/ps3dev/ppu/lib/gcc/powerpc64-ps3-elf/4.7.0/../../../../powerpc64-ps3-elf/lib/libsysbase.a(getpid.o)
                0x000000000002ce68                ._getpid_r
 .text          0x000000000002ced0        0x0 /opt/ps3dev/ppu/lib/gcc/powerpc64-ps3-elf/4.7.0/../../../../powerpc64-ps3-elf/lib/libsysbase.a(kill.o)
 .text._kill_r  0x000000000002ced0       0x1c /opt/ps3dev/ppu/lib/gcc/powerpc64-ps3-elf/4.7.0/../../../../powerpc64-ps3-elf/lib/libsysbase.a(kill.o)
                0x000000000002ced0                ._kill_r
 .text          0x000000000002ceec        0x0 /opt/ps3dev/ppu/lib/gcc/powerpc64-ps3-elf/4.7.0/../../../../powerpc64-ps3-elf/lib/libsysbase.a(sleep.o)
 *fill*         0x000000000002ceec        0x4 60000000
 .text.usleep   0x000000000002cef0       0x80 /opt/ps3dev/ppu/lib/gcc/powerpc64-ps3-elf/4.7.0/../../../../powerpc64-ps3-elf/lib/libsysbase.a(sleep.o)
                0x000000000002cef0                .usleep
 .text.sleep    0x000000000002cf70       0x94 /opt/ps3dev/ppu/lib/gcc/powerpc64-ps3-elf/4.7.0/../../../../powerpc64-ps3-elf/lib/libsysbase.a(sleep.o)
                0x000000000002cf70                .sleep
 .text          0x000000000002d004        0x0 /opt/ps3dev/ppu/lib/gcc/powerpc64-ps3-elf/4.7.0/../../../../powerpc64-ps3-elf/lib/libc.a(lib_a-errno.o)
 *fill*         0x000000000002d004        0x4 60000000
 .text.__errno  0x000000000002d008       0x30 /opt/ps3dev/ppu/lib/gcc/powerpc64-ps3-elf/4.7.0/../../../../powerpc64-ps3-elf/lib/libc.a(lib_a-errno.o)
                0x000000000002d008                .__errno
 .text          0x000000000002d038        0x0 /opt/ps3dev/ppu/lib/gcc/powerpc64-ps3-elf/4.7.0/../../../../powerpc64-ps3-elf/lib/libc.a(lib_a-sscanf.o)
 .text.sscanf   0x000000000002d038       0xb0 /opt/ps3dev/ppu/lib/gcc/powerpc64-ps3-elf/4.7.0/../../../../powerpc64-ps3-elf/lib/libc.a(lib_a-sscanf.o)
                0x000000000002d038                .sscanf
 .text._sscanf_r
                0x000000000002d0e8       0xb0 /opt/ps3dev/ppu/lib/gcc/powerpc64-ps3-elf/4.7.0/../../../../powerpc64-ps3-elf/lib/libc.a(lib_a-sscanf.o)
                0x000000000002d0e8                ._sscanf_r
 .text          0x000000000002d198        0x0 /opt/ps3dev/ppu/lib/gcc/powerpc64-ps3-elf/4.7.0/../../../../powerpc64-ps3-elf/lib/libc.a(lib_a-stdio.o)
 .text.__sread  0x000000000002d198       0x80 /opt/ps3dev/ppu/lib/gcc/powerpc64-ps3-elf/4.7.0/../../../../powerpc64-ps3-elf/lib/libc.a(lib_a-stdio.o)
                0x000000000002d198                .__sread
 .text.__seofread
                0x000000000002d218       0x14 /opt/ps3dev/ppu/lib/gcc/powerpc64-ps3-elf/4.7.0/../../../../powerpc64-ps3-elf/lib/libc.a(lib_a-stdio.o)
                0x000000000002d218                .__seofread
 *fill*         0x000000000002d22c        0x4 60000000
 .text.__swrite
                0x000000000002d230       0xb8 /opt/ps3dev/ppu/lib/gcc/powerpc64-ps3-elf/4.7.0/../../../../powerpc64-ps3-elf/lib/libc.a(lib_a-stdio.o)
                0x000000000002d230                .__swrite
 .text.__sseek  0x000000000002d2e8       0x7c /opt/ps3dev/ppu/lib/gcc/powerpc64-ps3-elf/4.7.0/../../../../powerpc64-ps3-elf/lib/libc.a(lib_a-stdio.o)
                0x000000000002d2e8                .__sseek
 *fill*         0x000000000002d364        0x4 60000000
 .text.__sclose
                0x000000000002d368       0x38 /opt/ps3dev/ppu/lib/gcc/powerpc64-ps3-elf/4.7.0/../../../../powerpc64-ps3-elf/lib/libc.a(lib_a-stdio.o)
                0x000000000002d368                .__sclose
 .text          0x000000000002d3a0        0x0 /opt/ps3dev/ppu/lib/gcc/powerpc64-ps3-elf/4.7.0/../../../../powerpc64-ps3-elf/lib/libc.a(lib_a-strncpy.o)
 .text.strncpy  0x000000000002d3a0      0x11c /opt/ps3dev/ppu/lib/gcc/powerpc64-ps3-elf/4.7.0/../../../../powerpc64-ps3-elf/lib/libc.a(lib_a-strncpy.o)
                0x000000000002d3a0                .strncpy
 .text          0x000000000002d4bc        0x0 /opt/ps3dev/ppu/lib/gcc/powerpc64-ps3-elf/4.7.0/../../../../powerpc64-ps3-elf/lib/libc.a(lib_a-svfscanf.o)
 *fill*         0x000000000002d4bc        0x4 60000000
 .text.__ssvfscanf_r
                0x000000000002d4c0     0x1800 /opt/ps3dev/ppu/lib/gcc/powerpc64-ps3-elf/4.7.0/../../../../powerpc64-ps3-elf/lib/libc.a(lib_a-svfscanf.o)
                0x000000000002d4c0                .__ssvfscanf_r
 .text          0x000000000002ecc0        0x0 /opt/ps3dev/ppu/lib/gcc/powerpc64-ps3-elf/4.7.0/../../../../powerpc64-ps3-elf/lib/libc.a(lib_a-iswspace.o)
 .text.iswspace
                0x000000000002ecc0       0x3c /opt/ps3dev/ppu/lib/gcc/powerpc64-ps3-elf/4.7.0/../../../../powerpc64-ps3-elf/lib/libc.a(lib_a-iswspace.o)
                0x000000000002ecc0                .iswspace
 .text          0x000000000002ecfc        0x0 /opt/ps3dev/ppu/lib/gcc/powerpc64-ps3-elf/4.7.0/../../../../powerpc64-ps3-elf/lib/libc.a(lib_a-mbrtowc.o)
 *fill*         0x000000000002ecfc        0x4 60000000
 .text._mbrtowc_r
                0x000000000002ed00      0x104 /opt/ps3dev/ppu/lib/gcc/powerpc64-ps3-elf/4.7.0/../../../../powerpc64-ps3-elf/lib/libc.a(lib_a-mbrtowc.o)
                0x000000000002ed00                ._mbrtowc_r
 *fill*         0x000000000002ee04        0x4 60000000
 .text.mbrtowc  0x000000000002ee08      0x170 /opt/ps3dev/ppu/lib/gcc/powerpc64-ps3-elf/4.7.0/../../../../powerpc64-ps3-elf/lib/libc.a(lib_a-mbrtowc.o)
                0x000000000002ee08                .mbrtowc
 .text          0x000000000002ef78        0x0 /opt/ps3dev/ppu/lib/gcc/powerpc64-ps3-elf/4.7.0/../../../../powerpc64-ps3-elf/lib/libc.a(lib_a-mbtowc_r.o)
 .text.__ascii_mbtowc
                0x000000000002ef78       0x5c /opt/ps3dev/ppu/lib/gcc/powerpc64-ps3-elf/4.7.0/../../../../powerpc64-ps3-elf/lib/libc.a(lib_a-mbtowc_r.o)
                0x000000000002ef78                .__ascii_mbtowc
 *fill*         0x000000000002efd4        0x4 60000000
 .text._mbtowc_r
                0x000000000002efd8       0x98 /opt/ps3dev/ppu/lib/gcc/powerpc64-ps3-elf/4.7.0/../../../../powerpc64-ps3-elf/lib/libc.a(lib_a-mbtowc_r.o)
                0x000000000002efd8                ._mbtowc_r
 .text          0x000000000002f070        0x0 /opt/ps3dev/ppu/lib/gcc/powerpc64-ps3-elf/4.7.0/../../../../powerpc64-ps3-elf/lib/libc.a(lib_a-sccl.o)
 .text.__sccl   0x000000000002f070      0x120 /opt/ps3dev/ppu/lib/gcc/powerpc64-ps3-elf/4.7.0/../../../../powerpc64-ps3-elf/lib/libc.a(lib_a-sccl.o)
                0x000000000002f070                .__sccl
 .text          0x000000000002f190        0x0 /opt/ps3dev/ppu/lib/gcc/powerpc64-ps3-elf/4.7.0/../../../../powerpc64-ps3-elf/lib/libc.a(lib_a-sf_nan.o)
 .text.nanf     0x000000000002f190       0x18 /opt/ps3dev/ppu/lib/gcc/powerpc64-ps3-elf/4.7.0/../../../../powerpc64-ps3-elf/lib/libc.a(lib_a-sf_nan.o)
                0x000000000002f190                .nanf
 .text          0x000000000002f1a8        0x0 /opt/ps3dev/ppu/lib/gcc/powerpc64-ps3-elf/4.7.0/../../../../powerpc64-ps3-elf/lib/libc.a(lib_a-sprintf.o)
 .text._sprintf_r
                0x000000000002f1a8       0x8c /opt/ps3dev/ppu/lib/gcc/powerpc64-ps3-elf/4.7.0/../../../../powerpc64-ps3-elf/lib/libc.a(lib_a-sprintf.o)
                0x000000000002f1a8                ._sprintf_r
 *fill*         0x000000000002f234        0x4 60000000
 .text.sprintf  0x000000000002f238       0xa4 /opt/ps3dev/ppu/lib/gcc/powerpc64-ps3-elf/4.7.0/../../../../powerpc64-ps3-elf/lib/libc.a(lib_a-sprintf.o)
                0x000000000002f238                .sprintf
 .text          0x000000000002f2dc        0x0 /opt/ps3dev/ppu/lib/gcc/powerpc64-ps3-elf/4.7.0/../../../../powerpc64-ps3-elf/lib/libc.a(lib_a-strtod.o)
 *fill*         0x000000000002f2dc        0x4 60000000
 .text._strtod_r
                0x000000000002f2e0     0x15fc /opt/ps3dev/ppu/lib/gcc/powerpc64-ps3-elf/4.7.0/../../../../powerpc64-ps3-elf/lib/libc.a(lib_a-strtod.o)
                0x000000000002f2e0                ._strtod_r
 *fill*         0x00000000000308dc        0x4 60000000
 .text.strtod   0x00000000000308e0       0x50 /opt/ps3dev/ppu/lib/gcc/powerpc64-ps3-elf/4.7.0/../../../../powerpc64-ps3-elf/lib/libc.a(lib_a-strtod.o)
                0x00000000000308e0                .strtod
 .text.strtof   0x0000000000030930       0x98 /opt/ps3dev/ppu/lib/gcc/powerpc64-ps3-elf/4.7.0/../../../../powerpc64-ps3-elf/lib/libc.a(lib_a-strtod.o)
                0x0000000000030930                .strtof
 .text          0x00000000000309c8        0x0 /opt/ps3dev/ppu/lib/gcc/powerpc64-ps3-elf/4.7.0/../../../../powerpc64-ps3-elf/lib/libc.a(lib_a-strtoll_r.o)
 .text._strtoll_r
                0x00000000000309c8      0x264 /opt/ps3dev/ppu/lib/gcc/powerpc64-ps3-elf/4.7.0/../../../../powerpc64-ps3-elf/lib/libc.a(lib_a-strtoll_r.o)
                0x00000000000309c8                ._strtoll_r
 .text          0x0000000000030c2c        0x0 /opt/ps3dev/ppu/lib/gcc/powerpc64-ps3-elf/4.7.0/../../../../powerpc64-ps3-elf/lib/libc.a(lib_a-strtol.o)
 *fill*         0x0000000000030c2c        0x4 60000000
 .text._strtol_r
                0x0000000000030c30      0x264 /opt/ps3dev/ppu/lib/gcc/powerpc64-ps3-elf/4.7.0/../../../../powerpc64-ps3-elf/lib/libc.a(lib_a-strtol.o)
                0x0000000000030c30                ._strtol_r
 *fill*         0x0000000000030e94        0x4 60000000
 .text.strtol   0x0000000000030e98       0x60 /opt/ps3dev/ppu/lib/gcc/powerpc64-ps3-elf/4.7.0/../../../../powerpc64-ps3-elf/lib/libc.a(lib_a-strtol.o)
                0x0000000000030e98                .strtol
 .text          0x0000000000030ef8        0x0 /opt/ps3dev/ppu/lib/gcc/powerpc64-ps3-elf/4.7.0/../../../../powerpc64-ps3-elf/lib/libc.a(lib_a-strtoull_r.o)
 .text._strtoull_r
                0x0000000000030ef8      0x260 /opt/ps3dev/ppu/lib/gcc/powerpc64-ps3-elf/4.7.0/../../../../powerpc64-ps3-elf/lib/libc.a(lib_a-strtoull_r.o)
                0x0000000000030ef8                ._strtoull_r
 .text          0x0000000000031158        0x0 /opt/ps3dev/ppu/lib/gcc/powerpc64-ps3-elf/4.7.0/../../../../powerpc64-ps3-elf/lib/libc.a(lib_a-strtoul.o)
 .text._strtoul_r
                0x0000000000031158      0x260 /opt/ps3dev/ppu/lib/gcc/powerpc64-ps3-elf/4.7.0/../../../../powerpc64-ps3-elf/lib/libc.a(lib_a-strtoul.o)
                0x0000000000031158                ._strtoul_r
 .text.strtoul  0x00000000000313b8       0x60 /opt/ps3dev/ppu/lib/gcc/powerpc64-ps3-elf/4.7.0/../../../../powerpc64-ps3-elf/lib/libc.a(lib_a-strtoul.o)
                0x00000000000313b8                .strtoul
 .text          0x0000000000031418        0x0 /opt/ps3dev/ppu/lib/gcc/powerpc64-ps3-elf/4.7.0/../../../../powerpc64-ps3-elf/lib/libc.a(lib_a-svfiscanf.o)
 .text._sungetc_r
                0x0000000000031418      0x140 /opt/ps3dev/ppu/lib/gcc/powerpc64-ps3-elf/4.7.0/../../../../powerpc64-ps3-elf/lib/libc.a(lib_a-svfiscanf.o)
                0x0000000000031418                ._sungetc_r
 .text.__ssrefill_r
                0x0000000000031558       0xa0 /opt/ps3dev/ppu/lib/gcc/powerpc64-ps3-elf/4.7.0/../../../../powerpc64-ps3-elf/lib/libc.a(lib_a-svfiscanf.o)
                0x0000000000031558                .__ssrefill_r
 .text._sfread_r
                0x00000000000315f8      0x190 /opt/ps3dev/ppu/lib/gcc/powerpc64-ps3-elf/4.7.0/../../../../powerpc64-ps3-elf/lib/libc.a(lib_a-svfiscanf.o)
                0x00000000000315f8                ._sfread_r
 .text.__ssvfiscanf_r
                0x0000000000031788     0x115c /opt/ps3dev/ppu/lib/gcc/powerpc64-ps3-elf/4.7.0/../../../../powerpc64-ps3-elf/lib/libc.a(lib_a-svfiscanf.o)
                0x0000000000031788                .__ssvfiscanf_r
 .text          0x00000000000328e4        0x0 /opt/ps3dev/ppu/lib/gcc/powerpc64-ps3-elf/4.7.0/../../../../powerpc64-ps3-elf/lib/libc.a(lib_a-ungetc.o)
 *fill*         0x00000000000328e4        0x4 60000000
 .text.__submore
                0x00000000000328e8      0x124 /opt/ps3dev/ppu/lib/gcc/powerpc64-ps3-elf/4.7.0/../../../../powerpc64-ps3-elf/lib/libc.a(lib_a-ungetc.o)
                0x00000000000328e8                .__submore
 *fill*         0x0000000000032a0c        0x4 60000000
 .text._ungetc_r
                0x0000000000032a10      0x310 /opt/ps3dev/ppu/lib/gcc/powerpc64-ps3-elf/4.7.0/../../../../powerpc64-ps3-elf/lib/libc.a(lib_a-ungetc.o)
                0x0000000000032a10                ._ungetc_r
 .text.ungetc   0x0000000000032d20       0x50 /opt/ps3dev/ppu/lib/gcc/powerpc64-ps3-elf/4.7.0/../../../../powerpc64-ps3-elf/lib/libc.a(lib_a-ungetc.o)
                0x0000000000032d20                .ungetc
 .text          0x0000000000032d70        0x0 /opt/ps3dev/ppu/lib/gcc/powerpc64-ps3-elf/4.7.0/../../../../powerpc64-ps3-elf/lib/libc.a(lib_a-fflush.o)
 .text.__sflush_r
                0x0000000000032d70      0x360 /opt/ps3dev/ppu/lib/gcc/powerpc64-ps3-elf/4.7.0/../../../../powerpc64-ps3-elf/lib/libc.a(lib_a-fflush.o)
                0x0000000000032d70                .__sflush_r
 .text._fflush_r
                0x00000000000330d0      0x120 /opt/ps3dev/ppu/lib/gcc/powerpc64-ps3-elf/4.7.0/../../../../powerpc64-ps3-elf/lib/libc.a(lib_a-fflush.o)
                0x00000000000330d0                ._fflush_r
 .text.fflush   0x00000000000331f0       0x74 /opt/ps3dev/ppu/lib/gcc/powerpc64-ps3-elf/4.7.0/../../../../powerpc64-ps3-elf/lib/libc.a(lib_a-fflush.o)
                0x00000000000331f0                .fflush
 .text          0x0000000000033264        0x0 /opt/ps3dev/ppu/lib/gcc/powerpc64-ps3-elf/4.7.0/../../../../powerpc64-ps3-elf/lib/libc.a(lib_a-findfp.o)
 *fill*         0x0000000000033264        0x4 60000000
 .text._cleanup_r
                0x0000000000033268       0x34 /opt/ps3dev/ppu/lib/gcc/powerpc64-ps3-elf/4.7.0/../../../../powerpc64-ps3-elf/lib/libc.a(lib_a-findfp.o)
                0x0000000000033268                ._cleanup_r
 *fill*         0x000000000003329c        0x4 60000000
 .text.__fp_unlock
                0x00000000000332a0       0x58 /opt/ps3dev/ppu/lib/gcc/powerpc64-ps3-elf/4.7.0/../../../../powerpc64-ps3-elf/lib/libc.a(lib_a-findfp.o)
 .text.__fp_lock
                0x00000000000332f8       0x58 /opt/ps3dev/ppu/lib/gcc/powerpc64-ps3-elf/4.7.0/../../../../powerpc64-ps3-elf/lib/libc.a(lib_a-findfp.o)
 .text.std.isra.0
                0x0000000000033350       0xa0 /opt/ps3dev/ppu/lib/gcc/powerpc64-ps3-elf/4.7.0/../../../../powerpc64-ps3-elf/lib/libc.a(lib_a-findfp.o)
 .text.__sfmoreglue
                0x00000000000333f0       0x94 /opt/ps3dev/ppu/lib/gcc/powerpc64-ps3-elf/4.7.0/../../../../powerpc64-ps3-elf/lib/libc.a(lib_a-findfp.o)
                0x00000000000333f0                .__sfmoreglue
 *fill*         0x0000000000033484        0x4 60000000
 .text._cleanup
                0x0000000000033488       0x18 /opt/ps3dev/ppu/lib/gcc/powerpc64-ps3-elf/4.7.0/../../../../powerpc64-ps3-elf/lib/libc.a(lib_a-findfp.o)
                0x0000000000033488                ._cleanup
 .text.__sfp_lock_acquire
                0x00000000000334a0       0x34 /opt/ps3dev/ppu/lib/gcc/powerpc64-ps3-elf/4.7.0/../../../../powerpc64-ps3-elf/lib/libc.a(lib_a-findfp.o)
                0x00000000000334a0                .__sfp_lock_acquire
 *fill*         0x00000000000334d4        0x4 60000000
 .text.__sfp_lock_release
                0x00000000000334d8       0x34 /opt/ps3dev/ppu/lib/gcc/powerpc64-ps3-elf/4.7.0/../../../../powerpc64-ps3-elf/lib/libc.a(lib_a-findfp.o)
                0x00000000000334d8                .__sfp_lock_release
 *fill*         0x000000000003350c        0x4 60000000
 .text.__sinit_lock_acquire
                0x0000000000033510       0x34 /opt/ps3dev/ppu/lib/gcc/powerpc64-ps3-elf/4.7.0/../../../../powerpc64-ps3-elf/lib/libc.a(lib_a-findfp.o)
                0x0000000000033510                .__sinit_lock_acquire
 *fill*         0x0000000000033544        0x4 60000000
 .text.__sinit_lock_release
                0x0000000000033548       0x34 /opt/ps3dev/ppu/lib/gcc/powerpc64-ps3-elf/4.7.0/../../../../powerpc64-ps3-elf/lib/libc.a(lib_a-findfp.o)
                0x0000000000033548                .__sinit_lock_release
 *fill*         0x000000000003357c        0x4 60000000
 .text.__sinit  0x0000000000033580       0x9c /opt/ps3dev/ppu/lib/gcc/powerpc64-ps3-elf/4.7.0/../../../../powerpc64-ps3-elf/lib/libc.a(lib_a-findfp.o)
                0x0000000000033580                .__sinit
 *fill*         0x000000000003361c        0x4 60000000
 .text.__sfp    0x0000000000033620      0x16c /opt/ps3dev/ppu/lib/gcc/powerpc64-ps3-elf/4.7.0/../../../../powerpc64-ps3-elf/lib/libc.a(lib_a-findfp.o)
                0x0000000000033620                .__sfp
 *fill*         0x000000000003378c        0x4 60000000
 .text.__fp_lock_all
                0x0000000000033790       0x40 /opt/ps3dev/ppu/lib/gcc/powerpc64-ps3-elf/4.7.0/../../../../powerpc64-ps3-elf/lib/libc.a(lib_a-findfp.o)
                0x0000000000033790                .__fp_lock_all
 .text.__fp_unlock_all
                0x00000000000337d0       0x3c /opt/ps3dev/ppu/lib/gcc/powerpc64-ps3-elf/4.7.0/../../../../powerpc64-ps3-elf/lib/libc.a(lib_a-findfp.o)
                0x00000000000337d0                .__fp_unlock_all
 .text          0x000000000003380c        0x0 /opt/ps3dev/ppu/lib/gcc/powerpc64-ps3-elf/4.7.0/../../../../powerpc64-ps3-elf/lib/libc.a(lib_a-fwalk.o)
 *fill*         0x000000000003380c        0x4 60000000
 .text._fwalk   0x0000000000033810      0x120 /opt/ps3dev/ppu/lib/gcc/powerpc64-ps3-elf/4.7.0/../../../../powerpc64-ps3-elf/lib/libc.a(lib_a-fwalk.o)
                0x0000000000033810                ._fwalk
 .text._fwalk_reent
                0x0000000000033930      0x130 /opt/ps3dev/ppu/lib/gcc/powerpc64-ps3-elf/4.7.0/../../../../powerpc64-ps3-elf/lib/libc.a(lib_a-fwalk.o)
                0x0000000000033930                ._fwalk_reent
 .text          0x0000000000033a60        0x0 /opt/ps3dev/ppu/lib/gcc/powerpc64-ps3-elf/4.7.0/../../../../powerpc64-ps3-elf/lib/libc.a(lib_a-gdtoa-gethex.o)
 .text.rshift   0x0000000000033a60      0x158 /opt/ps3dev/ppu/lib/gcc/powerpc64-ps3-elf/4.7.0/../../../../powerpc64-ps3-elf/lib/libc.a(lib_a-gdtoa-gethex.o)
 .text.__hexdig_init
                0x0000000000033bb8       0x88 /opt/ps3dev/ppu/lib/gcc/powerpc64-ps3-elf/4.7.0/../../../../powerpc64-ps3-elf/lib/libc.a(lib_a-gdtoa-gethex.o)
                0x0000000000033bb8                .__hexdig_init
 .text.__gethex
                0x0000000000033c40      0x954 /opt/ps3dev/ppu/lib/gcc/powerpc64-ps3-elf/4.7.0/../../../../powerpc64-ps3-elf/lib/libc.a(lib_a-gdtoa-gethex.o)
                0x0000000000033c40                .__gethex
 .text          0x0000000000034594        0x0 /opt/ps3dev/ppu/lib/gcc/powerpc64-ps3-elf/4.7.0/../../../../powerpc64-ps3-elf/lib/libc.a(lib_a-gdtoa-hexnan.o)
 *fill*         0x0000000000034594        0x4 60000000
 .text.__hexnan
                0x0000000000034598      0x374 /opt/ps3dev/ppu/lib/gcc/powerpc64-ps3-elf/4.7.0/../../../../powerpc64-ps3-elf/lib/libc.a(lib_a-gdtoa-hexnan.o)
                0x0000000000034598                .__hexnan
 .text          0x000000000003490c        0x0 /opt/ps3dev/ppu/lib/gcc/powerpc64-ps3-elf/4.7.0/../../../../powerpc64-ps3-elf/lib/libc.a(lib_a-strncmp.o)
 *fill*         0x000000000003490c        0x4 60000000
 .text.strncmp  0x0000000000034910      0x168 /opt/ps3dev/ppu/lib/gcc/powerpc64-ps3-elf/4.7.0/../../../../powerpc64-ps3-elf/lib/libc.a(lib_a-strncmp.o)
                0x0000000000034910                .strncmp
 .text          0x0000000000034a78        0x0 /opt/ps3dev/ppu/lib/gcc/powerpc64-ps3-elf/4.7.0/../../../../powerpc64-ps3-elf/lib/libc.a(lib_a-fclose.o)
 .text._fclose_r
                0x0000000000034a78      0x20c /opt/ps3dev/ppu/lib/gcc/powerpc64-ps3-elf/4.7.0/../../../../powerpc64-ps3-elf/lib/libc.a(lib_a-fclose.o)
                0x0000000000034a78                ._fclose_r
 *fill*         0x0000000000034c84        0x4 60000000
 .text.fclose   0x0000000000034c88       0x40 /opt/ps3dev/ppu/lib/gcc/powerpc64-ps3-elf/4.7.0/../../../../powerpc64-ps3-elf/lib/libc.a(lib_a-fclose.o)
                0x0000000000034c88                .fclose
 .text          0x0000000000034cc8        0x0 /opt/ps3dev/ppu/lib/gcc/powerpc64-ps3-elf/4.7.0/../../../../powerpc64-ps3-elf/lib/libsysbase.a(close.o)
 .text._close_r
                0x0000000000034cc8       0x68 /opt/ps3dev/ppu/lib/gcc/powerpc64-ps3-elf/4.7.0/../../../../powerpc64-ps3-elf/lib/libsysbase.a(close.o)
                0x0000000000034cc8                ._close_r
 .text          0x0000000000034d30        0x0 /opt/ps3dev/ppu/lib/gcc/powerpc64-ps3-elf/4.7.0/../../../../powerpc64-ps3-elf/lib/libsysbase.a(lseek.o)
 .text._lseek_r
                0x0000000000034d30       0x68 /opt/ps3dev/ppu/lib/gcc/powerpc64-ps3-elf/4.7.0/../../../../powerpc64-ps3-elf/lib/libsysbase.a(lseek.o)
                0x0000000000034d30                ._lseek_r
 .text          0x0000000000034d98        0x0 /opt/ps3dev/ppu/lib/gcc/powerpc64-ps3-elf/4.7.0/../../../../powerpc64-ps3-elf/lib/libsysbase.a(read.o)
 .text._read_r  0x0000000000034d98       0x68 /opt/ps3dev/ppu/lib/gcc/powerpc64-ps3-elf/4.7.0/../../../../powerpc64-ps3-elf/lib/libsysbase.a(read.o)
                0x0000000000034d98                ._read_r
 .text          0x0000000000034e00        0x0 /opt/ps3dev/ppu/lib/gcc/powerpc64-ps3-elf/4.7.0/../../../../powerpc64-ps3-elf/lib/libsysbase.a(write.o)
 .text._write_r
                0x0000000000034e00       0x68 /opt/ps3dev/ppu/lib/gcc/powerpc64-ps3-elf/4.7.0/../../../../powerpc64-ps3-elf/lib/libsysbase.a(write.o)
                0x0000000000034e00                ._write_r
 .text          0x0000000000034e68        0x0 /opt/ps3dev/ppu/lib/gcc/powerpc64-ps3-elf/4.7.0/crtend.o
 .text.__do_global_ctors_aux
                0x0000000000034e68       0x5c /opt/ps3dev/ppu/lib/gcc/powerpc64-ps3-elf/4.7.0/crtend.o
 .text          0x0000000000034ec4        0x0 /opt/ps3dev/ppu/lib/gcc/powerpc64-ps3-elf/4.7.0/../../../../powerpc64-ps3-elf/lib/lv2-crtn.o
 *(.text.*personality*)
 *(.gnu.warning)
 *(.sfpr .glink)
 .sfpr          0x0000000000000000        0x0 linker stubs
 *fill*         0x0000000000034ec4        0x0 60000000
 .glink         0x0000000000000000        0x0 linker stubs

.fini           0x0000000000034ec4       0x2c
 *(.fini)
 .fini          0x0000000000034ec4        0xc /opt/ps3dev/ppu/lib/gcc/powerpc64-ps3-elf/4.7.0/../../../../powerpc64-ps3-elf/lib/lv2-crti.o
                0x0000000000034ec4                ._fini
 .fini          0x0000000000034ed0        0x8 /opt/ps3dev/ppu/lib/gcc/powerpc64-ps3-elf/4.7.0/crtbegin.o
 .fini          0x0000000000034ed8        0x8 /opt/ps3dev/psl1ght/ppu/lib/librt.a(sbrk.o)
 .fini          0x0000000000034ee0       0x10 /opt/ps3dev/ppu/lib/gcc/powerpc64-ps3-elf/4.7.0/../../../../powerpc64-ps3-elf/lib/lv2-crtn.o

.sceStub.text   0x0000000000034ef0     0x5ec0
 *(.sceStub.text)
 .sceStub.text  0x0000000000034ef0     0x1640 /opt/ps3dev/psl1ght/ppu/lib/libgcm_sys.a(sprx.o)
                0x0000000000034ef0                .gcmInitBody
                0x0000000000034ef0                __gcmInitBody
                0x0000000000034f30                .gcmSetDisplayBuffer
                0x0000000000034f30                __gcmSetDisplayBuffer
                0x0000000000034f70                .gcmGetControlRegister
                0x0000000000034f70                __gcmGetControlRegister
                0x0000000000034fb0                __gcmAddressToOffset
                0x0000000000034fb0                .gcmAddressToOffset
                0x0000000000034ff0                .gcmGetConfiguration
                0x0000000000034ff0                __gcmGetConfiguration
                0x0000000000035030                __gcmGetCurrentField
                0x0000000000035070                .gcmSetFlipMode
                0x0000000000035070                __gcmSetFlipMode
                0x00000000000350b0                .gcmGetFlipStatus
                0x00000000000350b0                __gcmGetFlipStatus
                0x00000000000350f0                __gcmGetLastFlipTime
                0x0000000000035130                __gcmGetVBlankCount
                0x0000000000035170                __gcmSetWaitFlip
                0x0000000000035170                .gcmSetWaitFlip
                0x00000000000351b0                __gcmSetFlipStatus
                0x00000000000351f0                __gcmResetFlipStatus
                0x00000000000351f0                .gcmResetFlipStatus
                0x0000000000035230                __gcmSetFlip
                0x0000000000035230                .gcmSetFlip
                0x0000000000035270                __gcmSetFlipImmediate
                0x00000000000352b0                __gcmFunc15
                0x00000000000352f0                __gcmFunc3
                0x0000000000035330                __gcmFunc1
                0x0000000000035370                __gcmFunc2
                0x00000000000353b0                __gcmFunc4
                0x00000000000353f0                __gcmFunc12
                0x0000000000035430                __gcmFunc13
                0x0000000000035470                __gcmGetReport
                0x00000000000354b0                __gcmSetTile
                0x00000000000354f0                __gcmBindTile
                0x0000000000035530                __gcmUnbindTile
                0x0000000000035570                __gcmSetZcull
                0x00000000000355b0                __gcmBindZcull
                0x00000000000355f0                __gcmUnbindZcull
                0x0000000000035630                __gcmGetTimeStamp
                0x0000000000035670                __gcmSetVBlankFrequency
                0x00000000000356b0                __gcmSetSecondVFrequency
                0x00000000000356f0                __gcmSetDebugOutputLevel
                0x0000000000035730                __gcmGetLabelAddress
                0x0000000000035770                __gcmSetVBlankHandlerEx
                0x00000000000357b0                __gcmSetFlipHandlerEx
                0x00000000000357f0                __gcmSetSecondVHandlerEx
                0x0000000000035830                __gcmSetGraphicsHandlerEx
                0x0000000000035870                __gcmTerminate
                0x00000000000358b0                __gcmMapMainMemory
                0x00000000000358f0                __gcmMapEaIoAddress
                0x0000000000035930                __gcmUnmapEaIoAddress
                0x0000000000035970                __gcmUnmapIoAddress
                0x00000000000359b0                __gcmIoOffsetToAddress
                0x00000000000359f0                __gcmSetDefaultCommandBuffer
                0x0000000000035a30                __gcmSetTileInfo
                0x0000000000035a70                __gcmGetTiledPitchSize
                0x0000000000035ab0                __gcmSetInvalidateTile
                0x0000000000035af0                __gcmSetUserCommandEx
                0x0000000000035b30                __gcmSetUserHandlerEx
                0x0000000000035b70                __gcmSetQueueHandlerEx
                0x0000000000035bb0                __gcmSetPrepareFlip
                0x0000000000035bf0                __gcmGetOffsetTable
                0x0000000000035c30                __gcmGetLastSecondVTime
                0x0000000000035c70                __gcmSortRemapEaIoAddress
                0x0000000000035cb0                __gcmGetDisplayBufferByFlipIndex
                0x0000000000035cf0                __gcmGcmGetDefaultCommandWordSize
                0x0000000000035d30                __gcmGcmGetDefaultSegmentWordSize
                0x0000000000035d70                __gcmSetDefaultCommandBufferAndSegmentWordSize
                0x0000000000035db0                __gcmGetDisplayInfo
                0x0000000000035df0                __gcmDumpGraphicsError
                0x0000000000035e30                __gcmFunc38
                0x0000000000035e70                __gcmGetCurrentDisplayBufferId
                0x0000000000035eb0                __gcmGetDefaultCommandWordSize
                0x0000000000035ef0                __gcmGetDefaultSegmentWordSize
                0x0000000000035f30                __gcmGetMaxIoMapSize
                0x0000000000035f70                __gcmGetNotifyDataAddress
                0x0000000000035fb0                __gcmGetReportDataAddress
                0x0000000000035ff0                __gcmGetReportDataAddressLocation
                0x0000000000036030                __gcmGetReportDataLocation
                0x0000000000036070                __gcmGetTileInfo
                0x00000000000360b0                __gcmGetTimeStampLocation
                0x00000000000360f0                __gcmGetZcullInfo
                0x0000000000036130                __gcmInitCursor
                0x0000000000036170                __gcmInitDefaultFifoMode
                0x00000000000361b0                __gcmInitSystemMode
                0x00000000000361f0                __gcmMapEaIoAddressWithFlags
                0x0000000000036230                __gcmMapLocalMemory
                0x0000000000036270                __gcmReserveIoMapSize
                0x00000000000362b0                __gcmSetCursorDisable
                0x00000000000362f0                __gcmSetCursorEnable
                0x0000000000036330                __gcmSetCursorImageOffset
                0x0000000000036370                __gcmSetCursorPosition
                0x00000000000363b0                __gcmSetDefaultFifoSize
                0x00000000000363f0                __gcmSetFlipCommand
                0x0000000000036430                __gcmSetFlipCommandWithWaitLabel
                0x0000000000036470                __gcmSysGetLastVBlankTime
                0x00000000000364b0                __gcmUnreserveIoMapSize
                0x00000000000364f0                __gcmUpdateCursor
 .sceStub.text  0x0000000000036530     0x1400 /opt/ps3dev/psl1ght/ppu/lib/libsysutil.a(sprx.o)
                0x0000000000036530                .videoGetResolution
                0x0000000000036530                __videoGetResolution
                0x0000000000036570                .videoConfigure
                0x0000000000036570                __videoConfigure
                0x00000000000365b0                .videoGetState
                0x00000000000365b0                __videoGetState
                0x00000000000365f0                __videoGetDeviceInfo
                0x0000000000036630                __videoGetConfiguration
                0x0000000000036670                __videoGetResolutionAvailability
                0x00000000000366b0                __videoDebugSetMonitorType
                0x00000000000366f0                __videoRegisterCallbackEx
                0x0000000000036730                __videoUnregisterCallback
                0x0000000000036770                __videoGetNumberOfDevice
                0x00000000000367b0                __videoGetConvertCursorColorInfo
                0x00000000000367f0                __msgDialogClose
                0x0000000000036830                .msgDialogOpenErrorCodeEx
                0x0000000000036830                __msgDialogOpenErrorCodeEx
                0x0000000000036870                .msgDialogOpenEx
                0x0000000000036870                __msgDialogOpenEx
                0x00000000000368b0                __msgDialogProgressBarInc
                0x00000000000368f0                __msgDialogAbort
                0x0000000000036930                .msgDialogOpen2Ex
                0x0000000000036930                __msgDialogOpen2Ex
                0x0000000000036970                __msgDialogProgressBarReset
                0x00000000000369b0                __msgDialogProgressBarSetMsg
                0x00000000000369f0                __oskGetInputText
                0x0000000000036a30                __oskSetInitialInputDevice
                0x0000000000036a70                __oskGetSize
                0x0000000000036ab0                __oskUnloadAsync
                0x0000000000036af0                __oskDisableDimmer
                0x0000000000036b30                __oskSetKeyLayoutOption
                0x0000000000036b70                __oskAbort
                0x0000000000036bb0                __oskSetDeviceMask
                0x0000000000036bf0                __oskSetSeparateWindowOption
                0x0000000000036c30                __oskAddSupportLanguage
                0x0000000000036c70                __oskLoadAsync
                0x0000000000036cb0                __oskSetInitialKeyLayout
                0x0000000000036cf0                __oskSetLayoutMode
                0x0000000000036d30                __sysUtilRegisterCallbackEx
                0x0000000000036d30                .sysUtilRegisterCallbackEx
                0x0000000000036d70                __sysUtilCheckCallback
                0x0000000000036d70                .sysUtilCheckCallback
                0x0000000000036db0                __sysUtilUnregisterCallback
                0x0000000000036db0                .sysUtilUnregisterCallback
                0x0000000000036df0                .sysSaveListLoad2Ex
                0x0000000000036df0                __sysSaveListLoad2Ex
                0x0000000000036e30                __sysSaveListSave2Ex
                0x0000000000036e30                .sysSaveListSave2Ex
                0x0000000000036e70                __sysSaveListAutoLoadEx
                0x0000000000036e70                .sysSaveListAutoLoadEx
                0x0000000000036eb0                __sysSaveListAutoSaveEx
                0x0000000000036eb0                .sysSaveListAutoSaveEx
                0x0000000000036ef0                .sysSaveFixedLoad2Ex
                0x0000000000036ef0                __sysSaveFixedLoad2Ex
                0x0000000000036f30                .sysSaveFixedSave2Ex
                0x0000000000036f30                __sysSaveFixedSave2Ex
                0x0000000000036f70                .sysSaveAutoLoad2Ex
                0x0000000000036f70                __sysSaveAutoLoad2Ex
                0x0000000000036fb0                __sysSaveAutoSave2Ex
                0x0000000000036fb0                .sysSaveAutoSave2Ex
                0x0000000000036ff0                __sysSaveDelete2
                0x0000000000037030                __sysGameDataCheck
                0x0000000000037070                __sysGameBootCheck
                0x00000000000370b0                __sysGamePatchCheck
                0x00000000000370f0                __sysGameCreateGameData
                0x0000000000037130                __sysGameGetParamInt
                0x0000000000037170                __sysGameGetParamString
                0x00000000000371b0                __sysGameGetSizeKB
                0x00000000000371f0                __sysGameSetParamString
                0x0000000000037230                __sysGameGetDiscContentInfoUpdatePath
                0x0000000000037270                __sysGameContentPermit
                0x00000000000372b0                __sysGameContentErrorDialog
                0x00000000000372f0                __sysGameThemeInstall
                0x0000000000037330                .sysGameThemeInstallFromBufferEx
                0x0000000000037330                __sysGameThemeInstallFromBufferEx
                0x0000000000037370                __sysGameGetLocalWebContentPath
                0x00000000000373b0                __sysGameDeleteGameData
                0x00000000000373f0                __sysGameRegisterDiscChangeCallbackEx
                0x0000000000037430                __sysGameUnregisterDiscChangeCallback
                0x0000000000037470                .sysDiscRegisterDiscChangeCallbackEx
                0x0000000000037470                __sysDiscRegisterDiscChangeCallbackEx
                0x00000000000374b0                __sysDiscUnregisterDiscChangeCallback
                0x00000000000374f0                __sysTrophyInit
                0x0000000000037530                __sysTrophyAbortHandle
                0x0000000000037570                __sysTrophyCreateContext
                0x00000000000375b0                __sysTrophyCreateHandle
                0x00000000000375f0                __sysTrophyDestroyContext
                0x0000000000037630                __sysTrophyDestroyHandle
                0x0000000000037670                __sysTrophyGetGameIcon
                0x00000000000376b0                __sysTrophyGetGameInfo
                0x00000000000376f0                __sysTrophyGetGameProgress
                0x0000000000037730                __sysTrophyGetRequiredDiskSpace
                0x0000000000037770                __sysTrophyGetTrophyIcon
                0x00000000000377b0                __sysTrophyGetTrophyInfo
                0x00000000000377f0                __sysTrophyGetTrophyUnlockState
                0x0000000000037830                __sysTrophyRegisterContextEx
                0x0000000000037870                __sysTrophySetSoundLevel
                0x00000000000378b0                __sysTrophyTerm
                0x00000000000378f0                __sysTrophyUnlockTrophy
 .sceStub.text  0x0000000000037930      0xbc0 /opt/ps3dev/psl1ght/ppu/lib/libio.a(sprx.o)
                0x0000000000037930                __sys_config_start
                0x0000000000037970                __sys_config_stop
                0x00000000000379b0                __sys_config_add_service_listener
                0x00000000000379f0                __sys_config_remove_service_listener
                0x0000000000037a30                __sys_config_register_service
                0x0000000000037a70                __sys_config_unregister_service
                0x0000000000037ab0                __ioPadInit
                0x0000000000037ab0                .ioPadInit
                0x0000000000037af0                .ioPadEnd
                0x0000000000037af0                __ioPadEnd
                0x0000000000037b30                __ioPadClearBuf
                0x0000000000037b70                __ioPadInfoPressMode
                0x0000000000037bb0                __ioPadLddRegisterController
                0x0000000000037bf0                __ioPadGetInfo
                0x0000000000037c30                __ioPadGetRawData
                0x0000000000037c70                __ioPadGetDataExtra
                0x0000000000037cb0                __ioPadInfoSensorMode
                0x0000000000037cf0                __ioPadGetData
                0x0000000000037cf0                .ioPadGetData
                0x0000000000037d30                __ioPadLddGetPortNo
                0x0000000000037d70                __ioPadLddDataInsert
                0x0000000000037db0                __ioPadSetSensorMode
                0x0000000000037df0                __ioPadGetCapabilityInfo
                0x0000000000037e30                __ioPadLddUnregisterController
                0x0000000000037e70                __ioPadSetActDirect
                0x0000000000037eb0                __ioPadSetPressMode
                0x0000000000037ef0                __ioPadPeriphGetInfo
                0x0000000000037f30                __ioPadSetPortSetting
                0x0000000000037f70                __ioPadPeriphGetData
                0x0000000000037fb0                .ioPadGetInfo2
                0x0000000000037fb0                __ioPadGetInfo2
                0x0000000000037ff0                __ioMouseInit
                0x0000000000038030                __ioMouseEnd
                0x0000000000038070                __ioMouseClearBuf
                0x00000000000380b0                __ioMouseGetInfo
                0x00000000000380f0                __ioMouseGetTabletDataList
                0x0000000000038130                __ioMouseSetTabletMode
                0x0000000000038170                __ioMouseGetData
                0x00000000000381b0                __ioMouseInfoTabletMode
                0x00000000000381f0                __ioMouseGetRawData
                0x0000000000038230                __ioMouseGetDataList
                0x0000000000038270                __ioKbInit
                0x00000000000382b0                __ioKbEnd
                0x00000000000382f0                __ioKbRead
                0x0000000000038330                __ioKbSetReadMode
                0x0000000000038370                __ioKbSetCodeType
                0x00000000000383b0                __ioKbCnvRawCode
                0x00000000000383f0                __ioKbSetLEDStatus
                0x0000000000038430                __ioKbGetInfo
                0x0000000000038470                __ioKbGetConfiguration
                0x00000000000384b0                __ioKbClearBuf
 .sceStub.text  0x00000000000384f0     0x1dc0 /opt/ps3dev/psl1ght/ppu/lib/liblv2.a(sprx.o)
                0x00000000000384f0                __sysGetSystemTime
                0x00000000000384f0                .sysGetSystemTime
                0x0000000000038530                __sysGetSystemSwVersion
                0x0000000000038570                __sysGetTemperature
                0x00000000000385b0                __sysGetRandomNumber
                0x00000000000385f0                __sysGetRtcStatus
                0x0000000000038630                __sysBoardStorageRead
                0x0000000000038670                __sysBoardStorageWrite
                0x00000000000386b0                __sysProcessIsStack
                0x00000000000386f0                .sysProcessExit
                0x00000000000386f0                __sysProcessExit
                0x0000000000038730                __sysProcessExitspawn
                0x0000000000038770                __sysProcessExitSpawn2Ex
                0x00000000000387b0                __sysProcessExitSpawnWithLevel
                0x00000000000387f0                __sysProcessAtExitSpawn
                0x0000000000038830                __sysProcess_At_ExitSpawn
                0x0000000000038870                __sysPrxRegisterLibrary
                0x00000000000388b0                __sysPrxUnregisterLibrary
                0x00000000000388f0                __sysPrxStartModule
                0x0000000000038930                __sysPrxStopModule
                0x0000000000038970                __sysPrxLoadModule
                0x00000000000389b0                __sysPrxLoadModuleByFd
                0x00000000000389f0                __sysPrxLoadModuleList
                0x0000000000038a30                __sysPrxLoadModuleListOnMemcontainer
                0x0000000000038a70                __sysPrxLoadModuleOnMemcontainer
                0x0000000000038ab0                __sysPrxLoadModuleOnMemcontainerByFd
                0x0000000000038af0                __sysPrxGetModuleInfo
                0x0000000000038b30                __sysPrxGetModuleList
                0x0000000000038b70                __sysPrxGetModuleId
                0x0000000000038bb0                __sysPrxGetModuleIdByAddress
                0x0000000000038bf0                __sysPrxGetModuleIdByName
                0x0000000000038c30                __sysPrxUnloadModule
                0x0000000000038c70                __sysPrxExitSpawnWithLevel
                0x0000000000038cb0                __sysThreadCreateEx
                0x0000000000038cf0                __sysThreadExit
                0x0000000000038d30                __sysThreadGetId
                0x0000000000038d70                __sysThreadOnce
                0x0000000000038db0                __sysThreadInitialzeTLS
                0x0000000000038df0                __sysThreadRegisterAtexit
                0x0000000000038e30                __sysThreadUnregisterAtexit
                0x0000000000038e70                __sysInterruptThreadDisestablish
                0x0000000000038eb0                __sysLwMutexCreate
                0x0000000000038eb0                .sysLwMutexCreate
                0x0000000000038ef0                __sysLwMutexDestroy
                0x0000000000038ef0                .sysLwMutexDestroy
                0x0000000000038f30                .sysLwMutexLock
                0x0000000000038f30                __sysLwMutexLock
                0x0000000000038f70                .sysLwMutexTryLock
                0x0000000000038f70                __sysLwMutexTryLock
                0x0000000000038fb0                __sysLwMutexUnlock
                0x0000000000038fb0                .sysLwMutexUnlock
                0x0000000000038ff0                __sysLwCondCreate
                0x0000000000039030                __sysLwCondWait
                0x0000000000039070                __sysLwCondSignal
                0x00000000000390b0                __sysLwCondSignalTo
                0x00000000000390f0                __sysLwCondSignalAll
                0x0000000000039130                __sysLwCondDestroy
                0x0000000000039170                .sysSpinlockInitialize
                0x0000000000039170                __sysSpinlockInitialize
                0x00000000000391b0                __sysSpinlockLock
                0x00000000000391b0                .sysSpinlockLock
                0x00000000000391f0                __sysSpinlockTryLock
                0x0000000000039230                .sysSpinlockUnlock
                0x0000000000039230                __sysSpinlockUnlock
                0x0000000000039270                __sysWatchdogClear
                0x00000000000392b0                __sysWatchdogStart
                0x00000000000392f0                __sysWatchdogStop
                0x0000000000039330                __sysMalloc
                0x0000000000039370                __sysMemalign
                0x00000000000393b0                __sysMemchr
                0x00000000000393f0                __sysMemcmp
                0x0000000000039430                __sysMemcpy
                0x0000000000039470                __sysMemmove
                0x00000000000394b0                __sysMemset
                0x00000000000394f0                __sysFree
                0x0000000000039530                __sysHeapAllocHeapMemory
                0x0000000000039570                __sysHeapCreateHeap
                0x00000000000395b0                __sysHeapDeleteHeap
                0x00000000000395f0                __sysHeapFree
                0x0000000000039630                __sysHeapGetMallInfo
                0x0000000000039670                __sysHeapGetTotalFreeSize
                0x00000000000396b0                __sysHeapMalloc
                0x00000000000396f0                __sysHeapMemalign
                0x0000000000039730                __sysHeapStats
                0x0000000000039770                __sysQsort
                0x00000000000397b0                __sysMempoolCreate
                0x00000000000397f0                __sysMempoolDestroy
                0x0000000000039830                __sysMempoolGetCount
                0x0000000000039870                __sysMempoolAllocateBlock
                0x00000000000398b0                __sysMempoolTryAllocateBlock
                0x00000000000398f0                __sysMempoolFreeBlock
                0x0000000000039930                __sysMMapperFreeMemory
                0x0000000000039930                .sysMMapperFreeMemory
                0x0000000000039970                __sysMMapperMapMemory
                0x00000000000399b0                __sysMMapperUnmapMemory
                0x00000000000399b0                .sysMMapperUnmapMemory
                0x00000000000399f0                __sysMMapperAllocateMemory
                0x00000000000399f0                .sysMMapperAllocateMemory
                0x0000000000039a30                __sysMMapperAllocateMemoryFromContainer
                0x0000000000039a70                __sysStrlen
                0x0000000000039ab0                __sysStrcpy
                0x0000000000039af0                __sysStrncpy
                0x0000000000039b30                __sysStrcat
                0x0000000000039b70                __sysStrncat
                0x0000000000039bb0                __sysStrchr
                0x0000000000039bf0                __sysStrrchr
                0x0000000000039c30                __sysStrcmp
                0x0000000000039c70                __sysStrncmp
                0x0000000000039cb0                __sysStrncasecmp
                0x0000000000039cf0                __sysToLower
                0x0000000000039d30                __sysToUpper
                0x0000000000039d70                __sysSpuElfGetSegments
                0x0000000000039db0                __sysSpuElfGetInformation
                0x0000000000039df0                __sysSpuRawLoad
                0x0000000000039e30                __sysSpuRawImageLoad
                0x0000000000039e70                __sysSpuImageClose
                0x0000000000039eb0                __sysSpuImageImport
                0x0000000000039ef0                __sysSpuPrintfAttachGroup
                0x0000000000039f30                __sysSpuPrintfAttachThread
                0x0000000000039f70                __sysSpuPrintfDetachGroup
                0x0000000000039fb0                __sysSpuPrintfDetach_Tread
                0x0000000000039ff0                __sysSpuPrintfFinalize
                0x000000000003a030                __sysSpuPrintfInitialize
                0x000000000003a070                __sysConsoleGetc
                0x000000000003a0b0                __sysConsolePutc
                0x000000000003a0f0                __sysConsoleWrite
                0x000000000003a130                __sysPrintf
                0x000000000003a170                __sysSprintf
                0x000000000003a1b0                __sysSnprintf
                0x000000000003a1f0                __sysVprintf
                0x000000000003a230                __sysVsprintf
                0x000000000003a270                __sysVsnprintf
 .sceStub.text  0x000000000003a2b0      0x200 /opt/ps3dev/psl1ght/ppu/lib/libsysmodule.a(sprx.o)
                0x000000000003a2b0                __sysModuleInitialize
                0x000000000003a2f0                __sysModuleFinalize
                0x000000000003a330                __sysModuleLoad
                0x000000000003a330                .sysModuleLoad
                0x000000000003a370                .sysModuleUnload
                0x000000000003a370                __sysModuleUnload
                0x000000000003a3b0                __sysModuleIsLoaded
                0x000000000003a3f0                __sysModuleGetImagesize
                0x000000000003a430                __sysModuleFetchImage
                0x000000000003a470                __sysModuleSetMemcontainer
 .sceStub.text  0x000000000003a4b0      0x740 /opt/ps3dev/psl1ght/ppu/lib/libpngdec.a(sprx.o)
                0x000000000003a4b0                __pngDecCreate
                0x000000000003a4b0                .pngDecCreate
                0x000000000003a4f0                __pngDecDestroy
                0x000000000003a4f0                .pngDecDestroy
                0x000000000003a530                .pngDecOpen
                0x000000000003a530                __pngDecOpen
                0x000000000003a570                .pngDecClose
                0x000000000003a570                __pngDecClose
                0x000000000003a5b0                .pngDecReadHeader
                0x000000000003a5b0                __pngDecReadHeader
                0x000000000003a5f0                .pngDecDecodeData
                0x000000000003a5f0                __pngDecDecodeData
                0x000000000003a630                __pngDecSetParameter
                0x000000000003a630                .pngDecSetParameter
                0x000000000003a670                __pngDecExtCreate
                0x000000000003a6b0                __pngDecExtOpen
                0x000000000003a6f0                __pngDecExtReadHeader
                0x000000000003a730                __pngDecExtDecodeData
                0x000000000003a770                __pngDecExtSetParameter
                0x000000000003a7b0                __pngDecGetbKGD
                0x000000000003a7f0                __pngDecGetcHRM
                0x000000000003a830                __pngDecGetgAMA
                0x000000000003a870                __pngDecGethIST
                0x000000000003a8b0                __pngDecGetiCCP
                0x000000000003a8f0                __pngDecGetoFFs
                0x000000000003a930                __pngDecGetpCAL
                0x000000000003a970                __pngDecGetpHYs
                0x000000000003a9b0                __pngDecGetsBIT
                0x000000000003a9f0                __pngDecGetsCAL
                0x000000000003aa30                __pngDecGetsPLT
                0x000000000003aa70                __pngDecGetsRGB
                0x000000000003aab0                __pngDecGettIME
                0x000000000003aaf0                __pngDecGettRNS
                0x000000000003ab30                __pngDecGetPLTE
                0x000000000003ab70                __pngDecUnknownChunks
                0x000000000003abb0                __pngDecGetTextChunk
 .sceStub.text  0x000000000003abf0      0x1c0 /opt/ps3dev/psl1ght/ppu/lib/libjpgdec.a(sprx.o)
                0x000000000003abf0                .jpgDecCreate
                0x000000000003abf0                __jpgDecCreate
                0x000000000003ac30                __jpgDecDestroy
                0x000000000003ac30                .jpgDecDestroy
                0x000000000003ac70                .jpgDecOpen
                0x000000000003ac70                __jpgDecOpen
                0x000000000003acb0                __jpgDecClose
                0x000000000003acb0                .jpgDecClose
                0x000000000003acf0                .jpgDecReadHeader
                0x000000000003acf0                __jpgDecReadHeader
                0x000000000003ad30                __jpgDecDecodeData
                0x000000000003ad30                .jpgDecDecodeData
                0x000000000003ad70                .jpgDecSetParameter
                0x000000000003ad70                __jpgDecSetParameter
 *(SORT(.sceStub.text.*))
                0x000000000003adb0                PROVIDE (__etext, .)
                0x000000000003adb0                PROVIDE (_etext, .)
                0x000000000003adb0                PROVIDE (etext, .)

.eh_frame_hdr   0x000000000003adb0        0x0
 *(.eh_frame_hdr)
 .eh_frame_hdr  0x0000000000000000        0x0 /opt/ps3dev/ppu/lib/gcc/powerpc64-ps3-elf/4.7.0/../../../../powerpc64-ps3-elf/lib/lv2-crtn.o

.eh_frame       0x000000000003adb0        0x4
 *(.eh_frame)
 .eh_frame      0x000000000003adb0        0x0 linker stubs
 .eh_frame      0x000000000003adb0        0x0 /opt/ps3dev/ppu/lib/gcc/powerpc64-ps3-elf/4.7.0/crtbegin.o
 .eh_frame      0x000000000003adb0        0x4 /opt/ps3dev/ppu/lib/gcc/powerpc64-ps3-elf/4.7.0/crtend.o

.gcc_except_table
 *(.gcc_except_table .gcc_except_table.*)

.rodata.sceResident
                0x000000000003adb4       0x73
 *(.rodata.sceResident)
 .rodata.sceResident
                0x000000000003adb4        0xf /opt/ps3dev/psl1ght/ppu/lib/libgcm_sys.a(sprx.o)
 *fill*         0x000000000003adc3        0x1 00
 .rodata.sceResident
                0x000000000003adc4       0x10 /opt/ps3dev/psl1ght/ppu/lib/libsysutil.a(sprx.o)
 .rodata.sceResident
                0x000000000003add4        0xb /opt/ps3dev/psl1ght/ppu/lib/libio.a(sprx.o)
 *fill*         0x000000000003addf        0x1 00
 .rodata.sceResident
                0x000000000003ade0       0x12 /opt/ps3dev/psl1ght/ppu/lib/liblv2.a(sprx.o)
 *fill*         0x000000000003adf2        0x2 00
 .rodata.sceResident
                0x000000000003adf4       0x12 /opt/ps3dev/psl1ght/ppu/lib/libsysmodule.a(sprx.o)
 *fill*         0x000000000003ae06        0x2 00
 .rodata.sceResident
                0x000000000003ae08        0xf /opt/ps3dev/psl1ght/ppu/lib/libpngdec.a(sprx.o)
 *fill*         0x000000000003ae17        0x1 00
 .rodata.sceResident
                0x000000000003ae18        0xf /opt/ps3dev/psl1ght/ppu/lib/libjpgdec.a(sprx.o)

.rodata.sceFNID
                0x000000000003ae28      0x5ec
 *(.rodata.sceFNID .rodata.sceFNID.*)
 .rodata.sceFNID
                0x000000000003ae28      0x164 /opt/ps3dev/psl1ght/ppu/lib/libgcm_sys.a(sprx.o)
                0x000000000003ae28                gcmInitBody_fnid
                0x000000000003ae28                cellGcmSys
                0x000000000003ae2c                gcmSetDisplayBuffer_fnid
                0x000000000003ae30                gcmGetControlRegister_fnid
                0x000000000003ae34                gcmAddressToOffset_fnid
                0x000000000003ae38                gcmGetConfiguration_fnid
                0x000000000003ae3c                gcmGetCurrentField_fnid
                0x000000000003ae40                gcmSetFlipMode_fnid
                0x000000000003ae44                gcmGetFlipStatus_fnid
                0x000000000003ae48                gcmGetLastFlipTime_fnid
                0x000000000003ae4c                gcmGetVBlankCount_fnid
                0x000000000003ae50                gcmSetWaitFlip_fnid
                0x000000000003ae54                gcmSetFlipStatus_fnid
                0x000000000003ae58                gcmResetFlipStatus_fnid
                0x000000000003ae5c                gcmSetFlip_fnid
                0x000000000003ae60                gcmSetFlipImmediate_fnid
                0x000000000003ae64                gcmFunc15_fnid
                0x000000000003ae68                gcmFunc3_fnid
                0x000000000003ae6c                gcmFunc1_fnid
                0x000000000003ae70                gcmFunc2_fnid
                0x000000000003ae74                gcmFunc4_fnid
                0x000000000003ae78                gcmFunc12_fnid
                0x000000000003ae7c                gcmFunc13_fnid
                0x000000000003ae80                gcmGetReport_fnid
                0x000000000003ae84                gcmSetTile_fnid
                0x000000000003ae88                gcmBindTile_fnid
                0x000000000003ae8c                gcmUnbindTile_fnid
                0x000000000003ae90                gcmSetZcull_fnid
                0x000000000003ae94                gcmBindZcull_fnid
                0x000000000003ae98                gcmUnbindZcull_fnid
                0x000000000003ae9c                gcmGetTimeStamp_fnid
                0x000000000003aea0                gcmSetVBlankFrequency_fnid
                0x000000000003aea4                gcmSetSecondVFrequency_fnid
                0x000000000003aea8                gcmSetDebugOutputLevel_fnid
                0x000000000003aeac                gcmGetLabelAddress_fnid
                0x000000000003aeb0                gcmSetVBlankHandlerEx_fnid
                0x000000000003aeb4                gcmSetFlipHandlerEx_fnid
                0x000000000003aeb8                gcmSetSecondVHandlerEx_fnid
                0x000000000003aebc                gcmSetGraphicsHandlerEx_fnid
                0x000000000003aec0                gcmTerminate_fnid
                0x000000000003aec4                gcmMapMainMemory_fnid
                0x000000000003aec8                gcmMapEaIoAddress_fnid
                0x000000000003aecc                gcmUnmapEaIoAddress_fnid
                0x000000000003aed0                gcmUnmapIoAddress_fnid
                0x000000000003aed4                gcmIoOffsetToAddress_fnid
                0x000000000003aed8                gcmSetDefaultCommandBuffer_fnid
                0x000000000003aedc                gcmSetTileInfo_fnid
                0x000000000003aee0                gcmGetTiledPitchSize_fnid
                0x000000000003aee4                gcmSetInvalidateTile_fnid
                0x000000000003aee8                gcmSetUserCommandEx_fnid
                0x000000000003aeec                gcmSetUserHandlerEx_fnid
                0x000000000003aef0                gcmSetQueueHandlerEx_fnid
                0x000000000003aef4                gcmSetPrepareFlip_fnid
                0x000000000003aef8                gcmGetOffsetTable_fnid
                0x000000000003aefc                gcmGetLastSecondVTime_fnid
                0x000000000003af00                gcmSortRemapEaIoAddress_fnid
                0x000000000003af04                gcmGetDisplayBufferByFlipIndex_fnid
                0x000000000003af08                gcmGcmGetDefaultCommandWordSize_fnid
                0x000000000003af0c                gcmGcmGetDefaultSegmentWordSize_fnid
                0x000000000003af10                gcmSetDefaultCommandBufferAndSegmentWordSize_fnid
                0x000000000003af14                gcmGetDisplayInfo_fnid
                0x000000000003af18                gcmDumpGraphicsError_fnid
                0x000000000003af1c                gcmFunc38_fnid
                0x000000000003af20                gcmGetCurrentDisplayBufferId_fnid
                0x000000000003af24                gcmGetDefaultCommandWordSize_fnid
                0x000000000003af28                gcmGetDefaultSegmentWordSize_fnid
                0x000000000003af2c                gcmGetMaxIoMapSize_fnid
                0x000000000003af30                gcmGetNotifyDataAddress_fnid
                0x000000000003af34                gcmGetReportDataAddress_fnid
                0x000000000003af38                gcmGetReportDataAddressLocation_fnid
                0x000000000003af3c                gcmGetReportDataLocation_fnid
                0x000000000003af40                gcmGetTileInfo_fnid
                0x000000000003af44                gcmGetTimeStampLocation_fnid
                0x000000000003af48                gcmGetZcullInfo_fnid
                0x000000000003af4c                gcmInitCursor_fnid
                0x000000000003af50                gcmInitDefaultFifoMode_fnid
                0x000000000003af54                gcmInitSystemMode_fnid
                0x000000000003af58                gcmMapEaIoAddressWithFlags_fnid
                0x000000000003af5c                gcmMapLocalMemory_fnid
                0x000000000003af60                gcmReserveIoMapSize_fnid
                0x000000000003af64                gcmSetCursorDisable_fnid
                0x000000000003af68                gcmSetCursorEnable_fnid
                0x000000000003af6c                gcmSetCursorImageOffset_fnid
                0x000000000003af70                gcmSetCursorPosition_fnid
                0x000000000003af74                gcmSetDefaultFifoSize_fnid
                0x000000000003af78                gcmSetFlipCommand_fnid
                0x000000000003af7c                gcmSetFlipCommandWithWaitLabel_fnid
                0x000000000003af80                gcmSysGetLastVBlankTime_fnid
                0x000000000003af84                gcmUnreserveIoMapSize_fnid
                0x000000000003af88                gcmUpdateCursor_fnid
 .rodata.sceFNID
                0x000000000003af8c      0x140 /opt/ps3dev/psl1ght/ppu/lib/libsysutil.a(sprx.o)
                0x000000000003af8c                videoGetResolution_fnid
                0x000000000003af8c                cellSysutil
                0x000000000003af90                videoConfigure_fnid
                0x000000000003af94                videoGetState_fnid
                0x000000000003af98                videoGetDeviceInfo_fnid
                0x000000000003af9c                videoGetConfiguration_fnid
                0x000000000003afa0                videoGetResolutionAvailability_fnid
                0x000000000003afa4                videoDebugSetMonitorType_fnid
                0x000000000003afa8                videoRegisterCallbackEx_fnid
                0x000000000003afac                videoUnregisterCallback_fnid
                0x000000000003afb0                videoGetNumberOfDevice_fnid
                0x000000000003afb4                videoGetConvertCursorColorInfo_fnid
                0x000000000003afb8                msgDialogClose_fnid
                0x000000000003afbc                msgDialogOpenErrorCodeEx_fnid
                0x000000000003afc0                msgDialogOpenEx_fnid
                0x000000000003afc4                msgDialogProgressBarInc_fnid
                0x000000000003afc8                msgDialogAbort_fnid
                0x000000000003afcc                msgDialogOpen2Ex_fnid
                0x000000000003afd0                msgDialogProgressBarReset_fnid
                0x000000000003afd4                msgDialogProgressBarSetMsg_fnid
                0x000000000003afd8                oskGetInputText_fnid
                0x000000000003afdc                oskSetInitialInputDevice_fnid
                0x000000000003afe0                oskGetSize_fnid
                0x000000000003afe4                oskUnloadAsync_fnid
                0x000000000003afe8                oskDisableDimmer_fnid
                0x000000000003afec                oskSetKeyLayoutOption_fnid
                0x000000000003aff0                oskAbort_fnid
                0x000000000003aff4                oskSetDeviceMask_fnid
                0x000000000003aff8                oskSetSeparateWindowOption_fnid
                0x000000000003affc                oskAddSupportLanguage_fnid
                0x000000000003b000                oskLoadAsync_fnid
                0x000000000003b004                oskSetInitialKeyLayout_fnid
                0x000000000003b008                oskSetLayoutMode_fnid
                0x000000000003b00c                sysUtilRegisterCallbackEx_fnid
                0x000000000003b010                sysUtilCheckCallback_fnid
                0x000000000003b014                sysUtilUnregisterCallback_fnid
                0x000000000003b018                sysSaveListLoad2Ex_fnid
                0x000000000003b01c                sysSaveListSave2Ex_fnid
                0x000000000003b020                sysSaveListAutoLoadEx_fnid
                0x000000000003b024                sysSaveListAutoSaveEx_fnid
                0x000000000003b028                sysSaveFixedLoad2Ex_fnid
                0x000000000003b02c                sysSaveFixedSave2Ex_fnid
                0x000000000003b030                sysSaveAutoLoad2Ex_fnid
                0x000000000003b034                sysSaveAutoSave2Ex_fnid
                0x000000000003b038                sysSaveDelete2_fnid
                0x000000000003b03c                sysGameDataCheck_fnid
                0x000000000003b040                sysGameBootCheck_fnid
                0x000000000003b044                sysGamePatchCheck_fnid
                0x000000000003b048                sysGameCreateGameData_fnid
                0x000000000003b04c                sysGameGetParamInt_fnid
                0x000000000003b050                sysGameGetParamString_fnid
                0x000000000003b054                sysGameGetSizeKB_fnid
                0x000000000003b058                sysGameSetParamString_fnid
                0x000000000003b05c                sysGameGetDiscContentInfoUpdatePath_fnid
                0x000000000003b060                sysGameContentPermit_fnid
                0x000000000003b064                sysGameContentErrorDialog_fnid
                0x000000000003b068                sysGameThemeInstall_fnid
                0x000000000003b06c                sysGameThemeInstallFromBufferEx_fnid
                0x000000000003b070                sysGameGetLocalWebContentPath_fnid
                0x000000000003b074                sysGameDeleteGameData_fnid
                0x000000000003b078                sysGameRegisterDiscChangeCallbackEx_fnid
                0x000000000003b07c                sysGameUnregisterDiscChangeCallback_fnid
                0x000000000003b080                sysDiscRegisterDiscChangeCallbackEx_fnid
                0x000000000003b084                sysDiscUnregisterDiscChangeCallback_fnid
                0x000000000003b088                sysTrophyInit_fnid
                0x000000000003b08c                sysTrophyAbortHandle_fnid
                0x000000000003b090                sysTrophyCreateContext_fnid
                0x000000000003b094                sysTrophyCreateHandle_fnid
                0x000000000003b098                sysTrophyDestroyContext_fnid
                0x000000000003b09c                sysTrophyDestroyHandle_fnid
                0x000000000003b0a0                sysTrophyGetGameIcon_fnid
                0x000000000003b0a4                sysTrophyGetGameInfo_fnid
                0x000000000003b0a8                sysTrophyGetGameProgress_fnid
                0x000000000003b0ac                sysTrophyGetRequiredDiskSpace_fnid
                0x000000000003b0b0                sysTrophyGetTrophyIcon_fnid
                0x000000000003b0b4                sysTrophyGetTrophyInfo_fnid
                0x000000000003b0b8                sysTrophyGetTrophyUnlockState_fnid
                0x000000000003b0bc                sysTrophyRegisterContextEx_fnid
                0x000000000003b0c0                sysTrophySetSoundLevel_fnid
                0x000000000003b0c4                sysTrophyTerm_fnid
                0x000000000003b0c8                sysTrophyUnlockTrophy_fnid
 .rodata.sceFNID
                0x000000000003b0cc       0xbc /opt/ps3dev/psl1ght/ppu/lib/libio.a(sprx.o)
                0x000000000003b0cc                sys_io
                0x000000000003b0cc                sys_config_start_fnid
                0x000000000003b0d0                sys_config_stop_fnid
                0x000000000003b0d4                sys_config_add_service_listener_fnid
                0x000000000003b0d8                sys_config_remove_service_listener_fnid
                0x000000000003b0dc                sys_config_register_service_fnid
                0x000000000003b0e0                sys_config_unregister_service_fnid
                0x000000000003b0e4                ioPadInit_fnid
                0x000000000003b0e8                ioPadEnd_fnid
                0x000000000003b0ec                ioPadClearBuf_fnid
                0x000000000003b0f0                ioPadInfoPressMode_fnid
                0x000000000003b0f4                ioPadLddRegisterController_fnid
                0x000000000003b0f8                ioPadGetInfo_fnid
                0x000000000003b0fc                ioPadGetRawData_fnid
                0x000000000003b100                ioPadGetDataExtra_fnid
                0x000000000003b104                ioPadInfoSensorMode_fnid
                0x000000000003b108                ioPadGetData_fnid
                0x000000000003b10c                ioPadLddGetPortNo_fnid
                0x000000000003b110                ioPadLddDataInsert_fnid
                0x000000000003b114                ioPadSetSensorMode_fnid
                0x000000000003b118                ioPadGetCapabilityInfo_fnid
                0x000000000003b11c                ioPadLddUnregisterController_fnid
                0x000000000003b120                ioPadSetActDirect_fnid
                0x000000000003b124                ioPadSetPressMode_fnid
                0x000000000003b128                ioPadPeriphGetInfo_fnid
                0x000000000003b12c                ioPadSetPortSetting_fnid
                0x000000000003b130                ioPadPeriphGetData_fnid
                0x000000000003b134                ioPadGetInfo2_fnid
                0x000000000003b138                ioMouseInit_fnid
                0x000000000003b13c                ioMouseEnd_fnid
                0x000000000003b140                ioMouseClearBuf_fnid
                0x000000000003b144                ioMouseGetInfo_fnid
                0x000000000003b148                ioMouseGetTabletDataList_fnid
                0x000000000003b14c                ioMouseSetTabletMode_fnid
                0x000000000003b150                ioMouseGetData_fnid
                0x000000000003b154                ioMouseInfoTabletMode_fnid
                0x000000000003b158                ioMouseGetRawData_fnid
                0x000000000003b15c                ioMouseGetDataList_fnid
                0x000000000003b160                ioKbInit_fnid
                0x000000000003b164                ioKbEnd_fnid
                0x000000000003b168                ioKbRead_fnid
                0x000000000003b16c                ioKbSetReadMode_fnid
                0x000000000003b170                ioKbSetCodeType_fnid
                0x000000000003b174                ioKbCnvRawCode_fnid
                0x000000000003b178                ioKbSetLEDStatus_fnid
                0x000000000003b17c                ioKbGetInfo_fnid
                0x000000000003b180                ioKbGetConfiguration_fnid
                0x000000000003b184                ioKbClearBuf_fnid
 .rodata.sceFNID
                0x000000000003b188      0x1dc /opt/ps3dev/psl1ght/ppu/lib/liblv2.a(sprx.o)
                0x000000000003b188                sysGetSystemTime_fnid
                0x000000000003b188                sysPrxForUser
                0x000000000003b18c                sysGetSystemSwVersion_fnid
                0x000000000003b190                sysGetTemperature_fnid
                0x000000000003b194                sysGetRandomNumber_fnid
                0x000000000003b198                sysGetRtcStatus_fnid
                0x000000000003b19c                sysBoardStorageRead_fnid
                0x000000000003b1a0                sysBoardStorageWrite_fnid
                0x000000000003b1a4                sysProcessIsStack_fnid
                0x000000000003b1a8                sysProcessExit_fnid
                0x000000000003b1ac                sysProcessExitspawn_fnid
                0x000000000003b1b0                sysProcessExitSpawn2Ex_fnid
                0x000000000003b1b4                sysProcessExitSpawnWithLevel_fnid
                0x000000000003b1b8                sysProcessAtExitSpawn_fnid
                0x000000000003b1bc                sysProcess_At_ExitSpawn_fnid
                0x000000000003b1c0                sysPrxRegisterLibrary_fnid
                0x000000000003b1c4                sysPrxUnregisterLibrary_fnid
                0x000000000003b1c8                sysPrxStartModule_fnid
                0x000000000003b1cc                sysPrxStopModule_fnid
                0x000000000003b1d0                sysPrxLoadModule_fnid
                0x000000000003b1d4                sysPrxLoadModuleByFd_fnid
                0x000000000003b1d8                sysPrxLoadModuleList_fnid
                0x000000000003b1dc                sysPrxLoadModuleListOnMemcontainer_fnid
                0x000000000003b1e0                sysPrxLoadModuleOnMemcontainer_fnid
                0x000000000003b1e4                sysPrxLoadModuleOnMemcontainerByFd_fnid
                0x000000000003b1e8                sysPrxGetModuleInfo_fnid
                0x000000000003b1ec                sysPrxGetModuleList_fnid
                0x000000000003b1f0                sysPrxGetModuleId_fnid
                0x000000000003b1f4                sysPrxGetModuleIdByAddress_fnid
                0x000000000003b1f8                sysPrxGetModuleIdByName_fnid
                0x000000000003b1fc                sysPrxUnloadModule_fnid
                0x000000000003b200                sysPrxExitSpawnWithLevel_fnid
                0x000000000003b204                sysThreadCreateEx_fnid
                0x000000000003b208                sysThreadExit_fnid
                0x000000000003b20c                sysThreadGetId_fnid
                0x000000000003b210                sysThreadOnce_fnid
                0x000000000003b214                sysThreadInitialzeTLS_fnid
                0x000000000003b218                sysThreadRegisterAtexit_fnid
                0x000000000003b21c                sysThreadUnregisterAtexit_fnid
                0x000000000003b220                sysInterruptThreadDisestablish_fnid
                0x000000000003b224                sysLwMutexCreate_fnid
                0x000000000003b228                sysLwMutexDestroy_fnid
                0x000000000003b22c                sysLwMutexLock_fnid
                0x000000000003b230                sysLwMutexTryLock_fnid
                0x000000000003b234                sysLwMutexUnlock_fnid
                0x000000000003b238                sysLwCondCreate_fnid
                0x000000000003b23c                sysLwCondWait_fnid
                0x000000000003b240                sysLwCondSignal_fnid
                0x000000000003b244                sysLwCondSignalTo_fnid
                0x000000000003b248                sysLwCondSignalAll_fnid
                0x000000000003b24c                sysLwCondDestroy_fnid
                0x000000000003b250                sysSpinlockInitialize_fnid
                0x000000000003b254                sysSpinlockLock_fnid
                0x000000000003b258                sysSpinlockTryLock_fnid
                0x000000000003b25c                sysSpinlockUnlock_fnid
                0x000000000003b260                sysWatchdogClear_fnid
                0x000000000003b264                sysWatchdogStart_fnid
                0x000000000003b268                sysWatchdogStop_fnid
                0x000000000003b26c                sysMalloc_fnid
                0x000000000003b270                sysMemalign_fnid
                0x000000000003b274                sysMemchr_fnid
                0x000000000003b278                sysMemcmp_fnid
                0x000000000003b27c                sysMemcpy_fnid
                0x000000000003b280                sysMemmove_fnid
                0x000000000003b284                sysMemset_fnid
                0x000000000003b288                sysFree_fnid
                0x000000000003b28c                sysHeapAllocHeapMemory_fnid
                0x000000000003b290                sysHeapCreateHeap_fnid
                0x000000000003b294                sysHeapDeleteHeap_fnid
                0x000000000003b298                sysHeapFree_fnid
                0x000000000003b29c                sysHeapGetMallInfo_fnid
                0x000000000003b2a0                sysHeapGetTotalFreeSize_fnid
                0x000000000003b2a4                sysHeapMalloc_fnid
                0x000000000003b2a8                sysHeapMemalign_fnid
                0x000000000003b2ac                sysHeapStats_fnid
                0x000000000003b2b0                sysQsort_fnid
                0x000000000003b2b4                sysMempoolCreate_fnid
                0x000000000003b2b8                sysMempoolDestroy_fnid
                0x000000000003b2bc                sysMempoolGetCount_fnid
                0x000000000003b2c0                sysMempoolAllocateBlock_fnid
                0x000000000003b2c4                sysMempoolTryAllocateBlock_fnid
                0x000000000003b2c8                sysMempoolFreeBlock_fnid
                0x000000000003b2cc                sysMMapperFreeMemory_fnid
                0x000000000003b2d0                sysMMapperMapMemory_fnid
                0x000000000003b2d4                sysMMapperUnmapMemory_fnid
                0x000000000003b2d8                sysMMapperAllocateMemory_fnid
                0x000000000003b2dc                sysMMapperAllocateMemoryFromContainer_fnid
                0x000000000003b2e0                sysStrlen_fnid
                0x000000000003b2e4                sysStrcpy_fnid
                0x000000000003b2e8                sysStrncpy_fnid
                0x000000000003b2ec                sysStrcat_fnid
                0x000000000003b2f0                sysStrncat_fnid
                0x000000000003b2f4                sysStrchr_fnid
                0x000000000003b2f8                sysStrrchr_fnid
                0x000000000003b2fc                sysStrcmp_fnid
                0x000000000003b300                sysStrncmp_fnid
                0x000000000003b304                sysStrncasecmp_fnid
                0x000000000003b308                sysToLower_fnid
                0x000000000003b30c                sysToUpper_fnid
                0x000000000003b310                sysSpuElfGetSegments_fnid
                0x000000000003b314                sysSpuElfGetInformation_fnid
                0x000000000003b318                sysSpuRawLoad_fnid
                0x000000000003b31c                sysSpuRawImageLoad_fnid
                0x000000000003b320                sysSpuImageClose_fnid
                0x000000000003b324                sysSpuImageImport_fnid
                0x000000000003b328                sysSpuPrintfAttachGroup_fnid
                0x000000000003b32c                sysSpuPrintfAttachThread_fnid
                0x000000000003b330                sysSpuPrintfDetachGroup_fnid
                0x000000000003b334                sysSpuPrintfDetach_Tread_fnid
                0x000000000003b338                sysSpuPrintfFinalize_fnid
                0x000000000003b33c                sysSpuPrintfInitialize_fnid
                0x000000000003b340                sysConsoleGetc_fnid
                0x000000000003b344                sysConsolePutc_fnid
                0x000000000003b348                sysConsoleWrite_fnid
                0x000000000003b34c                sysPrintf_fnid
                0x000000000003b350                sysSprintf_fnid
                0x000000000003b354                sysSnprintf_fnid
                0x000000000003b358                sysVprintf_fnid
                0x000000000003b35c                sysVsprintf_fnid
                0x000000000003b360                sysVsnprintf_fnid
 .rodata.sceFNID
                0x000000000003b364       0x20 /opt/ps3dev/psl1ght/ppu/lib/libsysmodule.a(sprx.o)
                0x000000000003b364                cellSysmodule
                0x000000000003b364                sysModuleInitialize_fnid
                0x000000000003b368                sysModuleFinalize_fnid
                0x000000000003b36c                sysModuleLoad_fnid
                0x000000000003b370                sysModuleUnload_fnid
                0x000000000003b374                sysModuleIsLoaded_fnid
                0x000000000003b378                sysModuleGetImagesize_fnid
                0x000000000003b37c                sysModuleFetchImage_fnid
                0x000000000003b380                sysModuleSetMemcontainer_fnid
 .rodata.sceFNID
                0x000000000003b384       0x74 /opt/ps3dev/psl1ght/ppu/lib/libpngdec.a(sprx.o)
                0x000000000003b384                pngDecCreate_fnid
                0x000000000003b384                cellPngDec
                0x000000000003b388                pngDecDestroy_fnid
                0x000000000003b38c                pngDecOpen_fnid
                0x000000000003b390                pngDecClose_fnid
                0x000000000003b394                pngDecReadHeader_fnid
                0x000000000003b398                pngDecDecodeData_fnid
                0x000000000003b39c                pngDecSetParameter_fnid
                0x000000000003b3a0                pngDecExtCreate_fnid
                0x000000000003b3a4                pngDecExtOpen_fnid
                0x000000000003b3a8                pngDecExtReadHeader_fnid
                0x000000000003b3ac                pngDecExtDecodeData_fnid
                0x000000000003b3b0                pngDecExtSetParameter_fnid
                0x000000000003b3b4                pngDecGetbKGD_fnid
                0x000000000003b3b8                pngDecGetcHRM_fnid
                0x000000000003b3bc                pngDecGetgAMA_fnid
                0x000000000003b3c0                pngDecGethIST_fnid
                0x000000000003b3c4                pngDecGetiCCP_fnid
                0x000000000003b3c8                pngDecGetoFFs_fnid
                0x000000000003b3cc                pngDecGetpCAL_fnid
                0x000000000003b3d0                pngDecGetpHYs_fnid
                0x000000000003b3d4                pngDecGetsBIT_fnid
                0x000000000003b3d8                pngDecGetsCAL_fnid
                0x000000000003b3dc                pngDecGetsPLT_fnid
                0x000000000003b3e0                pngDecGetsRGB_fnid
                0x000000000003b3e4                pngDecGettIME_fnid
                0x000000000003b3e8                pngDecGettRNS_fnid
                0x000000000003b3ec                pngDecGetPLTE_fnid
                0x000000000003b3f0                pngDecUnknownChunks_fnid
                0x000000000003b3f4                pngDecGetTextChunk_fnid
 .rodata.sceFNID
                0x000000000003b3f8       0x1c /opt/ps3dev/psl1ght/ppu/lib/libjpgdec.a(sprx.o)
                0x000000000003b3f8                jpgDecCreate_fnid
                0x000000000003b3f8                cellJpgDec
                0x000000000003b3fc                jpgDecDestroy_fnid
                0x000000000003b400                jpgDecOpen_fnid
                0x000000000003b404                jpgDecClose_fnid
                0x000000000003b408                jpgDecReadHeader_fnid
                0x000000000003b40c                jpgDecDecodeData_fnid
                0x000000000003b410                jpgDecSetParameter_fnid

.rodata.sceVNID
 *(.rodata.sceVNID .rodata.sceVNID.*)

.rodata.sceTNID
 *(.rodata.sceTNID .rodata.sceTNID.*)

.rodata.sceVStub
 *(.rodata.sceVStub)
 *(SORT(.rodata.sceVStub.*))
                0x000000000003b414                PROVIDE (__libentstart, .)

.lib.ent.top
 *(.lib.ent.top)

.lib.ent        0x000000000003b414        0x0
 *(.lib.ent)
 .lib.ent       0x000000000003b414        0x0 /opt/ps3dev/ppu/lib/gcc/powerpc64-ps3-elf/4.7.0/../../../../powerpc64-ps3-elf/lib/lv2-sprx.o

.lib.ent.btm
 *(.lib.ent.btm)
                0x000000000003b414                PROVIDE (__libentend, .)
                0x000000000003b414                PROVIDE (__libstubstart, .)

.lib.stub.top
 *(.lib.stub.top)

.lib.stub       0x000000000003b414      0x134
 *(.lib.stub)
 .lib.stub      0x000000000003b414        0x0 /opt/ps3dev/ppu/lib/gcc/powerpc64-ps3-elf/4.7.0/../../../../powerpc64-ps3-elf/lib/lv2-sprx.o
 .lib.stub      0x000000000003b414       0x2c /opt/ps3dev/psl1ght/ppu/lib/libgcm_sys.a(sprx.o)
 .lib.stub      0x000000000003b440       0x2c /opt/ps3dev/psl1ght/ppu/lib/libsysutil.a(sprx.o)
 .lib.stub      0x000000000003b46c       0x2c /opt/ps3dev/psl1ght/ppu/lib/libio.a(sprx.o)
 .lib.stub      0x000000000003b498       0x2c /opt/ps3dev/psl1ght/ppu/lib/liblv2.a(sprx.o)
 .lib.stub      0x000000000003b4c4       0x2c /opt/ps3dev/psl1ght/ppu/lib/libsysmodule.a(sprx.o)
 .lib.stub      0x000000000003b4f0       0x2c /opt/ps3dev/psl1ght/ppu/lib/libpngdec.a(sprx.o)
 .lib.stub      0x000000000003b51c       0x2c /opt/ps3dev/psl1ght/ppu/lib/libjpgdec.a(sprx.o)

.lib.stub.btm
 *(.lib.stub.btm)
                0x000000000003b548                PROVIDE (__libstubend, .)

.ppu_rodata
 *(.ppu_rodata .ppu_rodata.*)

.sys_proc_param
 *(.sys_proc_param)

.sys_proc_prx_param
                0x000000000003b548       0x28
 *(.sys_proc_prx_param)
 .sys_proc_prx_param
                0x000000000003b548       0x28 /opt/ps3dev/ppu/lib/gcc/powerpc64-ps3-elf/4.7.0/../../../../powerpc64-ps3-elf/lib/lv2-sprx.o
                0x0000000000040000                . = ALIGN (0x10000)

.ppu_data
 *(.ppu_data .ppu_data.*)

.sdata2
 *(.sdata2 .sdata2.* .gnu.linkonce.s2.*)

.sbss2
 *(.sbss2 .sbss2.* .gnu.linkonce.sb2.*)

.eh_frame
 *(.eh_frame)

.gcc_except_table
 *(.gcc_except_table .gcc_except_table.*)
                0x0000000000040000                . = ALIGN (0x8)

.preinit_array  0x0000000000040000        0x0
                0x0000000000040000                PROVIDE (__preinit_array_start, .)
 *(.preinit_array)
                0x0000000000040000                PROVIDE (__preinit_array_end, .)

.init_array     0x0000000000040000        0x0
                0x0000000000040000                PROVIDE (__init_array_start, .)
 *(SORT(.init_array.*))
 *(.init_array)
                0x0000000000040000                PROVIDE (__init_array_end, .)

.fini_array     0x0000000000040000        0x0
                0x0000000000040000                PROVIDE (__fini_array_start, .)
 *(.fini_array)
 *(SORT(.fini_array.*))
                0x0000000000040000                PROVIDE (__fini_array_end, .)

.ctors          0x0000000000040000       0x28
 *crtbegin.o(.ctors)
 .ctors         0x0000000000040000        0x8 /opt/ps3dev/ppu/lib/gcc/powerpc64-ps3-elf/4.7.0/crtbegin.o
 *crtbegin?.o(.ctors)
 *(EXCLUDE_FILE(*crtend?.o *crtend.o) .ctors)
 *(SORT(.ctors.*))
 .ctors.65430   0x0000000000040008        0x8 /opt/ps3dev/ppu/lib/gcc/powerpc64-ps3-elf/4.7.0/../../../../powerpc64-ps3-elf/lib/libc.a(lib_a-lock_internal.o)
 .ctors.65431   0x0000000000040010        0x8 /opt/ps3dev/ppu/lib/gcc/powerpc64-ps3-elf/4.7.0/../../../../powerpc64-ps3-elf/lib/lv2-crt0.o
 .ctors.65432   0x0000000000040018        0x8 /opt/ps3dev/psl1ght/ppu/lib/librt.a(sbrk.o)
 *(.ctors)
 .ctors         0x0000000000040020        0x8 /opt/ps3dev/ppu/lib/gcc/powerpc64-ps3-elf/4.7.0/crtend.o

.dtors          0x0000000000040028       0x10
 *crtbegin.o(.dtors)
 .dtors         0x0000000000040028        0x8 /opt/ps3dev/ppu/lib/gcc/powerpc64-ps3-elf/4.7.0/crtbegin.o
 *crtbegin?.o(.dtors)
 *(EXCLUDE_FILE(*crtend?.o *crtend.o) .dtors)
 *(SORT(.dtors.*))
 *(.dtors)
 .dtors         0x0000000000040030        0x8 /opt/ps3dev/ppu/lib/gcc/powerpc64-ps3-elf/4.7.0/crtend.o
                0x0000000000040030                __DTOR_END__

.jcr            0x0000000000040038        0x8
 *(.jcr)
 .jcr           0x0000000000040038        0x0 /opt/ps3dev/ppu/lib/gcc/powerpc64-ps3-elf/4.7.0/crtbegin.o
 .jcr           0x0000000000040038        0x8 /opt/ps3dev/ppu/lib/gcc/powerpc64-ps3-elf/4.7.0/crtend.o

.data.rel.ro
 *(.data.rel.ro.local*)
 *(.data.rel.ro*)

.dynamic
 *(.dynamic)

.data.sceFStub  0x0000000000040040      0x5ec
 *(.data.sceFStub)
 *(SORT(.data.sceFStub.*))
 .data.sceFStub.cellGcmSys
                0x0000000000040040      0x164 /opt/ps3dev/psl1ght/ppu/lib/libgcm_sys.a(sprx.o)
                0x0000000000040040                gcmInitBody_stub
                0x0000000000040044                gcmSetDisplayBuffer_stub
                0x0000000000040048                gcmGetControlRegister_stub
                0x000000000004004c                gcmAddressToOffset_stub
                0x0000000000040050                gcmGetConfiguration_stub
                0x0000000000040054                gcmGetCurrentField_stub
                0x0000000000040058                gcmSetFlipMode_stub
                0x000000000004005c                gcmGetFlipStatus_stub
                0x0000000000040060                gcmGetLastFlipTime_stub
                0x0000000000040064                gcmGetVBlankCount_stub
                0x0000000000040068                gcmSetWaitFlip_stub
                0x000000000004006c                gcmSetFlipStatus_stub
                0x0000000000040070                gcmResetFlipStatus_stub
                0x0000000000040074                gcmSetFlip_stub
                0x0000000000040078                gcmSetFlipImmediate_stub
                0x000000000004007c                gcmFunc15_stub
                0x0000000000040080                gcmFunc3_stub
                0x0000000000040084                gcmFunc1_stub
                0x0000000000040088                gcmFunc2_stub
                0x000000000004008c                gcmFunc4_stub
                0x0000000000040090                gcmFunc12_stub
                0x0000000000040094                gcmFunc13_stub
                0x0000000000040098                gcmGetReport_stub
                0x000000000004009c                gcmSetTile_stub
                0x00000000000400a0                gcmBindTile_stub
                0x00000000000400a4                gcmUnbindTile_stub
                0x00000000000400a8                gcmSetZcull_stub
                0x00000000000400ac                gcmBindZcull_stub
                0x00000000000400b0                gcmUnbindZcull_stub
                0x00000000000400b4                gcmGetTimeStamp_stub
                0x00000000000400b8                gcmSetVBlankFrequency_stub
                0x00000000000400bc                gcmSetSecondVFrequency_stub
                0x00000000000400c0                gcmSetDebugOutputLevel_stub
                0x00000000000400c4                gcmGetLabelAddress_stub
                0x00000000000400c8                gcmSetVBlankHandlerEx_stub
                0x00000000000400cc                gcmSetFlipHandlerEx_stub
                0x00000000000400d0                gcmSetSecondVHandlerEx_stub
                0x00000000000400d4                gcmSetGraphicsHandlerEx_stub
                0x00000000000400d8                gcmTerminate_stub
                0x00000000000400dc                gcmMapMainMemory_stub
                0x00000000000400e0                gcmMapEaIoAddress_stub
                0x00000000000400e4                gcmUnmapEaIoAddress_stub
                0x00000000000400e8                gcmUnmapIoAddress_stub
                0x00000000000400ec                gcmIoOffsetToAddress_stub
                0x00000000000400f0                gcmSetDefaultCommandBuffer_stub
                0x00000000000400f4                gcmSetTileInfo_stub
                0x00000000000400f8                gcmGetTiledPitchSize_stub
                0x00000000000400fc                gcmSetInvalidateTile_stub
                0x0000000000040100                gcmSetUserCommandEx_stub
                0x0000000000040104                gcmSetUserHandlerEx_stub
                0x0000000000040108                gcmSetQueueHandlerEx_stub
                0x000000000004010c                gcmSetPrepareFlip_stub
                0x0000000000040110                gcmGetOffsetTable_stub
                0x0000000000040114                gcmGetLastSecondVTime_stub
                0x0000000000040118                gcmSortRemapEaIoAddress_stub
                0x000000000004011c                gcmGetDisplayBufferByFlipIndex_stub
                0x0000000000040120                gcmGcmGetDefaultCommandWordSize_stub
                0x0000000000040124                gcmGcmGetDefaultSegmentWordSize_stub
                0x0000000000040128                gcmSetDefaultCommandBufferAndSegmentWordSize_stub
                0x000000000004012c                gcmGetDisplayInfo_stub
                0x0000000000040130                gcmDumpGraphicsError_stub
                0x0000000000040134                gcmFunc38_stub
                0x0000000000040138                gcmGetCurrentDisplayBufferId_stub
                0x000000000004013c                gcmGetDefaultCommandWordSize_stub
                0x0000000000040140                gcmGetDefaultSegmentWordSize_stub
                0x0000000000040144                gcmGetMaxIoMapSize_stub
                0x0000000000040148                gcmGetNotifyDataAddress_stub
                0x000000000004014c                gcmGetReportDataAddress_stub
                0x0000000000040150                gcmGetReportDataAddressLocation_stub
                0x0000000000040154                gcmGetReportDataLocation_stub
                0x0000000000040158                gcmGetTileInfo_stub
                0x000000000004015c                gcmGetTimeStampLocation_stub
                0x0000000000040160                gcmGetZcullInfo_stub
                0x0000000000040164                gcmInitCursor_stub
                0x0000000000040168                gcmInitDefaultFifoMode_stub
                0x000000000004016c                gcmInitSystemMode_stub
                0x0000000000040170                gcmMapEaIoAddressWithFlags_stub
                0x0000000000040174                gcmMapLocalMemory_stub
                0x0000000000040178                gcmReserveIoMapSize_stub
                0x000000000004017c                gcmSetCursorDisable_stub
                0x0000000000040180                gcmSetCursorEnable_stub
                0x0000000000040184                gcmSetCursorImageOffset_stub
                0x0000000000040188                gcmSetCursorPosition_stub
                0x000000000004018c                gcmSetDefaultFifoSize_stub
                0x0000000000040190                gcmSetFlipCommand_stub
                0x0000000000040194                gcmSetFlipCommandWithWaitLabel_stub
                0x0000000000040198                gcmSysGetLastVBlankTime_stub
                0x000000000004019c                gcmUnreserveIoMapSize_stub
                0x00000000000401a0                gcmUpdateCursor_stub
 .data.sceFStub.cellJpgDec
                0x00000000000401a4       0x1c /opt/ps3dev/psl1ght/ppu/lib/libjpgdec.a(sprx.o)
                0x00000000000401a4                jpgDecCreate_stub
                0x00000000000401a8                jpgDecDestroy_stub
                0x00000000000401ac                jpgDecOpen_stub
                0x00000000000401b0                jpgDecClose_stub
                0x00000000000401b4                jpgDecReadHeader_stub
                0x00000000000401b8                jpgDecDecodeData_stub
                0x00000000000401bc                jpgDecSetParameter_stub
 .data.sceFStub.cellPngDec
                0x00000000000401c0       0x74 /opt/ps3dev/psl1ght/ppu/lib/libpngdec.a(sprx.o)
                0x00000000000401c0                pngDecCreate_stub
                0x00000000000401c4                pngDecDestroy_stub
                0x00000000000401c8                pngDecOpen_stub
                0x00000000000401cc                pngDecClose_stub
                0x00000000000401d0                pngDecReadHeader_stub
                0x00000000000401d4                pngDecDecodeData_stub
                0x00000000000401d8                pngDecSetParameter_stub
                0x00000000000401dc                pngDecExtCreate_stub
                0x00000000000401e0                pngDecExtOpen_stub
                0x00000000000401e4                pngDecExtReadHeader_stub
                0x00000000000401e8                pngDecExtDecodeData_stub
                0x00000000000401ec                pngDecExtSetParameter_stub
                0x00000000000401f0                pngDecGetbKGD_stub
                0x00000000000401f4                pngDecGetcHRM_stub
                0x00000000000401f8                pngDecGetgAMA_stub
                0x00000000000401fc                pngDecGethIST_stub
                0x0000000000040200                pngDecGetiCCP_stub
                0x0000000000040204                pngDecGetoFFs_stub
                0x0000000000040208                pngDecGetpCAL_stub
                0x000000000004020c                pngDecGetpHYs_stub
                0x0000000000040210                pngDecGetsBIT_stub
                0x0000000000040214                pngDecGetsCAL_stub
                0x0000000000040218                pngDecGetsPLT_stub
                0x000000000004021c                pngDecGetsRGB_stub
                0x0000000000040220                pngDecGettIME_stub
                0x0000000000040224                pngDecGettRNS_stub
                0x0000000000040228                pngDecGetPLTE_stub
                0x000000000004022c                pngDecUnknownChunks_stub
                0x0000000000040230                pngDecGetTextChunk_stub
 .data.sceFStub.cellSysmodule
                0x0000000000040234       0x20 /opt/ps3dev/psl1ght/ppu/lib/libsysmodule.a(sprx.o)
                0x0000000000040234                sysModuleInitialize_stub
                0x0000000000040238                sysModuleFinalize_stub
                0x000000000004023c                sysModuleLoad_stub
                0x0000000000040240                sysModuleUnload_stub
                0x0000000000040244                sysModuleIsLoaded_stub
                0x0000000000040248                sysModuleGetImagesize_stub
                0x000000000004024c                sysModuleFetchImage_stub
                0x0000000000040250                sysModuleSetMemcontainer_stub
 .data.sceFStub.cellSysutil
                0x0000000000040254      0x140 /opt/ps3dev/psl1ght/ppu/lib/libsysutil.a(sprx.o)
                0x0000000000040254                videoGetResolution_stub
                0x0000000000040258                videoConfigure_stub
                0x000000000004025c                videoGetState_stub
                0x0000000000040260                videoGetDeviceInfo_stub
                0x0000000000040264                videoGetConfiguration_stub
                0x0000000000040268                videoGetResolutionAvailability_stub
                0x000000000004026c                videoDebugSetMonitorType_stub
                0x0000000000040270                videoRegisterCallbackEx_stub
                0x0000000000040274                videoUnregisterCallback_stub
                0x0000000000040278                videoGetNumberOfDevice_stub
                0x000000000004027c                videoGetConvertCursorColorInfo_stub
                0x0000000000040280                msgDialogClose_stub
                0x0000000000040284                msgDialogOpenErrorCodeEx_stub
                0x0000000000040288                msgDialogOpenEx_stub
                0x000000000004028c                msgDialogProgressBarInc_stub
                0x0000000000040290                msgDialogAbort_stub
                0x0000000000040294                msgDialogOpen2Ex_stub
                0x0000000000040298                msgDialogProgressBarReset_stub
                0x000000000004029c                msgDialogProgressBarSetMsg_stub
                0x00000000000402a0                oskGetInputText_stub
                0x00000000000402a4                oskSetInitialInputDevice_stub
                0x00000000000402a8                oskGetSize_stub
                0x00000000000402ac                oskUnloadAsync_stub
                0x00000000000402b0                oskDisableDimmer_stub
                0x00000000000402b4                oskSetKeyLayoutOption_stub
                0x00000000000402b8                oskAbort_stub
                0x00000000000402bc                oskSetDeviceMask_stub
                0x00000000000402c0                oskSetSeparateWindowOption_stub
                0x00000000000402c4                oskAddSupportLanguage_stub
                0x00000000000402c8                oskLoadAsync_stub
                0x00000000000402cc                oskSetInitialKeyLayout_stub
                0x00000000000402d0                oskSetLayoutMode_stub
                0x00000000000402d4                sysUtilRegisterCallbackEx_stub
                0x00000000000402d8                sysUtilCheckCallback_stub
                0x00000000000402dc                sysUtilUnregisterCallback_stub
                0x00000000000402e0                sysSaveListLoad2Ex_stub
                0x00000000000402e4                sysSaveListSave2Ex_stub
                0x00000000000402e8                sysSaveListAutoLoadEx_stub
                0x00000000000402ec                sysSaveListAutoSaveEx_stub
                0x00000000000402f0                sysSaveFixedLoad2Ex_stub
                0x00000000000402f4                sysSaveFixedSave2Ex_stub
                0x00000000000402f8                sysSaveAutoLoad2Ex_stub
                0x00000000000402fc                sysSaveAutoSave2Ex_stub
                0x0000000000040300                sysSaveDelete2_stub
                0x0000000000040304                sysGameDataCheck_stub
                0x0000000000040308                sysGameBootCheck_stub
                0x000000000004030c                sysGamePatchCheck_stub
                0x0000000000040310                sysGameCreateGameData_stub
                0x0000000000040314                sysGameGetParamInt_stub
                0x0000000000040318                sysGameGetParamString_stub
                0x000000000004031c                sysGameGetSizeKB_stub
                0x0000000000040320                sysGameSetParamString_stub
                0x0000000000040324                sysGameGetDiscContentInfoUpdatePath_stub
                0x0000000000040328                sysGameContentPermit_stub
                0x000000000004032c                sysGameContentErrorDialog_stub
                0x0000000000040330                sysGameThemeInstall_stub
                0x0000000000040334                sysGameThemeInstallFromBufferEx_stub
                0x0000000000040338                sysGameGetLocalWebContentPath_stub
                0x000000000004033c                sysGameDeleteGameData_stub
                0x0000000000040340                sysGameRegisterDiscChangeCallbackEx_stub
                0x0000000000040344                sysGameUnregisterDiscChangeCallback_stub
                0x0000000000040348                sysDiscRegisterDiscChangeCallbackEx_stub
                0x000000000004034c                sysDiscUnregisterDiscChangeCallback_stub
                0x0000000000040350                sysTrophyInit_stub
                0x0000000000040354                sysTrophyAbortHandle_stub
                0x0000000000040358                sysTrophyCreateContext_stub
                0x000000000004035c                sysTrophyCreateHandle_stub
                0x0000000000040360                sysTrophyDestroyContext_stub
                0x0000000000040364                sysTrophyDestroyHandle_stub
                0x0000000000040368                sysTrophyGetGameIcon_stub
                0x000000000004036c                sysTrophyGetGameInfo_stub
                0x0000000000040370                sysTrophyGetGameProgress_stub
                0x0000000000040374                sysTrophyGetRequiredDiskSpace_stub
                0x0000000000040378                sysTrophyGetTrophyIcon_stub
                0x000000000004037c                sysTrophyGetTrophyInfo_stub
                0x0000000000040380                sysTrophyGetTrophyUnlockState_stub
                0x0000000000040384                sysTrophyRegisterContextEx_stub
                0x0000000000040388                sysTrophySetSoundLevel_stub
                0x000000000004038c                sysTrophyTerm_stub
                0x0000000000040390                sysTrophyUnlockTrophy_stub
 .data.sceFStub.sysPrxForUser
                0x0000000000040394      0x1dc /opt/ps3dev/psl1ght/ppu/lib/liblv2.a(sprx.o)
                0x0000000000040394                sysGetSystemTime_stub
                0x0000000000040398                sysGetSystemSwVersion_stub
                0x000000000004039c                sysGetTemperature_stub
                0x00000000000403a0                sysGetRandomNumber_stub
                0x00000000000403a4                sysGetRtcStatus_stub
                0x00000000000403a8                sysBoardStorageRead_stub
                0x00000000000403ac                sysBoardStorageWrite_stub
                0x00000000000403b0                sysProcessIsStack_stub
                0x00000000000403b4                sysProcessExit_stub
                0x00000000000403b8                sysProcessExitspawn_stub
                0x00000000000403bc                sysProcessExitSpawn2Ex_stub
                0x00000000000403c0                sysProcessExitSpawnWithLevel_stub
                0x00000000000403c4                sysProcessAtExitSpawn_stub
                0x00000000000403c8                sysProcess_At_ExitSpawn_stub
                0x00000000000403cc                sysPrxRegisterLibrary_stub
                0x00000000000403d0                sysPrxUnregisterLibrary_stub
                0x00000000000403d4                sysPrxStartModule_stub
                0x00000000000403d8                sysPrxStopModule_stub
                0x00000000000403dc                sysPrxLoadModule_stub
                0x00000000000403e0                sysPrxLoadModuleByFd_stub
                0x00000000000403e4                sysPrxLoadModuleList_stub
                0x00000000000403e8                sysPrxLoadModuleListOnMemcontainer_stub
                0x00000000000403ec                sysPrxLoadModuleOnMemcontainer_stub
                0x00000000000403f0                sysPrxLoadModuleOnMemcontainerByFd_stub
                0x00000000000403f4                sysPrxGetModuleInfo_stub
                0x00000000000403f8                sysPrxGetModuleList_stub
                0x00000000000403fc                sysPrxGetModuleId_stub
                0x0000000000040400                sysPrxGetModuleIdByAddress_stub
                0x0000000000040404                sysPrxGetModuleIdByName_stub
                0x0000000000040408                sysPrxUnloadModule_stub
                0x000000000004040c                sysPrxExitSpawnWithLevel_stub
                0x0000000000040410                sysThreadCreateEx_stub
                0x0000000000040414                sysThreadExit_stub
                0x0000000000040418                sysThreadGetId_stub
                0x000000000004041c                sysThreadOnce_stub
                0x0000000000040420                sysThreadInitialzeTLS_stub
                0x0000000000040424                sysThreadRegisterAtexit_stub
                0x0000000000040428                sysThreadUnregisterAtexit_stub
                0x000000000004042c                sysInterruptThreadDisestablish_stub
                0x0000000000040430                sysLwMutexCreate_stub
                0x0000000000040434                sysLwMutexDestroy_stub
                0x0000000000040438                sysLwMutexLock_stub
                0x000000000004043c                sysLwMutexTryLock_stub
                0x0000000000040440                sysLwMutexUnlock_stub
                0x0000000000040444                sysLwCondCreate_stub
                0x0000000000040448                sysLwCondWait_stub
                0x000000000004044c                sysLwCondSignal_stub
                0x0000000000040450                sysLwCondSignalTo_stub
                0x0000000000040454                sysLwCondSignalAll_stub
                0x0000000000040458                sysLwCondDestroy_stub
                0x000000000004045c                sysSpinlockInitialize_stub
                0x0000000000040460                sysSpinlockLock_stub
                0x0000000000040464                sysSpinlockTryLock_stub
                0x0000000000040468                sysSpinlockUnlock_stub
                0x000000000004046c                sysWatchdogClear_stub
                0x0000000000040470                sysWatchdogStart_stub
                0x0000000000040474                sysWatchdogStop_stub
                0x0000000000040478                sysMalloc_stub
                0x000000000004047c                sysMemalign_stub
                0x0000000000040480                sysMemchr_stub
                0x0000000000040484                sysMemcmp_stub
                0x0000000000040488                sysMemcpy_stub
                0x000000000004048c                sysMemmove_stub
                0x0000000000040490                sysMemset_stub
                0x0000000000040494                sysFree_stub
                0x0000000000040498                sysHeapAllocHeapMemory_stub
                0x000000000004049c                sysHeapCreateHeap_stub
                0x00000000000404a0                sysHeapDeleteHeap_stub
                0x00000000000404a4                sysHeapFree_stub
                0x00000000000404a8                sysHeapGetMallInfo_stub
                0x00000000000404ac                sysHeapGetTotalFreeSize_stub
                0x00000000000404b0                sysHeapMalloc_stub
                0x00000000000404b4                sysHeapMemalign_stub
                0x00000000000404b8                sysHeapStats_stub
                0x00000000000404bc                sysQsort_stub
                0x00000000000404c0                sysMempoolCreate_stub
                0x00000000000404c4                sysMempoolDestroy_stub
                0x00000000000404c8                sysMempoolGetCount_stub
                0x00000000000404cc                sysMempoolAllocateBlock_stub
                0x00000000000404d0                sysMempoolTryAllocateBlock_stub
                0x00000000000404d4                sysMempoolFreeBlock_stub
                0x00000000000404d8                sysMMapperFreeMemory_stub
                0x00000000000404dc                sysMMapperMapMemory_stub
                0x00000000000404e0                sysMMapperUnmapMemory_stub
                0x00000000000404e4                sysMMapperAllocateMemory_stub
                0x00000000000404e8                sysMMapperAllocateMemoryFromContainer_stub
                0x00000000000404ec                sysStrlen_stub
                0x00000000000404f0                sysStrcpy_stub
                0x00000000000404f4                sysStrncpy_stub
                0x00000000000404f8                sysStrcat_stub
                0x00000000000404fc                sysStrncat_stub
                0x0000000000040500                sysStrchr_stub
                0x0000000000040504                sysStrrchr_stub
                0x0000000000040508                sysStrcmp_stub
                0x000000000004050c                sysStrncmp_stub
                0x0000000000040510                sysStrncasecmp_stub
                0x0000000000040514                sysToLower_stub
                0x0000000000040518                sysToUpper_stub
                0x000000000004051c                sysSpuElfGetSegments_stub
                0x0000000000040520                sysSpuElfGetInformation_stub
                0x0000000000040524                sysSpuRawLoad_stub
                0x0000000000040528                sysSpuRawImageLoad_stub
                0x000000000004052c                sysSpuImageClose_stub
                0x0000000000040530                sysSpuImageImport_stub
                0x0000000000040534                sysSpuPrintfAttachGroup_stub
                0x0000000000040538                sysSpuPrintfAttachThread_stub
                0x000000000004053c                sysSpuPrintfDetachGroup_stub
                0x0000000000040540                sysSpuPrintfDetach_Tread_stub
                0x0000000000040544                sysSpuPrintfFinalize_stub
                0x0000000000040548                sysSpuPrintfInitialize_stub
                0x000000000004054c                sysConsoleGetc_stub
                0x0000000000040550                sysConsolePutc_stub
                0x0000000000040554                sysConsoleWrite_stub
                0x0000000000040558                sysPrintf_stub
                0x000000000004055c                sysSprintf_stub
                0x0000000000040560                sysSnprintf_stub
                0x0000000000040564                sysVprintf_stub
                0x0000000000040568                sysVsprintf_stub
                0x000000000004056c                sysVsnprintf_stub
 .data.sceFStub.sys_io
                0x0000000000040570       0xbc /opt/ps3dev/psl1ght/ppu/lib/libio.a(sprx.o)
                0x0000000000040570                sys_config_start_stub
                0x0000000000040574                sys_config_stop_stub
                0x0000000000040578                sys_config_add_service_listener_stub
                0x000000000004057c                sys_config_remove_service_listener_stub
                0x0000000000040580                sys_config_register_service_stub
                0x0000000000040584                sys_config_unregister_service_stub
                0x0000000000040588                ioPadInit_stub
                0x000000000004058c                ioPadEnd_stub
                0x0000000000040590                ioPadClearBuf_stub
                0x0000000000040594                ioPadInfoPressMode_stub
                0x0000000000040598                ioPadLddRegisterController_stub
                0x000000000004059c                ioPadGetInfo_stub
                0x00000000000405a0                ioPadGetRawData_stub
                0x00000000000405a4                ioPadGetDataExtra_stub
                0x00000000000405a8                ioPadInfoSensorMode_stub
                0x00000000000405ac                ioPadGetData_stub
                0x00000000000405b0                ioPadLddGetPortNo_stub
                0x00000000000405b4                ioPadLddDataInsert_stub
                0x00000000000405b8                ioPadSetSensorMode_stub
                0x00000000000405bc                ioPadGetCapabilityInfo_stub
                0x00000000000405c0                ioPadLddUnregisterController_stub
                0x00000000000405c4                ioPadSetActDirect_stub
                0x00000000000405c8                ioPadSetPressMode_stub
                0x00000000000405cc                ioPadPeriphGetInfo_stub
                0x00000000000405d0                ioPadSetPortSetting_stub
                0x00000000000405d4                ioPadPeriphGetData_stub
                0x00000000000405d8                ioPadGetInfo2_stub
                0x00000000000405dc                ioMouseInit_stub
                0x00000000000405e0                ioMouseEnd_stub
                0x00000000000405e4                ioMouseClearBuf_stub
                0x00000000000405e8                ioMouseGetInfo_stub
                0x00000000000405ec                ioMouseGetTabletDataList_stub
                0x00000000000405f0                ioMouseSetTabletMode_stub
                0x00000000000405f4                ioMouseGetData_stub
                0x00000000000405f8                ioMouseInfoTabletMode_stub
                0x00000000000405fc                ioMouseGetRawData_stub
                0x0000000000040600                ioMouseGetDataList_stub
                0x0000000000040604                ioKbInit_stub
                0x0000000000040608                ioKbEnd_stub
                0x000000000004060c                ioKbRead_stub
                0x0000000000040610                ioKbSetReadMode_stub
                0x0000000000040614                ioKbSetCodeType_stub
                0x0000000000040618                ioKbCnvRawCode_stub
                0x000000000004061c                ioKbSetLEDStatus_stub
                0x0000000000040620                ioKbGetInfo_stub
                0x0000000000040624                ioKbGetConfiguration_stub
                0x0000000000040628                ioKbClearBuf_stub

.toc1
 *(.toc1)

.opd            0x0000000000040630     0x4de8
 *(.opd)
 .opd           0x0000000000040630       0x30 /opt/ps3dev/ppu/lib/gcc/powerpc64-ps3-elf/4.7.0/../../../../powerpc64-ps3-elf/lib/lv2-crti.o
                0x0000000000040630                _init
                0x0000000000040648                _fini
 .opd           0x0000000000040660       0x60 /opt/ps3dev/ppu/lib/gcc/powerpc64-ps3-elf/4.7.0/crtbegin.o
 .opd           0x00000000000406c0       0x48 /opt/ps3dev/ppu/lib/gcc/powerpc64-ps3-elf/4.7.0/../../../../powerpc64-ps3-elf/lib/lv2-crt0.o
                0x00000000000406f0                _initialize
 .opd           0x0000000000040708       0x18 main.o
                0x0000000000040708                main
 .opd           0x0000000000040720       0x60 /opt/ps3dev/portlibs/ppu/lib/libya2d.a(ya2d.o)
                0x0000000000040720                ya2d_init
                0x0000000000040738                ya2d_deinit
                0x0000000000040750                ya2d_readControls
                0x0000000000040768                ya2d_error
 .opd           0x0000000000040780       0x18 /opt/ps3dev/portlibs/ppu/lib/libya2d.a(ya2d_controls.o)
                0x0000000000040780                ya2d_controlsRead
 .opd           0x0000000000040798       0x30 /opt/ps3dev/portlibs/ppu/lib/libya2d.a(ya2d_draw.o)
                0x0000000000040798                ya2d_drawRect
                0x00000000000407b0                ya2d_drawFillRect
 .opd           0x00000000000407c8       0x78 /opt/ps3dev/portlibs/ppu/lib/libya2d.a(ya2d_screen.o)
                0x00000000000407c8                ya2d_screenClear
                0x00000000000407e0                ya2d_screenSetClearColor
                0x00000000000407f8                ya2d_screenBeginDrawing
                0x0000000000040810                ya2d_screenFlip
                0x0000000000040828                ya2d_screenFPS
 .opd           0x0000000000040840      0x108 /opt/ps3dev/portlibs/ppu/lib/libya2d.a(ya2d_texture.o)
                0x0000000000040840                ya2d_createTexture
                0x0000000000040858                ya2d_swizzleTexture
                0x0000000000040870                ya2d_setTexture
                0x0000000000040888                ya2d_freeTexture
                0x00000000000408a0                ya2d_drawTexture
                0x00000000000408b8                ya2d_drawRotateTexture
                0x00000000000408d0                ya2d_drawBlendTexture
                0x00000000000408e8                ya2d_loadPNGfromFile
                0x0000000000040900                ya2d_loadPNGfromBuffer
                0x0000000000040918                ya2d_loadJPGfromFile
                0x0000000000040930                ya2d_loadJPGfromBuffer
 .opd           0x0000000000040948       0x30 /opt/ps3dev/portlibs/ppu/lib/libya2d.a(ya2d_utils.o)
                0x0000000000040948                swizzle_fast
                0x0000000000040960                next_pow2
 .opd           0x0000000000040978       0xd8 /opt/ps3dev/portlibs/ppu/lib/libya2d.a(valloc.o)
                0x0000000000040978                init_valloc
                0x0000000000040990                vgetMemorySize
                0x00000000000409a8                vGuPointer
                0x00000000000409c0                vCPUPointer
                0x00000000000409d8                _vram_mem_fit
                0x00000000000409f0                valloc
                0x0000000000040a08                vfree
                0x0000000000040a20                vmemavail
                0x0000000000040a38                vlargestblock
 .opd           0x0000000000040a50      0x1b0 /opt/ps3dev/portlibs/ppu/lib/libfont.a(libfont.o)
                0x0000000000040a68                ResetFont
                0x0000000000040a80                AddFontFromBitmapArray
                0x0000000000040a98                AddFontFromTTF
                0x0000000000040ab0                SetCurrentFont
                0x0000000000040ac8                SetFontSize
                0x0000000000040ae0                SetFontColor
                0x0000000000040af8                SetFontTextureMethod
                0x0000000000040b10                SetDoubleTextureModule
                0x0000000000040b28                SetFontAutoCenter
                0x0000000000040b40                SetFontAutoNewLine
                0x0000000000040b58                SetFontZ
                0x0000000000040b70                GetFontX
                0x0000000000040b88                GetFontY
                0x0000000000040ba0                SetFontScreenLimits
                0x0000000000040bb8                DrawChar
                0x0000000000040bd0                DrawString
                0x0000000000040be8                DrawFormatString
 .opd           0x0000000000040c00      0x168 /opt/ps3dev/portlibs/ppu/lib/libtiny3d.a(matrix.o)
                0x0000000000040c00                MatrixProjPerspective
                0x0000000000040c18                MatrixVectorMultiply
                0x0000000000040c30                MatrixVectorMultiply3x3
                0x0000000000040c48                MatrixMultiply
                0x0000000000040c60                MatrixIdentity
                0x0000000000040c78                MatrixTranslation
                0x0000000000040c90                MatrixTranspose
                0x0000000000040ca8                MatrixScale
                0x0000000000040cc0                MatrixRotationX
                0x0000000000040cd8                MatrixRotationY
                0x0000000000040cf0                MatrixRotationZ
                0x0000000000040d08                MatrixRotationAxis
                0x0000000000040d20                VectorToUnit
                0x0000000000040d38                VectorNormalPlane
                0x0000000000040d50                MakeLookAtMatrix
 .opd           0x0000000000040d68      0x570 /opt/ps3dev/portlibs/ppu/lib/libtiny3d.a(tiny3d.o)
                0x0000000000040db0                tiny3d_Exit
                0x0000000000040e28                tiny3d_alarm
                0x0000000000040e40                tiny3d_RecordList
                0x0000000000040e58                tiny3d_StopList
                0x0000000000040e70                tiny3d_FreeList
                0x0000000000040e88                tiny3d_DynamicMatrixList
                0x0000000000040ea0                tiny3d_ApplyMatrixList
                0x0000000000040eb8                tiny3d_Init
                0x0000000000040ed0                tiny3d_SetPolygon
                0x0000000000040ee8                tiny3d_VertexPos
                0x0000000000040f00                tiny3d_VertexPos4
                0x0000000000040f18                tiny3d_VertexPosVector
                0x0000000000040f30                tiny3d_VertexColor
                0x0000000000040f48                tiny3d_VertexFcolor
                0x0000000000040f60                tiny3d_VertexTexture
                0x0000000000040f78                tiny3d_VertexTexture2
                0x0000000000040f90                tiny3d_Normal
                0x0000000000040fa8                tiny3d_NormalVector
                0x0000000000040fc0                tiny3d_End
                0x0000000000040fd8                tiny3d_SetMatrixModelView
                0x0000000000040ff0                tiny3d_SetProjectionMatrix
                0x0000000000041008                tiny3d_Flip
                0x0000000000041020                tiny3d_UserViewport
                0x0000000000041038                tiny3d_UserViewport2
                0x0000000000041050                tiny3d_UserViewportSurface
                0x0000000000041068                tiny3d_Project2D
                0x0000000000041080                tiny3d_Project3D
                0x0000000000041098                tiny3d_Clear
                0x00000000000410b0                tiny3d_ClearSurface
                0x00000000000410c8                tiny3d_AlphaTest
                0x00000000000410e0                tiny3d_BlendFunc
                0x00000000000410f8                tiny3d_SetTextureWrap
                0x0000000000041110                tiny3d_SetTexture
                0x0000000000041128                tiny3d_AllocTexture
                0x0000000000041140                tiny3d_TextureOffset
                0x0000000000041158                tiny3d_EmissiveMaterial
                0x0000000000041170                tiny3d_AmbientMaterial
                0x0000000000041188                tiny3d_DiffuseMaterial
                0x00000000000411a0                tiny3d_SpecularMaterial
                0x00000000000411b8                tiny3d_SetLightCameraPosition
                0x00000000000411d0                tiny3d_SetLight
                0x00000000000411e8                tiny3d_SetLightsOff
                0x0000000000041200                tiny3d_SetAmbientLight
                0x0000000000041218                tiny3d_SelMultiTexturesMethod
                0x0000000000041230                tiny3d_DrawList
                0x0000000000041248                tiny3d_MenuActive
                0x0000000000041260                tiny3d_Enable_YUV
                0x0000000000041278                tiny3d_Disable_YUV
                0x0000000000041290                tiny3d_Dirty_Status
                0x00000000000412a8                tiny3d_Get_GCM_Context
                0x00000000000412c0                tiny3d_DoCmd_Space
 .opd           0x00000000000412d8      0x408 /opt/ps3dev/portlibs/ppu/lib/libtiny3d.a(commands.o)
                0x00000000000412d8                rsxtiny_MakeCmdSpace
                0x00000000000412f0                rsxtiny_SetReferenceCommand
                0x0000000000041308                rsxtiny_SetWriteBackendLabel
                0x0000000000041320                rsxtiny_SetWaitLabel
                0x0000000000041338                rsxtiny_SetScissor
                0x0000000000041350                rsxtiny_SetClearColor
                0x0000000000041368                rsxtiny_SetClearDepthValue
                0x0000000000041380                rsxtiny_Nop
                0x0000000000041398                rsxtiny_ClearBuffers
                0x00000000000413b0                rsxtiny_SetRenderSurface
                0x00000000000413c8                rsxtiny_SelectRenderTarget
                0x00000000000413e0                rsxtiny_Viewport
                0x00000000000413f8                rsxtiny_ViewportClip
                0x0000000000041410                rsxtiny_VertexBegin
                0x0000000000041428                rsxtiny_VertexEnd
                0x0000000000041440                rsxtiny_Vertex4f
                0x0000000000041458                rsxtiny_TexCoord2f
                0x0000000000041470                rsxtiny_SetVertexProgramConstant4f
                0x0000000000041488                rsxtiny_LoadVertexProgram
                0x00000000000414a0                rsxtiny_SetVertexProgramConstant4fBlock
                0x00000000000414b8                rsxtiny_InstallFragmentProgram
                0x00000000000414d0                rsxtiny_LoadFragmentProgram
                0x00000000000414e8                rsxtiny_InvalidateTextureCache
                0x0000000000041500                rsxtiny_SetTexture
                0x0000000000041518                rsxtiny_ViewportTranslate
                0x0000000000041530                rsxtiny_ViewportScale
                0x0000000000041548                rsxtiny_CullFace
                0x0000000000041560                rsxtiny_FrontFace
                0x0000000000041578                rsxtiny_CullEnable
                0x0000000000041590                rsxtiny_AlphaEnable
                0x00000000000415a8                rsxtiny_AlphaRef
                0x00000000000415c0                rsxtiny_AlphaFunc
                0x00000000000415d8                rsxtiny_BlendEnable
                0x00000000000415f0                rsxtiny_BlendEquation
                0x0000000000041608                rsxtiny_BlendFunc
                0x0000000000041620                rsxtiny_ZControl
                0x0000000000041638                rsxtiny_BindVertexBufferAttribute
                0x0000000000041650                rsxtiny_VertexInvalidate
                0x0000000000041668                rsxtiny_DrawVertexBuffer
                0x0000000000041680                rsxtiny_DrawVertexBufferIndex
                0x0000000000041698                rsxtiny_DepthTestEnable
                0x00000000000416b0                rsxtiny_DepthTestFunc
                0x00000000000416c8                rsxtiny_DepthWriteEnable
 .opd           0x00000000000416e0       0x48 /opt/ps3dev/portlibs/ppu/lib/libtiny3d.a(glue.o)
                0x00000000000416e0                rsxtiny_FlushBuffer
                0x00000000000416f8                rsxtiny_Init
                0x0000000000041710                rsxtiny_AddressToOffset
 .opd           0x0000000000041728       0x30 /opt/ps3dev/portlibs/ppu/lib/libtiny3d.a(mm.o)
                0x0000000000041728                rsxtiny_MemAlign
                0x0000000000041740                rsxtiny_Mem
 .opd           0x0000000000041758       0xa8 /opt/ps3dev/portlibs/ppu/lib/libtiny3d.a(realityVP.o)
                0x0000000000041758                rsxtiny_VertexProgramGetUCode
                0x0000000000041770                rsxtiny_VertexProgramGetInputMask
                0x0000000000041788                rsxtiny_VertexProgramGetOutputMask
                0x00000000000417a0                rsxtiny_VertexProgramGetAttributes
                0x00000000000417b8                rsxtiny_VertexProgramGetInputAttribute
                0x00000000000417d0                rsxtiny_VertexProgramGetConstants
                0x00000000000417e8                rsxtiny_VertexProgramGetConstant
 .opd           0x0000000000041800       0x78 /opt/ps3dev/portlibs/ppu/lib/libtiny3d.a(rsxutil.o)
                0x0000000000041800                waitFlip
                0x0000000000041818                flip
                0x0000000000041830                init_screen
                0x0000000000041848                setupRenderTarget
                0x0000000000041860                setupRenderTarget2
 .opd           0x0000000000041878       0x30 /opt/ps3dev/portlibs/ppu/lib/libtiny3d.a(buffer.o)
                0x0000000000041878                tiny_rsxContextCallback
                0x0000000000041890                commandBufferPut
 .opd           0x00000000000418a8       0x18 /opt/ps3dev/ppu/lib/gcc/powerpc64-ps3-elf/4.7.0/../../../../powerpc64-ps3-elf/lib/libc.a(lib_a-atexit.o)
                0x00000000000418a8                atexit
 .opd           0x00000000000418c0       0x18 /opt/ps3dev/ppu/lib/gcc/powerpc64-ps3-elf/4.7.0/../../../../powerpc64-ps3-elf/lib/libc.a(lib_a-exit.o)
                0x00000000000418c0                exit
 .opd           0x00000000000418d8       0x18 /opt/ps3dev/ppu/lib/gcc/powerpc64-ps3-elf/4.7.0/../../../../powerpc64-ps3-elf/lib/libc.a(lib_a-malign.o)
                0x00000000000418d8                memalign
 .opd           0x00000000000418f0       0x18 /opt/ps3dev/ppu/lib/gcc/powerpc64-ps3-elf/4.7.0/../../../../powerpc64-ps3-elf/lib/libc.a(lib_a-malignr.o)
                0x00000000000418f0                _memalign_r
 .opd           0x0000000000041908       0x30 /opt/ps3dev/ppu/lib/gcc/powerpc64-ps3-elf/4.7.0/../../../../powerpc64-ps3-elf/lib/libc.a(lib_a-malloc.o)
                0x0000000000041908                malloc
                0x0000000000041920                free
 .opd           0x0000000000041938       0x18 /opt/ps3dev/ppu/lib/gcc/powerpc64-ps3-elf/4.7.0/../../../../powerpc64-ps3-elf/lib/libc.a(lib_a-mallocr.o)
                0x0000000000041938                _malloc_r
 .opd           0x0000000000041950       0x18 /opt/ps3dev/ppu/lib/gcc/powerpc64-ps3-elf/4.7.0/../../../../powerpc64-ps3-elf/lib/libc.a(lib_a-memcpy.o)
                0x0000000000041950                memcpy
 .opd           0x0000000000041968       0x18 /opt/ps3dev/ppu/lib/gcc/powerpc64-ps3-elf/4.7.0/../../../../powerpc64-ps3-elf/lib/libc.a(lib_a-memset.o)
                0x0000000000041968                memset
 .opd           0x0000000000041980       0x30 /opt/ps3dev/ppu/lib/gcc/powerpc64-ps3-elf/4.7.0/../../../../powerpc64-ps3-elf/lib/libc.a(lib_a-mlock.o)
                0x0000000000041980                __malloc_lock
                0x0000000000041998                __malloc_unlock
 .opd           0x00000000000419b0       0x30 /opt/ps3dev/ppu/lib/gcc/powerpc64-ps3-elf/4.7.0/../../../../powerpc64-ps3-elf/lib/libc.a(lib_a-rand.o)
                0x00000000000419b0                srand
                0x00000000000419c8                rand
 .opd           0x00000000000419e0       0x18 /opt/ps3dev/ppu/lib/gcc/powerpc64-ps3-elf/4.7.0/../../../../powerpc64-ps3-elf/lib/libc.a(lib_a-strcasecmp.o)
                0x00000000000419e0                strcasecmp
 .opd           0x00000000000419f8       0x30 /opt/ps3dev/ppu/lib/gcc/powerpc64-ps3-elf/4.7.0/../../../../powerpc64-ps3-elf/lib/libc.a(lib_a-vsprintf.o)
                0x00000000000419f8                _vsprintf_r
                0x0000000000041a10                vsprintf
 .opd           0x0000000000041a28       0x18 /opt/ps3dev/ppu/lib/gcc/powerpc64-ps3-elf/4.7.0/../../../../powerpc64-ps3-elf/lib/libc.a(lib_a-__atexit.o)
                0x0000000000041a28                __register_exitproc
 .opd           0x0000000000041a40       0x18 /opt/ps3dev/ppu/lib/gcc/powerpc64-ps3-elf/4.7.0/../../../../powerpc64-ps3-elf/lib/libc.a(lib_a-__call_atexit.o)
                0x0000000000041a40                __call_exitprocs
 .opd           0x0000000000041a58       0x30 /opt/ps3dev/ppu/lib/gcc/powerpc64-ps3-elf/4.7.0/../../../../powerpc64-ps3-elf/lib/libc.a(lib_a-freer.o)
                0x0000000000041a58                _malloc_trim_r
                0x0000000000041a70                _free_r
 .opd           0x0000000000041a88       0x18 /opt/ps3dev/ppu/lib/gcc/powerpc64-ps3-elf/4.7.0/../../../../powerpc64-ps3-elf/lib/libc.a(lib_a-getreent.o)
                0x0000000000041a88                __getreent
 .opd           0x0000000000041aa0       0x78 /opt/ps3dev/ppu/lib/gcc/powerpc64-ps3-elf/4.7.0/../../../../powerpc64-ps3-elf/lib/libc.a(lib_a-lock_recursive.o)
                0x0000000000041aa0                __libc_lock_init_recursive
                0x0000000000041ab8                __libc_lock_close_recursive
                0x0000000000041ad0                __libc_lock_acquire_recursive
                0x0000000000041ae8                __libc_lock_try_acquire_recursive
                0x0000000000041b00                __libc_lock_release_recursive
 .opd           0x0000000000041b18       0x18 /opt/ps3dev/ppu/lib/gcc/powerpc64-ps3-elf/4.7.0/../../../../powerpc64-ps3-elf/lib/libc.a(lib_a-svfprintf.o)
                0x0000000000041b18                _svfprintf_r
 .opd           0x0000000000041b30       0x30 /opt/ps3dev/ppu/lib/gcc/powerpc64-ps3-elf/4.7.0/../../../../powerpc64-ps3-elf/lib/libc.a(lib_a-dtoa.o)
                0x0000000000041b48                _dtoa_r
 .opd           0x0000000000041b60       0xc0 /opt/ps3dev/ppu/lib/gcc/powerpc64-ps3-elf/4.7.0/../../../../powerpc64-ps3-elf/lib/libc.a(lib_a-locale.o)
                0x0000000000041b60                _setlocale_r
                0x0000000000041b78                __locale_charset
                0x0000000000041b90                __locale_mb_cur_max
                0x0000000000041ba8                __locale_msgcharset
                0x0000000000041bc0                __locale_cjk_lang
                0x0000000000041bd8                _localeconv_r
                0x0000000000041bf0                setlocale
                0x0000000000041c08                localeconv
 .opd           0x0000000000041c20       0x30 /opt/ps3dev/ppu/lib/gcc/powerpc64-ps3-elf/4.7.0/../../../../powerpc64-ps3-elf/lib/libc.a(lib_a-lock_internal.o)
                0x0000000000041c38                __libc_auto_lock_allocate
 .opd           0x0000000000041c50       0x18 /opt/ps3dev/ppu/lib/gcc/powerpc64-ps3-elf/4.7.0/../../../../powerpc64-ps3-elf/lib/libc.a(lib_a-memchr.o)
                0x0000000000041c50                memchr
 .opd           0x0000000000041c68      0x1c8 /opt/ps3dev/ppu/lib/gcc/powerpc64-ps3-elf/4.7.0/../../../../powerpc64-ps3-elf/lib/libc.a(lib_a-mprec.o)
                0x0000000000041c68                _Balloc
                0x0000000000041c80                _Bfree
                0x0000000000041c98                __multadd
                0x0000000000041cb0                __s2b
                0x0000000000041cc8                __hi0bits
                0x0000000000041ce0                __lo0bits
                0x0000000000041cf8                __i2b
                0x0000000000041d10                __multiply
                0x0000000000041d28                __pow5mult
                0x0000000000041d40                __lshift
                0x0000000000041d58                __mcmp
                0x0000000000041d70                __mdiff
                0x0000000000041d88                __ulp
                0x0000000000041da0                __b2d
                0x0000000000041db8                __d2b
                0x0000000000041dd0                __ratio
                0x0000000000041de8                _mprec_log10
                0x0000000000041e00                __copybits
                0x0000000000041e18                __any_on
 .opd           0x0000000000041e30       0x18 /opt/ps3dev/ppu/lib/gcc/powerpc64-ps3-elf/4.7.0/../../../../powerpc64-ps3-elf/lib/libc.a(lib_a-s_fpclassify.o)
                0x0000000000041e30                __fpclassifyd
 .opd           0x0000000000041e48       0x18 /opt/ps3dev/ppu/lib/gcc/powerpc64-ps3-elf/4.7.0/../../../../powerpc64-ps3-elf/lib/libc.a(lib_a-strcmp.o)
                0x0000000000041e48                strcmp
 .opd           0x0000000000041e60       0x18 /opt/ps3dev/ppu/lib/gcc/powerpc64-ps3-elf/4.7.0/../../../../powerpc64-ps3-elf/lib/libc.a(lib_a-strlen.o)
                0x0000000000041e60                strlen
 .opd           0x0000000000041e78       0x30 /opt/ps3dev/ppu/lib/gcc/powerpc64-ps3-elf/4.7.0/../../../../powerpc64-ps3-elf/lib/libc.a(lib_a-svfiprintf.o)
                0x0000000000041e78                __ssprint_r
                0x0000000000041e90                _svfiprintf_r
 .opd           0x0000000000041ea8       0x18 /opt/ps3dev/ppu/lib/gcc/powerpc64-ps3-elf/4.7.0/../../../../powerpc64-ps3-elf/lib/libc.a(lib_a-abort.o)
                0x0000000000041ea8                abort
 .opd           0x0000000000041ec0       0x18 /opt/ps3dev/ppu/lib/gcc/powerpc64-ps3-elf/4.7.0/../../../../powerpc64-ps3-elf/lib/libc.a(lib_a-callocr.o)
                0x0000000000041ec0                _calloc_r
 .opd           0x0000000000041ed8       0x18 /opt/ps3dev/ppu/lib/gcc/powerpc64-ps3-elf/4.7.0/../../../../powerpc64-ps3-elf/lib/libc.a(lib_a-memmove.o)
                0x0000000000041ed8                memmove
 .opd           0x0000000000041ef0       0x18 /opt/ps3dev/ppu/lib/gcc/powerpc64-ps3-elf/4.7.0/../../../../powerpc64-ps3-elf/lib/libc.a(lib_a-reallocr.o)
                0x0000000000041ef0                _realloc_r
 .opd           0x0000000000041f08       0xc0 /opt/ps3dev/ppu/lib/gcc/powerpc64-ps3-elf/4.7.0/../../../../powerpc64-ps3-elf/lib/libc.a(lib_a-signal.o)
                0x0000000000041f08                _init_signal_r
                0x0000000000041f20                _signal_r
                0x0000000000041f38                _raise_r
                0x0000000000041f50                __sigtramp_r
                0x0000000000041f68                raise
                0x0000000000041f80                signal
                0x0000000000041f98                _init_signal
                0x0000000000041fb0                __sigtramp
 .opd           0x0000000000041fc8      0x858 /opt/ps3dev/psl1ght/ppu/lib/libgcm_sys.a(sprx.o)
                0x0000000000041fc8                gcmInitBody
                0x0000000000041fe0                gcmSetDisplayBuffer
                0x0000000000041ff8                gcmGetControlRegister
                0x0000000000042010                gcmAddressToOffset
                0x0000000000042028                gcmGetConfiguration
                0x0000000000042040                gcmGetCurrentField
                0x0000000000042058                gcmSetFlipMode
                0x0000000000042070                gcmGetFlipStatus
                0x0000000000042088                gcmGetLastFlipTime
                0x00000000000420a0                gcmGetVBlankCount
                0x00000000000420b8                gcmSetWaitFlip
                0x00000000000420d0                gcmSetFlipStatus
                0x00000000000420e8                gcmResetFlipStatus
                0x0000000000042100                gcmSetFlip
                0x0000000000042118                gcmSetFlipImmediate
                0x0000000000042130                gcmFunc15
                0x0000000000042148                gcmFunc3
                0x0000000000042160                gcmFunc1
                0x0000000000042178                gcmFunc2
                0x0000000000042190                gcmFunc4
                0x00000000000421a8                gcmFunc12
                0x00000000000421c0                gcmFunc13
                0x00000000000421d8                gcmGetReport
                0x00000000000421f0                gcmSetTile
                0x0000000000042208                gcmBindTile
                0x0000000000042220                gcmUnbindTile
                0x0000000000042238                gcmSetZcull
                0x0000000000042250                gcmBindZcull
                0x0000000000042268                gcmUnbindZcull
                0x0000000000042280                gcmGetTimeStamp
                0x0000000000042298                gcmSetVBlankFrequency
                0x00000000000422b0                gcmSetSecondVFrequency
                0x00000000000422c8                gcmSetDebugOutputLevel
                0x00000000000422e0                gcmGetLabelAddress
                0x00000000000422f8                gcmSetVBlankHandlerEx
                0x0000000000042310                gcmSetFlipHandlerEx
                0x0000000000042328                gcmSetSecondVHandlerEx
                0x0000000000042340                gcmSetGraphicsHandlerEx
                0x0000000000042358                gcmTerminate
                0x0000000000042370                gcmMapMainMemory
                0x0000000000042388                gcmMapEaIoAddress
                0x00000000000423a0                gcmUnmapEaIoAddress
                0x00000000000423b8                gcmUnmapIoAddress
                0x00000000000423d0                gcmIoOffsetToAddress
                0x00000000000423e8                gcmSetDefaultCommandBuffer
                0x0000000000042400                gcmSetTileInfo
                0x0000000000042418                gcmGetTiledPitchSize
                0x0000000000042430                gcmSetInvalidateTile
                0x0000000000042448                gcmSetUserCommandEx
                0x0000000000042460                gcmSetUserHandlerEx
                0x0000000000042478                gcmSetQueueHandlerEx
                0x0000000000042490                gcmSetPrepareFlip
                0x00000000000424a8                gcmGetOffsetTable
                0x00000000000424c0                gcmGetLastSecondVTime
                0x00000000000424d8                gcmSortRemapEaIoAddress
                0x00000000000424f0                gcmGetDisplayBufferByFlipIndex
                0x0000000000042508                gcmGcmGetDefaultCommandWordSize
                0x0000000000042520                gcmGcmGetDefaultSegmentWordSize
                0x0000000000042538                gcmSetDefaultCommandBufferAndSegmentWordSize
                0x0000000000042550                gcmGetDisplayInfo
                0x0000000000042568                gcmDumpGraphicsError
                0x0000000000042580                gcmFunc38
                0x0000000000042598                gcmGetCurrentDisplayBufferId
                0x00000000000425b0                gcmGetDefaultCommandWordSize
                0x00000000000425c8                gcmGetDefaultSegmentWordSize
                0x00000000000425e0                gcmGetMaxIoMapSize
                0x00000000000425f8                gcmGetNotifyDataAddress
                0x0000000000042610                gcmGetReportDataAddress
                0x0000000000042628                gcmGetReportDataAddressLocation
                0x0000000000042640                gcmGetReportDataLocation
                0x0000000000042658                gcmGetTileInfo
                0x0000000000042670                gcmGetTimeStampLocation
                0x0000000000042688                gcmGetZcullInfo
                0x00000000000426a0                gcmInitCursor
                0x00000000000426b8                gcmInitDefaultFifoMode
                0x00000000000426d0                gcmInitSystemMode
                0x00000000000426e8                gcmMapEaIoAddressWithFlags
                0x0000000000042700                gcmMapLocalMemory
                0x0000000000042718                gcmReserveIoMapSize
                0x0000000000042730                gcmSetCursorDisable
                0x0000000000042748                gcmSetCursorEnable
                0x0000000000042760                gcmSetCursorImageOffset
                0x0000000000042778                gcmSetCursorPosition
                0x0000000000042790                gcmSetDefaultFifoSize
                0x00000000000427a8                gcmSetFlipCommand
                0x00000000000427c0                gcmSetFlipCommandWithWaitLabel
                0x00000000000427d8                gcmSysGetLastVBlankTime
                0x00000000000427f0                gcmUnreserveIoMapSize
                0x0000000000042808                gcmUpdateCursor
 .opd           0x0000000000042820      0x780 /opt/ps3dev/psl1ght/ppu/lib/libsysutil.a(sprx.o)
                0x0000000000042820                videoGetResolution
                0x0000000000042838                videoConfigure
                0x0000000000042850                videoGetState
                0x0000000000042868                videoGetDeviceInfo
                0x0000000000042880                videoGetConfiguration
                0x0000000000042898                videoGetResolutionAvailability
                0x00000000000428b0                videoDebugSetMonitorType
                0x00000000000428c8                videoRegisterCallbackEx
                0x00000000000428e0                videoUnregisterCallback
                0x00000000000428f8                videoGetNumberOfDevice
                0x0000000000042910                videoGetConvertCursorColorInfo
                0x0000000000042928                msgDialogClose
                0x0000000000042940                msgDialogOpenErrorCodeEx
                0x0000000000042958                msgDialogOpenEx
                0x0000000000042970                msgDialogProgressBarInc
                0x0000000000042988                msgDialogAbort
                0x00000000000429a0                msgDialogOpen2Ex
                0x00000000000429b8                msgDialogProgressBarReset
                0x00000000000429d0                msgDialogProgressBarSetMsg
                0x00000000000429e8                oskGetInputText
                0x0000000000042a00                oskSetInitialInputDevice
                0x0000000000042a18                oskGetSize
                0x0000000000042a30                oskUnloadAsync
                0x0000000000042a48                oskDisableDimmer
                0x0000000000042a60                oskSetKeyLayoutOption
                0x0000000000042a78                oskAbort
                0x0000000000042a90                oskSetDeviceMask
                0x0000000000042aa8                oskSetSeparateWindowOption
                0x0000000000042ac0                oskAddSupportLanguage
                0x0000000000042ad8                oskLoadAsync
                0x0000000000042af0                oskSetInitialKeyLayout
                0x0000000000042b08                oskSetLayoutMode
                0x0000000000042b20                sysUtilRegisterCallbackEx
                0x0000000000042b38                sysUtilCheckCallback
                0x0000000000042b50                sysUtilUnregisterCallback
                0x0000000000042b68                sysSaveListLoad2Ex
                0x0000000000042b80                sysSaveListSave2Ex
                0x0000000000042b98                sysSaveListAutoLoadEx
                0x0000000000042bb0                sysSaveListAutoSaveEx
                0x0000000000042bc8                sysSaveFixedLoad2Ex
                0x0000000000042be0                sysSaveFixedSave2Ex
                0x0000000000042bf8                sysSaveAutoLoad2Ex
                0x0000000000042c10                sysSaveAutoSave2Ex
                0x0000000000042c28                sysSaveDelete2
                0x0000000000042c40                sysGameDataCheck
                0x0000000000042c58                sysGameBootCheck
                0x0000000000042c70                sysGamePatchCheck
                0x0000000000042c88                sysGameCreateGameData
                0x0000000000042ca0                sysGameGetParamInt
                0x0000000000042cb8                sysGameGetParamString
                0x0000000000042cd0                sysGameGetSizeKB
                0x0000000000042ce8                sysGameSetParamString
                0x0000000000042d00                sysGameGetDiscContentInfoUpdatePath
                0x0000000000042d18                sysGameContentPermit
                0x0000000000042d30                sysGameContentErrorDialog
                0x0000000000042d48                sysGameThemeInstall
                0x0000000000042d60                sysGameThemeInstallFromBufferEx
                0x0000000000042d78                sysGameGetLocalWebContentPath
                0x0000000000042d90                sysGameDeleteGameData
                0x0000000000042da8                sysGameRegisterDiscChangeCallbackEx
                0x0000000000042dc0                sysGameUnregisterDiscChangeCallback
                0x0000000000042dd8                sysDiscRegisterDiscChangeCallbackEx
                0x0000000000042df0                sysDiscUnregisterDiscChangeCallback
                0x0000000000042e08                sysTrophyInit
                0x0000000000042e20                sysTrophyAbortHandle
                0x0000000000042e38                sysTrophyCreateContext
                0x0000000000042e50                sysTrophyCreateHandle
                0x0000000000042e68                sysTrophyDestroyContext
                0x0000000000042e80                sysTrophyDestroyHandle
                0x0000000000042e98                sysTrophyGetGameIcon
                0x0000000000042eb0                sysTrophyGetGameInfo
                0x0000000000042ec8                sysTrophyGetGameProgress
                0x0000000000042ee0                sysTrophyGetRequiredDiskSpace
                0x0000000000042ef8                sysTrophyGetTrophyIcon
                0x0000000000042f10                sysTrophyGetTrophyInfo
                0x0000000000042f28                sysTrophyGetTrophyUnlockState
                0x0000000000042f40                sysTrophyRegisterContextEx
                0x0000000000042f58                sysTrophySetSoundLevel
                0x0000000000042f70                sysTrophyTerm
                0x0000000000042f88                sysTrophyUnlockTrophy
 .opd           0x0000000000042fa0      0x168 /opt/ps3dev/psl1ght/ppu/lib/libsysutil.a(sysutil_wrapper.o)
                0x0000000000042fa0                sysUtilRegisterCallback
                0x0000000000042fb8                msgDialogOpen
                0x0000000000042fd0                msgDialogOpen2
                0x0000000000042fe8                msgDialogOpenErrorCode
                0x0000000000043000                sysSaveListLoad2
                0x0000000000043018                sysSaveListSave2
                0x0000000000043030                sysSaveListAutoLoad
                0x0000000000043048                sysSaveListAutoSave
                0x0000000000043060                sysSaveFixedLoad2
                0x0000000000043078                sysSaveFixedSave2
                0x0000000000043090                sysSaveAutoLoad2
                0x00000000000430a8                sysSaveAutoSave2
                0x00000000000430c0                sysGameThemeInstallFromBuffer
                0x00000000000430d8                sysGameDiscRegisterDiscChangeCallback
                0x00000000000430f0                sysDiscRegisterDiscChangeCallback
 .opd           0x0000000000043108      0x468 /opt/ps3dev/psl1ght/ppu/lib/libio.a(sprx.o)
                0x0000000000043108                sys_config_start
                0x0000000000043120                sys_config_stop
                0x0000000000043138                sys_config_add_service_listener
                0x0000000000043150                sys_config_remove_service_listener
                0x0000000000043168                sys_config_register_service
                0x0000000000043180                sys_config_unregister_service
                0x0000000000043198                ioPadInit
                0x00000000000431b0                ioPadEnd
                0x00000000000431c8                ioPadClearBuf
                0x00000000000431e0                ioPadInfoPressMode
                0x00000000000431f8                ioPadLddRegisterController
                0x0000000000043210                ioPadGetInfo
                0x0000000000043228                ioPadGetRawData
                0x0000000000043240                ioPadGetDataExtra
                0x0000000000043258                ioPadInfoSensorMode
                0x0000000000043270                ioPadGetData
                0x0000000000043288                ioPadLddGetPortNo
                0x00000000000432a0                ioPadLddDataInsert
                0x00000000000432b8                ioPadSetSensorMode
                0x00000000000432d0                ioPadGetCapabilityInfo
                0x00000000000432e8                ioPadLddUnregisterController
                0x0000000000043300                ioPadSetActDirect
                0x0000000000043318                ioPadSetPressMode
                0x0000000000043330                ioPadPeriphGetInfo
                0x0000000000043348                ioPadSetPortSetting
                0x0000000000043360                ioPadPeriphGetData
                0x0000000000043378                ioPadGetInfo2
                0x0000000000043390                ioMouseInit
                0x00000000000433a8                ioMouseEnd
                0x00000000000433c0                ioMouseClearBuf
                0x00000000000433d8                ioMouseGetInfo
                0x00000000000433f0                ioMouseGetTabletDataList
                0x0000000000043408                ioMouseSetTabletMode
                0x0000000000043420                ioMouseGetData
                0x0000000000043438                ioMouseInfoTabletMode
                0x0000000000043450                ioMouseGetRawData
                0x0000000000043468                ioMouseGetDataList
                0x0000000000043480                ioKbInit
                0x0000000000043498                ioKbEnd
                0x00000000000434b0                ioKbRead
                0x00000000000434c8                ioKbSetReadMode
                0x00000000000434e0                ioKbSetCodeType
                0x00000000000434f8                ioKbCnvRawCode
                0x0000000000043510                ioKbSetLEDStatus
                0x0000000000043528                ioKbGetInfo
                0x0000000000043540                ioKbGetConfiguration
                0x0000000000043558                ioKbClearBuf
 .opd           0x0000000000043570       0x18 /opt/ps3dev/ppu/lib/gcc/powerpc64-ps3-elf/4.7.0/../../../../powerpc64-ps3-elf/lib/libm.a(lib_a-sf_cos.o)
                0x0000000000043570                cosf
 .opd           0x0000000000043588       0x18 /opt/ps3dev/ppu/lib/gcc/powerpc64-ps3-elf/4.7.0/../../../../powerpc64-ps3-elf/lib/libm.a(lib_a-sf_sin.o)
                0x0000000000043588                sinf
 .opd           0x00000000000435a0       0x18 /opt/ps3dev/ppu/lib/gcc/powerpc64-ps3-elf/4.7.0/../../../../powerpc64-ps3-elf/lib/libm.a(lib_a-sf_tan.o)
                0x00000000000435a0                tanf
 .opd           0x00000000000435b8       0x18 /opt/ps3dev/ppu/lib/gcc/powerpc64-ps3-elf/4.7.0/../../../../powerpc64-ps3-elf/lib/libm.a(lib_a-wf_sqrt.o)
                0x00000000000435b8                sqrtf
 .opd           0x00000000000435d0       0x18 /opt/ps3dev/ppu/lib/gcc/powerpc64-ps3-elf/4.7.0/../../../../powerpc64-ps3-elf/lib/libm.a(lib_a-w_sqrt.o)
                0x00000000000435d0                sqrt
 .opd           0x00000000000435e8       0x18 /opt/ps3dev/ppu/lib/gcc/powerpc64-ps3-elf/4.7.0/../../../../powerpc64-ps3-elf/lib/libm.a(lib_a-ef_rem_pio2.o)
                0x00000000000435e8                __ieee754_rem_pio2f
 .opd           0x0000000000043600       0x18 /opt/ps3dev/ppu/lib/gcc/powerpc64-ps3-elf/4.7.0/../../../../powerpc64-ps3-elf/lib/libm.a(lib_a-ef_sqrt.o)
                0x0000000000043600                __ieee754_sqrtf
 .opd           0x0000000000043618       0x18 /opt/ps3dev/ppu/lib/gcc/powerpc64-ps3-elf/4.7.0/../../../../powerpc64-ps3-elf/lib/libm.a(lib_a-e_sqrt.o)
                0x0000000000043618                __ieee754_sqrt
 .opd           0x0000000000043630       0x18 /opt/ps3dev/ppu/lib/gcc/powerpc64-ps3-elf/4.7.0/../../../../powerpc64-ps3-elf/lib/libm.a(lib_a-kf_cos.o)
                0x0000000000043630                __kernel_cosf
 .opd           0x0000000000043648       0x18 /opt/ps3dev/ppu/lib/gcc/powerpc64-ps3-elf/4.7.0/../../../../powerpc64-ps3-elf/lib/libm.a(lib_a-kf_rem_pio2.o)
                0x0000000000043648                __kernel_rem_pio2f
 .opd           0x0000000000043660       0x18 /opt/ps3dev/ppu/lib/gcc/powerpc64-ps3-elf/4.7.0/../../../../powerpc64-ps3-elf/lib/libm.a(lib_a-kf_sin.o)
                0x0000000000043660                __kernel_sinf
 .opd           0x0000000000043678       0x18 /opt/ps3dev/ppu/lib/gcc/powerpc64-ps3-elf/4.7.0/../../../../powerpc64-ps3-elf/lib/libm.a(lib_a-kf_tan.o)
                0x0000000000043678                __kernel_tanf
 .opd           0x0000000000043690       0x18 /opt/ps3dev/ppu/lib/gcc/powerpc64-ps3-elf/4.7.0/../../../../powerpc64-ps3-elf/lib/libm.a(lib_a-sf_fabs.o)
                0x0000000000043690                fabsf
 .opd           0x00000000000436a8       0x18 /opt/ps3dev/ppu/lib/gcc/powerpc64-ps3-elf/4.7.0/../../../../powerpc64-ps3-elf/lib/libm.a(lib_a-sf_floor.o)
                0x00000000000436a8                floorf
 .opd           0x00000000000436c0       0x18 /opt/ps3dev/ppu/lib/gcc/powerpc64-ps3-elf/4.7.0/../../../../powerpc64-ps3-elf/lib/libm.a(lib_a-sf_fpclassify.o)
                0x00000000000436c0                __fpclassifyf
 .opd           0x00000000000436d8       0x18 /opt/ps3dev/ppu/lib/gcc/powerpc64-ps3-elf/4.7.0/../../../../powerpc64-ps3-elf/lib/libm.a(lib_a-sf_scalbn.o)
                0x00000000000436d8                scalbnf
 .opd           0x00000000000436f0       0x18 /opt/ps3dev/ppu/lib/gcc/powerpc64-ps3-elf/4.7.0/../../../../powerpc64-ps3-elf/lib/libm.a(lib_a-s_matherr.o)
                0x00000000000436f0                matherr
 .opd           0x0000000000043708       0x18 /opt/ps3dev/ppu/lib/gcc/powerpc64-ps3-elf/4.7.0/../../../../powerpc64-ps3-elf/lib/libm.a(lib_a-sf_copysign.o)
                0x0000000000043708                copysignf
 .opd           0x0000000000043720       0x48 /opt/ps3dev/psl1ght/ppu/lib/librt.a(sbrk.o)
                0x0000000000043750                __librt_sbrk_r
 .opd           0x0000000000043768       0x18 /opt/ps3dev/psl1ght/ppu/lib/librt.a(exit.o)
                0x0000000000043768                __librt_exit
 .opd           0x0000000000043780       0x18 /opt/ps3dev/psl1ght/ppu/lib/librt.a(close.o)
                0x0000000000043780                __librt_close_r
 .opd           0x0000000000043798       0x30 /opt/ps3dev/psl1ght/ppu/lib/librt.a(lseek.o)
                0x0000000000043798                __librt_lseek_r
                0x00000000000437b0                __librt_lseek64_r
 .opd           0x00000000000437c8       0x18 /opt/ps3dev/psl1ght/ppu/lib/librt.a(read.o)
                0x00000000000437c8                __librt_read_r
 .opd           0x00000000000437e0       0x18 /opt/ps3dev/psl1ght/ppu/lib/librt.a(open.o)
                0x00000000000437e0                __librt_open_r
 .opd           0x00000000000437f8       0x30 /opt/ps3dev/psl1ght/ppu/lib/librt.a(sleep.o)
                0x00000000000437f8                __librt_usleep_r
                0x0000000000043810                __librt_sleep_r
 .opd           0x0000000000043828       0x18 /opt/ps3dev/psl1ght/ppu/lib/librt.a(write.o)
                0x0000000000043828                __librt_write_r
 .opd           0x0000000000043840       0x78 /opt/ps3dev/psl1ght/ppu/lib/librt.a(fstat.o)
                0x0000000000043858                __librt_fstat_r
                0x0000000000043870                __librt_fstat64_r
                0x0000000000043888                __librt_stat_r
                0x00000000000438a0                __librt_stat64_r
 .opd           0x00000000000438b8      0x150 /opt/ps3dev/psl1ght/ppu/lib/librt.a(socket.o)
                0x00000000000438b8                accept
                0x00000000000438d0                bind
                0x00000000000438e8                connect
                0x0000000000043900                listen
                0x0000000000043918                socket
                0x0000000000043930                send
                0x0000000000043948                sendto
                0x0000000000043960                recv
                0x0000000000043978                recvfrom
                0x0000000000043990                shutdown
                0x00000000000439a8                inet_aton
                0x00000000000439c0                inet_pton
                0x00000000000439d8                select
                0x00000000000439f0                closesocket
 .opd           0x0000000000043a08       0x78 /opt/ps3dev/psl1ght/ppu/lib/librt.a(lock.o)
                0x0000000000043a08                __librt_sys_lwmutex_create_r
                0x0000000000043a20                __librt_sys_lwmutex_destroy_r
                0x0000000000043a38                __librt_sys_lwmutex_lock_r
                0x0000000000043a50                __librt_sys_lwmutex_trylock_r
                0x0000000000043a68                __librt_sys_lwmutex_unlock_r
 .opd           0x0000000000043a80       0xc0 /opt/ps3dev/psl1ght/ppu/lib/librt.a(dirent.o)
                0x0000000000043a98                __librt_opendir_r
                0x0000000000043ab0                __librt_readdir_r
                0x0000000000043ac8                __librt_readdir_r_r
                0x0000000000043ae0                __librt_closedir_r
                0x0000000000043af8                __librt_telldir_r
                0x0000000000043b10                __librt_rewinddir_r
                0x0000000000043b28                __librt_seekdir_r
 .opd           0x0000000000043b40       0x18 /opt/ps3dev/psl1ght/ppu/lib/librt.a(mkdir.o)
                0x0000000000043b40                __librt_mkdir_r
 .opd           0x0000000000043b58       0x18 /opt/ps3dev/psl1ght/ppu/lib/librt.a(times.o)
                0x0000000000043b58                __librt_times_r
 .opd           0x0000000000043b70       0x18 /opt/ps3dev/psl1ght/ppu/lib/librt.a(umask.o)
                0x0000000000043b70                __librt_umask_r
 .opd           0x0000000000043b88       0x48 /opt/ps3dev/psl1ght/ppu/lib/librt.a(lv2errno.o)
                0x0000000000043b88                lv2error
                0x0000000000043ba0                lv2errno
                0x0000000000043bb8                lv2errno_r
 .opd           0x0000000000043bd0       0x60 /opt/ps3dev/psl1ght/ppu/lib/librt.a(heap.o)
                0x0000000000043bd0                heapInit
                0x0000000000043be8                heapAllocate
                0x0000000000043c00                heapAllocateAligned
                0x0000000000043c18                heapFree
 .opd           0x0000000000043c30       0x18 /opt/ps3dev/psl1ght/ppu/lib/librt.a(chmod.o)
                0x0000000000043c30                __librt_chmod_r
 .opd           0x0000000000043c48       0x18 /opt/ps3dev/psl1ght/ppu/lib/librt.a(rmdir.o)
                0x0000000000043c48                __librt_rmdir_r
 .opd           0x0000000000043c60       0x18 /opt/ps3dev/psl1ght/ppu/lib/librt.a(isatty.o)
                0x0000000000043c60                __librt_isatty_r
 .opd           0x0000000000043c78       0x18 /opt/ps3dev/psl1ght/ppu/lib/librt.a(gettod.o)
                0x0000000000043c78                __librt_gettod_r
 .opd           0x0000000000043c90       0x18 /opt/ps3dev/psl1ght/ppu/lib/librt.a(settod.o)
                0x0000000000043c90                __librt_settod_r
 .opd           0x0000000000043ca8      0xb28 /opt/ps3dev/psl1ght/ppu/lib/liblv2.a(sprx.o)
                0x0000000000043ca8                sysGetSystemTime
                0x0000000000043cc0                sysGetSystemSwVersion
                0x0000000000043cd8                sysGetTemperature
                0x0000000000043cf0                sysGetRandomNumber
                0x0000000000043d08                sysGetRtcStatus
                0x0000000000043d20                sysBoardStorageRead
                0x0000000000043d38                sysBoardStorageWrite
                0x0000000000043d50                sysProcessIsStack
                0x0000000000043d68                sysProcessExit
                0x0000000000043d80                sysProcessExitspawn
                0x0000000000043d98                sysProcessExitSpawn2Ex
                0x0000000000043db0                sysProcessExitSpawnWithLevel
                0x0000000000043dc8                sysProcessAtExitSpawn
                0x0000000000043de0                sysProcess_At_ExitSpawn
                0x0000000000043df8                sysPrxRegisterLibrary
                0x0000000000043e10                sysPrxUnregisterLibrary
                0x0000000000043e28                sysPrxStartModule
                0x0000000000043e40                sysPrxStopModule
                0x0000000000043e58                sysPrxLoadModule
                0x0000000000043e70                sysPrxLoadModuleByFd
                0x0000000000043e88                sysPrxLoadModuleList
                0x0000000000043ea0                sysPrxLoadModuleListOnMemcontainer
                0x0000000000043eb8                sysPrxLoadModuleOnMemcontainer
                0x0000000000043ed0                sysPrxLoadModuleOnMemcontainerByFd
                0x0000000000043ee8                sysPrxGetModuleInfo
                0x0000000000043f00                sysPrxGetModuleList
                0x0000000000043f18                sysPrxGetModuleId
                0x0000000000043f30                sysPrxGetModuleIdByAddress
                0x0000000000043f48                sysPrxGetModuleIdByName
                0x0000000000043f60                sysPrxUnloadModule
                0x0000000000043f78                sysPrxExitSpawnWithLevel
                0x0000000000043f90                sysThreadCreateEx
                0x0000000000043fa8                sysThreadExit
                0x0000000000043fc0                sysThreadGetId
                0x0000000000043fd8                sysThreadOnce
                0x0000000000043ff0                sysThreadInitialzeTLS
                0x0000000000044008                sysThreadRegisterAtexit
                0x0000000000044020                sysThreadUnregisterAtexit
                0x0000000000044038                sysInterruptThreadDisestablish
                0x0000000000044050                sysLwMutexCreate
                0x0000000000044068                sysLwMutexDestroy
                0x0000000000044080                sysLwMutexLock
                0x0000000000044098                sysLwMutexTryLock
                0x00000000000440b0                sysLwMutexUnlock
                0x00000000000440c8                sysLwCondCreate
                0x00000000000440e0                sysLwCondWait
                0x00000000000440f8                sysLwCondSignal
                0x0000000000044110                sysLwCondSignalTo
                0x0000000000044128                sysLwCondSignalAll
                0x0000000000044140                sysLwCondDestroy
                0x0000000000044158                sysSpinlockInitialize
                0x0000000000044170                sysSpinlockLock
                0x0000000000044188                sysSpinlockTryLock
                0x00000000000441a0                sysSpinlockUnlock
                0x00000000000441b8                sysWatchdogClear
                0x00000000000441d0                sysWatchdogStart
                0x00000000000441e8                sysWatchdogStop
                0x0000000000044200                sysMalloc
                0x0000000000044218                sysMemalign
                0x0000000000044230                sysMemchr
                0x0000000000044248                sysMemcmp
                0x0000000000044260                sysMemcpy
                0x0000000000044278                sysMemmove
                0x0000000000044290                sysMemset
                0x00000000000442a8                sysFree
                0x00000000000442c0                sysHeapAllocHeapMemory
                0x00000000000442d8                sysHeapCreateHeap
                0x00000000000442f0                sysHeapDeleteHeap
                0x0000000000044308                sysHeapFree
                0x0000000000044320                sysHeapGetMallInfo
                0x0000000000044338                sysHeapGetTotalFreeSize
                0x0000000000044350                sysHeapMalloc
                0x0000000000044368                sysHeapMemalign
                0x0000000000044380                sysHeapStats
                0x0000000000044398                sysQsort
                0x00000000000443b0                sysMempoolCreate
                0x00000000000443c8                sysMempoolDestroy
                0x00000000000443e0                sysMempoolGetCount
                0x00000000000443f8                sysMempoolAllocateBlock
                0x0000000000044410                sysMempoolTryAllocateBlock
                0x0000000000044428                sysMempoolFreeBlock
                0x0000000000044440                sysMMapperFreeMemory
                0x0000000000044458                sysMMapperMapMemory
                0x0000000000044470                sysMMapperUnmapMemory
                0x0000000000044488                sysMMapperAllocateMemory
                0x00000000000444a0                sysMMapperAllocateMemoryFromContainer
                0x00000000000444b8                sysStrlen
                0x00000000000444d0                sysStrcpy
                0x00000000000444e8                sysStrncpy
                0x0000000000044500                sysStrcat
                0x0000000000044518                sysStrncat
                0x0000000000044530                sysStrchr
                0x0000000000044548                sysStrrchr
                0x0000000000044560                sysStrcmp
                0x0000000000044578                sysStrncmp
                0x0000000000044590                sysStrncasecmp
                0x00000000000445a8                sysToLower
                0x00000000000445c0                sysToUpper
                0x00000000000445d8                sysSpuElfGetSegments
                0x00000000000445f0                sysSpuElfGetInformation
                0x0000000000044608                sysSpuRawLoad
                0x0000000000044620                sysSpuRawImageLoad
                0x0000000000044638                sysSpuImageClose
                0x0000000000044650                sysSpuImageImport
                0x0000000000044668                sysSpuPrintfAttachGroup
                0x0000000000044680                sysSpuPrintfAttachThread
                0x0000000000044698                sysSpuPrintfDetachGroup
                0x00000000000446b0                sysSpuPrintfDetach_Tread
                0x00000000000446c8                sysSpuPrintfFinalize
                0x00000000000446e0                sysSpuPrintfInitialize
                0x00000000000446f8                sysConsoleGetc
                0x0000000000044710                sysConsolePutc
                0x0000000000044728                sysConsoleWrite
                0x0000000000044740                sysPrintf
                0x0000000000044758                sysSprintf
                0x0000000000044770                sysSnprintf
                0x0000000000044788                sysVprintf
                0x00000000000447a0                sysVsprintf
                0x00000000000447b8                sysVsnprintf
 .opd           0x00000000000447d0       0xc0 /opt/ps3dev/psl1ght/ppu/lib/libsysmodule.a(sprx.o)
                0x00000000000447d0                sysModuleInitialize
                0x00000000000447e8                sysModuleFinalize
                0x0000000000044800                sysModuleLoad
                0x0000000000044818                sysModuleUnload
                0x0000000000044830                sysModuleIsLoaded
                0x0000000000044848                sysModuleGetImagesize
                0x0000000000044860                sysModuleFetchImage
                0x0000000000044878                sysModuleSetMemcontainer
 .opd           0x0000000000044890       0x78 /opt/ps3dev/psl1ght/ppu/lib/libpngdec.a(pngdec.o)
                0x00000000000448d8                pngLoadFromFile
                0x00000000000448f0                pngLoadFromBuffer
 .opd           0x0000000000044908      0x2b8 /opt/ps3dev/psl1ght/ppu/lib/libpngdec.a(sprx.o)
                0x0000000000044908                pngDecCreate
                0x0000000000044920                pngDecDestroy
                0x0000000000044938                pngDecOpen
                0x0000000000044950                pngDecClose
                0x0000000000044968                pngDecReadHeader
                0x0000000000044980                pngDecDecodeData
                0x0000000000044998                pngDecSetParameter
                0x00000000000449b0                pngDecExtCreate
                0x00000000000449c8                pngDecExtOpen
                0x00000000000449e0                pngDecExtReadHeader
                0x00000000000449f8                pngDecExtDecodeData
                0x0000000000044a10                pngDecExtSetParameter
                0x0000000000044a28                pngDecGetbKGD
                0x0000000000044a40                pngDecGetcHRM
                0x0000000000044a58                pngDecGetgAMA
                0x0000000000044a70                pngDecGethIST
                0x0000000000044a88                pngDecGetiCCP
                0x0000000000044aa0                pngDecGetoFFs
                0x0000000000044ab8                pngDecGetpCAL
                0x0000000000044ad0                pngDecGetpHYs
                0x0000000000044ae8                pngDecGetsBIT
                0x0000000000044b00                pngDecGetsCAL
                0x0000000000044b18                pngDecGetsPLT
                0x0000000000044b30                pngDecGetsRGB
                0x0000000000044b48                pngDecGettIME
                0x0000000000044b60                pngDecGettRNS
                0x0000000000044b78                pngDecGetPLTE
                0x0000000000044b90                pngDecUnknownChunks
                0x0000000000044ba8                pngDecGetTextChunk
 .opd           0x0000000000044bc0       0x78 /opt/ps3dev/psl1ght/ppu/lib/libjpgdec.a(jpgdec.o)
                0x0000000000044c08                jpgLoadFromFile
                0x0000000000044c20                jpgLoadFromBuffer
 .opd           0x0000000000044c38       0xa8 /opt/ps3dev/psl1ght/ppu/lib/libjpgdec.a(sprx.o)
                0x0000000000044c38                jpgDecCreate
                0x0000000000044c50                jpgDecDestroy
                0x0000000000044c68                jpgDecOpen
                0x0000000000044c80                jpgDecClose
                0x0000000000044c98                jpgDecReadHeader
                0x0000000000044cb0                jpgDecDecodeData
                0x0000000000044cc8                jpgDecSetParameter
 .opd           0x0000000000044ce0       0x18 /opt/ps3dev/ppu/lib/gcc/powerpc64-ps3-elf/4.7.0/../../../../powerpc64-ps3-elf/lib/libsysbase.a(sbrk.o)
                0x0000000000044ce0                _sbrk_r
 .opd           0x0000000000044cf8       0x18 /opt/ps3dev/ppu/lib/gcc/powerpc64-ps3-elf/4.7.0/../../../../powerpc64-ps3-elf/lib/libsysbase.a(_exit.o)
                0x0000000000044cf8                _exit
 .opd           0x0000000000044d10       0x78 /opt/ps3dev/ppu/lib/gcc/powerpc64-ps3-elf/4.7.0/../../../../powerpc64-ps3-elf/lib/libsysbase.a(lock.o)
                0x0000000000044d10                sys_lwmutex_create
                0x0000000000044d28                sys_lwmutex_destroy
                0x0000000000044d40                sys_lwmutex_lock
                0x0000000000044d58                sys_lwmutex_trylock
                0x0000000000044d70                sys_lwmutex_unlock
 .opd           0x0000000000044d88       0x18 /opt/ps3dev/ppu/lib/gcc/powerpc64-ps3-elf/4.7.0/../../../../powerpc64-ps3-elf/lib/libsysbase.a(getpid.o)
                0x0000000000044d88                _getpid_r
 .opd           0x0000000000044da0       0x18 /opt/ps3dev/ppu/lib/gcc/powerpc64-ps3-elf/4.7.0/../../../../powerpc64-ps3-elf/lib/libsysbase.a(kill.o)
                0x0000000000044da0                _kill_r
 .opd           0x0000000000044db8       0x30 /opt/ps3dev/ppu/lib/gcc/powerpc64-ps3-elf/4.7.0/../../../../powerpc64-ps3-elf/lib/libsysbase.a(sleep.o)
                0x0000000000044db8                usleep
                0x0000000000044dd0                sleep
 .opd           0x0000000000044de8       0x18 /opt/ps3dev/ppu/lib/gcc/powerpc64-ps3-elf/4.7.0/../../../../powerpc64-ps3-elf/lib/libc.a(lib_a-errno.o)
                0x0000000000044de8                __errno
 .opd           0x0000000000044e00       0x30 /opt/ps3dev/ppu/lib/gcc/powerpc64-ps3-elf/4.7.0/../../../../powerpc64-ps3-elf/lib/libc.a(lib_a-sscanf.o)
                0x0000000000044e00                sscanf
                0x0000000000044e18                _sscanf_r
 .opd           0x0000000000044e30       0x78 /opt/ps3dev/ppu/lib/gcc/powerpc64-ps3-elf/4.7.0/../../../../powerpc64-ps3-elf/lib/libc.a(lib_a-stdio.o)
                0x0000000000044e30                __sread
                0x0000000000044e48                __seofread
                0x0000000000044e60                __swrite
                0x0000000000044e78                __sseek
                0x0000000000044e90                __sclose
 .opd           0x0000000000044ea8       0x18 /opt/ps3dev/ppu/lib/gcc/powerpc64-ps3-elf/4.7.0/../../../../powerpc64-ps3-elf/lib/libc.a(lib_a-strncpy.o)
                0x0000000000044ea8                strncpy
 .opd           0x0000000000044ec0       0x18 /opt/ps3dev/ppu/lib/gcc/powerpc64-ps3-elf/4.7.0/../../../../powerpc64-ps3-elf/lib/libc.a(lib_a-svfscanf.o)
                0x0000000000044ec0                __ssvfscanf_r
 .opd           0x0000000000044ed8       0x18 /opt/ps3dev/ppu/lib/gcc/powerpc64-ps3-elf/4.7.0/../../../../powerpc64-ps3-elf/lib/libc.a(lib_a-iswspace.o)
                0x0000000000044ed8                iswspace
 .opd           0x0000000000044ef0       0x30 /opt/ps3dev/ppu/lib/gcc/powerpc64-ps3-elf/4.7.0/../../../../powerpc64-ps3-elf/lib/libc.a(lib_a-mbrtowc.o)
                0x0000000000044ef0                _mbrtowc_r
                0x0000000000044f08                mbrtowc
 .opd           0x0000000000044f20       0x30 /opt/ps3dev/ppu/lib/gcc/powerpc64-ps3-elf/4.7.0/../../../../powerpc64-ps3-elf/lib/libc.a(lib_a-mbtowc_r.o)
                0x0000000000044f20                __ascii_mbtowc
                0x0000000000044f38                _mbtowc_r
 .opd           0x0000000000044f50       0x18 /opt/ps3dev/ppu/lib/gcc/powerpc64-ps3-elf/4.7.0/../../../../powerpc64-ps3-elf/lib/libc.a(lib_a-sccl.o)
                0x0000000000044f50                __sccl
 .opd           0x0000000000044f68       0x18 /opt/ps3dev/ppu/lib/gcc/powerpc64-ps3-elf/4.7.0/../../../../powerpc64-ps3-elf/lib/libc.a(lib_a-sf_nan.o)
                0x0000000000044f68                nanf
 .opd           0x0000000000044f80       0x30 /opt/ps3dev/ppu/lib/gcc/powerpc64-ps3-elf/4.7.0/../../../../powerpc64-ps3-elf/lib/libc.a(lib_a-sprintf.o)
                0x0000000000044f80                _sprintf_r
                0x0000000000044f98                sprintf
 .opd           0x0000000000044fb0       0x48 /opt/ps3dev/ppu/lib/gcc/powerpc64-ps3-elf/4.7.0/../../../../powerpc64-ps3-elf/lib/libc.a(lib_a-strtod.o)
                0x0000000000044fb0                _strtod_r
                0x0000000000044fc8                strtod
                0x0000000000044fe0                strtof
 .opd           0x0000000000044ff8       0x18 /opt/ps3dev/ppu/lib/gcc/powerpc64-ps3-elf/4.7.0/../../../../powerpc64-ps3-elf/lib/libc.a(lib_a-strtoll_r.o)
                0x0000000000044ff8                _strtoll_r
 .opd           0x0000000000045010       0x30 /opt/ps3dev/ppu/lib/gcc/powerpc64-ps3-elf/4.7.0/../../../../powerpc64-ps3-elf/lib/libc.a(lib_a-strtol.o)
                0x0000000000045010                _strtol_r
                0x0000000000045028                strtol
 .opd           0x0000000000045040       0x18 /opt/ps3dev/ppu/lib/gcc/powerpc64-ps3-elf/4.7.0/../../../../powerpc64-ps3-elf/lib/libc.a(lib_a-strtoull_r.o)
                0x0000000000045040                _strtoull_r
 .opd           0x0000000000045058       0x30 /opt/ps3dev/ppu/lib/gcc/powerpc64-ps3-elf/4.7.0/../../../../powerpc64-ps3-elf/lib/libc.a(lib_a-strtoul.o)
                0x0000000000045058                _strtoul_r
                0x0000000000045070                strtoul
 .opd           0x0000000000045088       0x60 /opt/ps3dev/ppu/lib/gcc/powerpc64-ps3-elf/4.7.0/../../../../powerpc64-ps3-elf/lib/libc.a(lib_a-svfiscanf.o)
                0x0000000000045088                _sungetc_r
                0x00000000000450a0                __ssrefill_r
                0x00000000000450b8                _sfread_r
                0x00000000000450d0                __ssvfiscanf_r
 .opd           0x00000000000450e8       0x48 /opt/ps3dev/ppu/lib/gcc/powerpc64-ps3-elf/4.7.0/../../../../powerpc64-ps3-elf/lib/libc.a(lib_a-ungetc.o)
                0x00000000000450e8                __submore
                0x0000000000045100                _ungetc_r
                0x0000000000045118                ungetc
 .opd           0x0000000000045130       0x48 /opt/ps3dev/ppu/lib/gcc/powerpc64-ps3-elf/4.7.0/../../../../powerpc64-ps3-elf/lib/libc.a(lib_a-fflush.o)
                0x0000000000045130                __sflush_r
                0x0000000000045148                _fflush_r
                0x0000000000045160                fflush
 .opd           0x0000000000045178      0x150 /opt/ps3dev/ppu/lib/gcc/powerpc64-ps3-elf/4.7.0/../../../../powerpc64-ps3-elf/lib/libc.a(lib_a-findfp.o)
                0x0000000000045178                _cleanup_r
                0x00000000000451d8                __sfmoreglue
                0x00000000000451f0                _cleanup
                0x0000000000045208                __sfp_lock_acquire
                0x0000000000045220                __sfp_lock_release
                0x0000000000045238                __sinit_lock_acquire
                0x0000000000045250                __sinit_lock_release
                0x0000000000045268                __sinit
                0x0000000000045280                __sfp
                0x0000000000045298                __fp_lock_all
                0x00000000000452b0                __fp_unlock_all
 .opd           0x00000000000452c8       0x30 /opt/ps3dev/ppu/lib/gcc/powerpc64-ps3-elf/4.7.0/../../../../powerpc64-ps3-elf/lib/libc.a(lib_a-fwalk.o)
                0x00000000000452c8                _fwalk
                0x00000000000452e0                _fwalk_reent
 .opd           0x00000000000452f8       0x48 /opt/ps3dev/ppu/lib/gcc/powerpc64-ps3-elf/4.7.0/../../../../powerpc64-ps3-elf/lib/libc.a(lib_a-gdtoa-gethex.o)
                0x0000000000045310                __hexdig_init
                0x0000000000045328                __gethex
 .opd           0x0000000000045340       0x18 /opt/ps3dev/ppu/lib/gcc/powerpc64-ps3-elf/4.7.0/../../../../powerpc64-ps3-elf/lib/libc.a(lib_a-gdtoa-hexnan.o)
                0x0000000000045340                __hexnan
 .opd           0x0000000000045358       0x18 /opt/ps3dev/ppu/lib/gcc/powerpc64-ps3-elf/4.7.0/../../../../powerpc64-ps3-elf/lib/libc.a(lib_a-strncmp.o)
                0x0000000000045358                strncmp
 .opd           0x0000000000045370       0x30 /opt/ps3dev/ppu/lib/gcc/powerpc64-ps3-elf/4.7.0/../../../../powerpc64-ps3-elf/lib/libc.a(lib_a-fclose.o)
                0x0000000000045370                _fclose_r
                0x0000000000045388                fclose
 .opd           0x00000000000453a0       0x18 /opt/ps3dev/ppu/lib/gcc/powerpc64-ps3-elf/4.7.0/../../../../powerpc64-ps3-elf/lib/libsysbase.a(close.o)
                0x00000000000453a0                _close_r
 .opd           0x00000000000453b8       0x18 /opt/ps3dev/ppu/lib/gcc/powerpc64-ps3-elf/4.7.0/../../../../powerpc64-ps3-elf/lib/libsysbase.a(lseek.o)
                0x00000000000453b8                _lseek_r
 .opd           0x00000000000453d0       0x18 /opt/ps3dev/ppu/lib/gcc/powerpc64-ps3-elf/4.7.0/../../../../powerpc64-ps3-elf/lib/libsysbase.a(read.o)
                0x00000000000453d0                _read_r
 .opd           0x00000000000453e8       0x18 /opt/ps3dev/ppu/lib/gcc/powerpc64-ps3-elf/4.7.0/../../../../powerpc64-ps3-elf/lib/libsysbase.a(write.o)
                0x00000000000453e8                _write_r
 .opd           0x0000000000045400       0x18 /opt/ps3dev/ppu/lib/gcc/powerpc64-ps3-elf/4.7.0/crtend.o

.branch_lt      0x0000000000045418        0x0
 *(.branch_lt)
 .branch_lt     0x0000000000045418        0x0 linker stubs

.got            0x0000000000045418      0xe58
 *(.got .toc)
 .toc           0x0000000000045418       0x70 /opt/ps3dev/ppu/lib/gcc/powerpc64-ps3-elf/4.7.0/crtbegin.o
 .toc           0x0000000000045488       0x28 /opt/ps3dev/psl1ght/ppu/lib/librt.a(sbrk.o)
 .toc           0x00000000000454b0        0x8 /opt/ps3dev/ppu/lib/gcc/powerpc64-ps3-elf/4.7.0/crtend.o
 .toc           0x00000000000454b8      0x118 /opt/ps3dev/ppu/lib/gcc/powerpc64-ps3-elf/4.7.0/../../../../powerpc64-ps3-elf/lib/lv2-crt0.o
 .toc           0x00000000000455d0       0x48 main.o
 .toc           0x0000000000045618       0x38 /opt/ps3dev/portlibs/ppu/lib/libya2d.a(ya2d.o)
 .toc           0x0000000000045650       0x10 /opt/ps3dev/portlibs/ppu/lib/libya2d.a(ya2d_controls.o)
 .toc           0x0000000000045660        0x8 /opt/ps3dev/portlibs/ppu/lib/libya2d.a(ya2d_draw.o)
 .toc           0x0000000000045668       0x38 /opt/ps3dev/portlibs/ppu/lib/libya2d.a(ya2d_screen.o)
 .toc           0x00000000000456a0       0x18 /opt/ps3dev/portlibs/ppu/lib/libya2d.a(ya2d_texture.o)
 .toc           0x00000000000456b8       0x28 /opt/ps3dev/portlibs/ppu/lib/libya2d.a(valloc.o)
 .toc           0x00000000000456e0       0x48 /opt/ps3dev/portlibs/ppu/lib/libfont.a(libfont.o)
 .toc           0x0000000000045728       0x38 /opt/ps3dev/portlibs/ppu/lib/libtiny3d.a(matrix.o)
 .toc           0x0000000000045760      0x368 /opt/ps3dev/portlibs/ppu/lib/libtiny3d.a(tiny3d.o)
 .toc           0x0000000000045ac8       0x28 /opt/ps3dev/portlibs/ppu/lib/libtiny3d.a(commands.o)
 .toc           0x0000000000045af0       0x18 /opt/ps3dev/portlibs/ppu/lib/libtiny3d.a(mm.o)
 .toc           0x0000000000045b08       0x60 /opt/ps3dev/portlibs/ppu/lib/libtiny3d.a(rsxutil.o)
 .toc           0x0000000000045b68        0x8 /opt/ps3dev/ppu/lib/gcc/powerpc64-ps3-elf/4.7.0/../../../../powerpc64-ps3-elf/lib/libc.a(lib_a-exit.o)
 .toc           0x0000000000045b70       0x30 /opt/ps3dev/ppu/lib/gcc/powerpc64-ps3-elf/4.7.0/../../../../powerpc64-ps3-elf/lib/libc.a(lib_a-mallocr.o)
 .toc           0x0000000000045ba0        0x8 /opt/ps3dev/ppu/lib/gcc/powerpc64-ps3-elf/4.7.0/../../../../powerpc64-ps3-elf/lib/libc.a(lib_a-mlock.o)
 .toc           0x0000000000045ba8        0x8 /opt/ps3dev/ppu/lib/gcc/powerpc64-ps3-elf/4.7.0/../../../../powerpc64-ps3-elf/lib/libc.a(lib_a-strcasecmp.o)
 .toc           0x0000000000045bb0       0x18 /opt/ps3dev/ppu/lib/gcc/powerpc64-ps3-elf/4.7.0/../../../../powerpc64-ps3-elf/lib/libc.a(lib_a-__atexit.o)
 .toc           0x0000000000045bc8       0x18 /opt/ps3dev/ppu/lib/gcc/powerpc64-ps3-elf/4.7.0/../../../../powerpc64-ps3-elf/lib/libc.a(lib_a-__call_atexit.o)
 .toc           0x0000000000045be0       0x30 /opt/ps3dev/ppu/lib/gcc/powerpc64-ps3-elf/4.7.0/../../../../powerpc64-ps3-elf/lib/libc.a(lib_a-freer.o)
 .toc           0x0000000000045c10        0x8 /opt/ps3dev/ppu/lib/gcc/powerpc64-ps3-elf/4.7.0/../../../../powerpc64-ps3-elf/lib/libc.a(lib_a-getreent.o)
 .toc           0x0000000000045c18        0x8 /opt/ps3dev/ppu/lib/gcc/powerpc64-ps3-elf/4.7.0/../../../../powerpc64-ps3-elf/lib/libc.a(lib_a-lock_recursive.o)
 .toc           0x0000000000045c20       0x60 /opt/ps3dev/ppu/lib/gcc/powerpc64-ps3-elf/4.7.0/../../../../powerpc64-ps3-elf/lib/libc.a(lib_a-svfprintf.o)
 .toc           0x0000000000045c80       0x80 /opt/ps3dev/ppu/lib/gcc/powerpc64-ps3-elf/4.7.0/../../../../powerpc64-ps3-elf/lib/libc.a(lib_a-dtoa.o)
 .toc           0x0000000000045d00       0x38 /opt/ps3dev/ppu/lib/gcc/powerpc64-ps3-elf/4.7.0/../../../../powerpc64-ps3-elf/lib/libc.a(lib_a-locale.o)
 .toc           0x0000000000045d38       0x10 /opt/ps3dev/ppu/lib/gcc/powerpc64-ps3-elf/4.7.0/../../../../powerpc64-ps3-elf/lib/libc.a(lib_a-lock_internal.o)
 .toc           0x0000000000045d48       0x20 /opt/ps3dev/ppu/lib/gcc/powerpc64-ps3-elf/4.7.0/../../../../powerpc64-ps3-elf/lib/libc.a(lib_a-mprec.o)
 .toc           0x0000000000045d68       0x30 /opt/ps3dev/ppu/lib/gcc/powerpc64-ps3-elf/4.7.0/../../../../powerpc64-ps3-elf/lib/libc.a(lib_a-svfiprintf.o)
 .toc           0x0000000000045d98        0x8 /opt/ps3dev/ppu/lib/gcc/powerpc64-ps3-elf/4.7.0/../../../../powerpc64-ps3-elf/lib/libc.a(lib_a-reallocr.o)
 .toc           0x0000000000045da0        0x8 /opt/ps3dev/ppu/lib/gcc/powerpc64-ps3-elf/4.7.0/../../../../powerpc64-ps3-elf/lib/libm.a(lib_a-sf_cos.o)
 .toc           0x0000000000045da8        0x8 /opt/ps3dev/ppu/lib/gcc/powerpc64-ps3-elf/4.7.0/../../../../powerpc64-ps3-elf/lib/libm.a(lib_a-sf_sin.o)
 .toc           0x0000000000045db0        0x8 /opt/ps3dev/ppu/lib/gcc/powerpc64-ps3-elf/4.7.0/../../../../powerpc64-ps3-elf/lib/libm.a(lib_a-sf_tan.o)
 .toc           0x0000000000045db8       0x20 /opt/ps3dev/ppu/lib/gcc/powerpc64-ps3-elf/4.7.0/../../../../powerpc64-ps3-elf/lib/libm.a(lib_a-wf_sqrt.o)
 .toc           0x0000000000045dd8       0x18 /opt/ps3dev/ppu/lib/gcc/powerpc64-ps3-elf/4.7.0/../../../../powerpc64-ps3-elf/lib/libm.a(lib_a-w_sqrt.o)
 .toc           0x0000000000045df0       0x60 /opt/ps3dev/ppu/lib/gcc/powerpc64-ps3-elf/4.7.0/../../../../powerpc64-ps3-elf/lib/libm.a(lib_a-ef_rem_pio2.o)
 .toc           0x0000000000045e50       0x50 /opt/ps3dev/ppu/lib/gcc/powerpc64-ps3-elf/4.7.0/../../../../powerpc64-ps3-elf/lib/libm.a(lib_a-kf_cos.o)
 .toc           0x0000000000045ea0       0x48 /opt/ps3dev/ppu/lib/gcc/powerpc64-ps3-elf/4.7.0/../../../../powerpc64-ps3-elf/lib/libm.a(lib_a-kf_rem_pio2.o)
 .toc           0x0000000000045ee8       0x38 /opt/ps3dev/ppu/lib/gcc/powerpc64-ps3-elf/4.7.0/../../../../powerpc64-ps3-elf/lib/libm.a(lib_a-kf_sin.o)
 .toc           0x0000000000045f20       0x98 /opt/ps3dev/ppu/lib/gcc/powerpc64-ps3-elf/4.7.0/../../../../powerpc64-ps3-elf/lib/libm.a(lib_a-kf_tan.o)
 .toc           0x0000000000045fb8       0x10 /opt/ps3dev/ppu/lib/gcc/powerpc64-ps3-elf/4.7.0/../../../../powerpc64-ps3-elf/lib/libm.a(lib_a-sf_floor.o)
 .toc           0x0000000000045fc8       0x20 /opt/ps3dev/ppu/lib/gcc/powerpc64-ps3-elf/4.7.0/../../../../powerpc64-ps3-elf/lib/libm.a(lib_a-sf_scalbn.o)
 .toc           0x0000000000045fe8        0x8 /opt/ps3dev/psl1ght/ppu/lib/librt.a(open.o)
 .toc           0x0000000000045ff0        0x8 /opt/ps3dev/psl1ght/ppu/lib/librt.a(socket.o)
 .toc           0x0000000000045ff8        0x8 /opt/ps3dev/psl1ght/ppu/lib/librt.a(mkdir.o)
 .toc           0x0000000000046000        0x8 /opt/ps3dev/psl1ght/ppu/lib/librt.a(umask.o)
 .toc           0x0000000000046008       0x10 /opt/ps3dev/psl1ght/ppu/lib/libpngdec.a(pngdec.o)
 .toc           0x0000000000046018       0x10 /opt/ps3dev/psl1ght/ppu/lib/libjpgdec.a(jpgdec.o)
 .toc           0x0000000000046028        0x8 /opt/ps3dev/ppu/lib/gcc/powerpc64-ps3-elf/4.7.0/../../../../powerpc64-ps3-elf/lib/libsysbase.a(sbrk.o)
 .toc           0x0000000000046030        0x8 /opt/ps3dev/ppu/lib/gcc/powerpc64-ps3-elf/4.7.0/../../../../powerpc64-ps3-elf/lib/libsysbase.a(_exit.o)
 .toc           0x0000000000046038        0x8 /opt/ps3dev/ppu/lib/gcc/powerpc64-ps3-elf/4.7.0/../../../../powerpc64-ps3-elf/lib/libsysbase.a(lock.o)
 .toc           0x0000000000046040        0x8 /opt/ps3dev/ppu/lib/gcc/powerpc64-ps3-elf/4.7.0/../../../../powerpc64-ps3-elf/lib/libsysbase.a(getpid.o)
 .toc           0x0000000000046048        0x8 /opt/ps3dev/ppu/lib/gcc/powerpc64-ps3-elf/4.7.0/../../../../powerpc64-ps3-elf/lib/libsysbase.a(sleep.o)
 .toc           0x0000000000046050        0x8 /opt/ps3dev/ppu/lib/gcc/powerpc64-ps3-elf/4.7.0/../../../../powerpc64-ps3-elf/lib/libc.a(lib_a-sscanf.o)
 .toc           0x0000000000046058       0x40 /opt/ps3dev/ppu/lib/gcc/powerpc64-ps3-elf/4.7.0/../../../../powerpc64-ps3-elf/lib/libc.a(lib_a-svfscanf.o)
 .toc           0x0000000000046098        0x8 /opt/ps3dev/ppu/lib/gcc/powerpc64-ps3-elf/4.7.0/../../../../powerpc64-ps3-elf/lib/libc.a(lib_a-iswspace.o)
 .toc           0x00000000000460a0       0x10 /opt/ps3dev/ppu/lib/gcc/powerpc64-ps3-elf/4.7.0/../../../../powerpc64-ps3-elf/lib/libc.a(lib_a-mbrtowc.o)
 .toc           0x00000000000460b0        0x8 /opt/ps3dev/ppu/lib/gcc/powerpc64-ps3-elf/4.7.0/../../../../powerpc64-ps3-elf/lib/libc.a(lib_a-mbtowc_r.o)
 .toc           0x00000000000460b8        0x8 /opt/ps3dev/ppu/lib/gcc/powerpc64-ps3-elf/4.7.0/../../../../powerpc64-ps3-elf/lib/libc.a(lib_a-sf_nan.o)
 .toc           0x00000000000460c0       0xb0 /opt/ps3dev/ppu/lib/gcc/powerpc64-ps3-elf/4.7.0/../../../../powerpc64-ps3-elf/lib/libc.a(lib_a-strtod.o)
 .toc           0x0000000000046170        0x8 /opt/ps3dev/ppu/lib/gcc/powerpc64-ps3-elf/4.7.0/../../../../powerpc64-ps3-elf/lib/libc.a(lib_a-strtoll_r.o)
 .toc           0x0000000000046178        0x8 /opt/ps3dev/ppu/lib/gcc/powerpc64-ps3-elf/4.7.0/../../../../powerpc64-ps3-elf/lib/libc.a(lib_a-strtol.o)
 .toc           0x0000000000046180        0x8 /opt/ps3dev/ppu/lib/gcc/powerpc64-ps3-elf/4.7.0/../../../../powerpc64-ps3-elf/lib/libc.a(lib_a-strtoull_r.o)
 .toc           0x0000000000046188        0x8 /opt/ps3dev/ppu/lib/gcc/powerpc64-ps3-elf/4.7.0/../../../../powerpc64-ps3-elf/lib/libc.a(lib_a-strtoul.o)
 .toc           0x0000000000046190       0x30 /opt/ps3dev/ppu/lib/gcc/powerpc64-ps3-elf/4.7.0/../../../../powerpc64-ps3-elf/lib/libc.a(lib_a-svfiscanf.o)
 .toc           0x00000000000461c0       0x10 /opt/ps3dev/ppu/lib/gcc/powerpc64-ps3-elf/4.7.0/../../../../powerpc64-ps3-elf/lib/libc.a(lib_a-fflush.o)
 .toc           0x00000000000461d0       0x58 /opt/ps3dev/ppu/lib/gcc/powerpc64-ps3-elf/4.7.0/../../../../powerpc64-ps3-elf/lib/libc.a(lib_a-findfp.o)
 .toc           0x0000000000046228       0x20 /opt/ps3dev/ppu/lib/gcc/powerpc64-ps3-elf/4.7.0/../../../../powerpc64-ps3-elf/lib/libc.a(lib_a-gdtoa-gethex.o)
 .toc           0x0000000000046248        0x8 /opt/ps3dev/ppu/lib/gcc/powerpc64-ps3-elf/4.7.0/../../../../powerpc64-ps3-elf/lib/libc.a(lib_a-gdtoa-hexnan.o)
 .toc           0x0000000000046250        0x8 /opt/ps3dev/ppu/lib/gcc/powerpc64-ps3-elf/4.7.0/../../../../powerpc64-ps3-elf/lib/libsysbase.a(close.o)
 .toc           0x0000000000046258        0x8 /opt/ps3dev/ppu/lib/gcc/powerpc64-ps3-elf/4.7.0/../../../../powerpc64-ps3-elf/lib/libsysbase.a(lseek.o)
 .toc           0x0000000000046260        0x8 /opt/ps3dev/ppu/lib/gcc/powerpc64-ps3-elf/4.7.0/../../../../powerpc64-ps3-elf/lib/libsysbase.a(read.o)
 .toc           0x0000000000046268        0x8 /opt/ps3dev/ppu/lib/gcc/powerpc64-ps3-elf/4.7.0/../../../../powerpc64-ps3-elf/lib/libsysbase.a(write.o)
 .toc           0x0000000000046270        0x0 /opt/ps3dev/portlibs/ppu/lib/libya2d.a(ya2d_utils.o)
 .toc           0x0000000000046270        0x0 /opt/ps3dev/portlibs/ppu/lib/libya2d.a(msxfont.o)
 .toc           0x0000000000046270        0x0 /opt/ps3dev/portlibs/ppu/lib/libtiny3d.a(glue.o)
 .toc           0x0000000000046270        0x0 /opt/ps3dev/portlibs/ppu/lib/libtiny3d.a(realityVP.o)
 .toc           0x0000000000046270        0x0 /opt/ps3dev/portlibs/ppu/lib/libtiny3d.a(buffer.o)
 .toc           0x0000000000046270        0x0 /opt/ps3dev/ppu/lib/gcc/powerpc64-ps3-elf/4.7.0/../../../../powerpc64-ps3-elf/lib/libc.a(lib_a-atexit.o)
 .toc           0x0000000000046270        0x0 /opt/ps3dev/ppu/lib/gcc/powerpc64-ps3-elf/4.7.0/../../../../powerpc64-ps3-elf/lib/libc.a(lib_a-impure.o)
 .toc           0x0000000000046270        0x0 /opt/ps3dev/ppu/lib/gcc/powerpc64-ps3-elf/4.7.0/../../../../powerpc64-ps3-elf/lib/libc.a(lib_a-malign.o)
 .toc           0x0000000000046270        0x0 /opt/ps3dev/ppu/lib/gcc/powerpc64-ps3-elf/4.7.0/../../../../powerpc64-ps3-elf/lib/libc.a(lib_a-malignr.o)
 .toc           0x0000000000046270        0x0 /opt/ps3dev/ppu/lib/gcc/powerpc64-ps3-elf/4.7.0/../../../../powerpc64-ps3-elf/lib/libc.a(lib_a-malloc.o)
 .toc           0x0000000000046270        0x0 /opt/ps3dev/ppu/lib/gcc/powerpc64-ps3-elf/4.7.0/../../../../powerpc64-ps3-elf/lib/libc.a(lib_a-memcpy.o)
 .toc           0x0000000000046270        0x0 /opt/ps3dev/ppu/lib/gcc/powerpc64-ps3-elf/4.7.0/../../../../powerpc64-ps3-elf/lib/libc.a(lib_a-memset.o)
 .toc           0x0000000000046270        0x0 /opt/ps3dev/ppu/lib/gcc/powerpc64-ps3-elf/4.7.0/../../../../powerpc64-ps3-elf/lib/libc.a(lib_a-rand.o)
 .toc           0x0000000000046270        0x0 /opt/ps3dev/ppu/lib/gcc/powerpc64-ps3-elf/4.7.0/../../../../powerpc64-ps3-elf/lib/libc.a(lib_a-vsprintf.o)
 .toc           0x0000000000046270        0x0 /opt/ps3dev/ppu/lib/gcc/powerpc64-ps3-elf/4.7.0/../../../../powerpc64-ps3-elf/lib/libc.a(lib_a-ctype_.o)
 .toc           0x0000000000046270        0x0 /opt/ps3dev/ppu/lib/gcc/powerpc64-ps3-elf/4.7.0/../../../../powerpc64-ps3-elf/lib/libc.a(lib_a-memchr.o)
 .toc           0x0000000000046270        0x0 /opt/ps3dev/ppu/lib/gcc/powerpc64-ps3-elf/4.7.0/../../../../powerpc64-ps3-elf/lib/libc.a(lib_a-s_fpclassify.o)
 .toc           0x0000000000046270        0x0 /opt/ps3dev/ppu/lib/gcc/powerpc64-ps3-elf/4.7.0/../../../../powerpc64-ps3-elf/lib/libc.a(lib_a-strcmp.o)
 .toc           0x0000000000046270        0x0 /opt/ps3dev/ppu/lib/gcc/powerpc64-ps3-elf/4.7.0/../../../../powerpc64-ps3-elf/lib/libc.a(lib_a-strlen.o)
 .toc           0x0000000000046270        0x0 /opt/ps3dev/ppu/lib/gcc/powerpc64-ps3-elf/4.7.0/../../../../powerpc64-ps3-elf/lib/libc.a(lib_a-abort.o)
 .toc           0x0000000000046270        0x0 /opt/ps3dev/ppu/lib/gcc/powerpc64-ps3-elf/4.7.0/../../../../powerpc64-ps3-elf/lib/libc.a(lib_a-callocr.o)
 .toc           0x0000000000046270        0x0 /opt/ps3dev/ppu/lib/gcc/powerpc64-ps3-elf/4.7.0/../../../../powerpc64-ps3-elf/lib/libc.a(lib_a-memmove.o)
 .toc           0x0000000000046270        0x0 /opt/ps3dev/ppu/lib/gcc/powerpc64-ps3-elf/4.7.0/../../../../powerpc64-ps3-elf/lib/libc.a(lib_a-signal.o)
 .got           0x0000000000046270        0x0 /opt/ps3dev/psl1ght/ppu/lib/libgcm_sys.a(sprx.o)
 .got           0x0000000000046270        0x0 /opt/ps3dev/psl1ght/ppu/lib/libsysutil.a(sprx.o)
 .toc           0x0000000000046270        0x0 /opt/ps3dev/psl1ght/ppu/lib/libsysutil.a(sysutil_wrapper.o)
 .got           0x0000000000046270        0x0 /opt/ps3dev/psl1ght/ppu/lib/libio.a(sprx.o)
 .toc           0x0000000000046270        0x0 /opt/ps3dev/ppu/lib/gcc/powerpc64-ps3-elf/4.7.0/../../../../powerpc64-ps3-elf/lib/libm.a(lib_a-ef_sqrt.o)
 .toc           0x0000000000046270        0x0 /opt/ps3dev/ppu/lib/gcc/powerpc64-ps3-elf/4.7.0/../../../../powerpc64-ps3-elf/lib/libm.a(lib_a-e_sqrt.o)
 .toc           0x0000000000046270        0x0 /opt/ps3dev/ppu/lib/gcc/powerpc64-ps3-elf/4.7.0/../../../../powerpc64-ps3-elf/lib/libm.a(lib_a-sf_fabs.o)
 .toc           0x0000000000046270        0x0 /opt/ps3dev/ppu/lib/gcc/powerpc64-ps3-elf/4.7.0/../../../../powerpc64-ps3-elf/lib/libm.a(lib_a-sf_fpclassify.o)
 .toc           0x0000000000046270        0x0 /opt/ps3dev/ppu/lib/gcc/powerpc64-ps3-elf/4.7.0/../../../../powerpc64-ps3-elf/lib/libm.a(lib_a-s_lib_ver.o)
 .toc           0x0000000000046270        0x0 /opt/ps3dev/ppu/lib/gcc/powerpc64-ps3-elf/4.7.0/../../../../powerpc64-ps3-elf/lib/libm.a(lib_a-s_matherr.o)
 .toc           0x0000000000046270        0x0 /opt/ps3dev/ppu/lib/gcc/powerpc64-ps3-elf/4.7.0/../../../../powerpc64-ps3-elf/lib/libm.a(lib_a-sf_copysign.o)
 .toc           0x0000000000046270        0x0 /opt/ps3dev/psl1ght/ppu/lib/librt.a(exit.o)
 .toc           0x0000000000046270        0x0 /opt/ps3dev/psl1ght/ppu/lib/librt.a(close.o)
 .toc           0x0000000000046270        0x0 /opt/ps3dev/psl1ght/ppu/lib/librt.a(lseek.o)
 .toc           0x0000000000046270        0x0 /opt/ps3dev/psl1ght/ppu/lib/librt.a(read.o)
 .toc           0x0000000000046270        0x0 /opt/ps3dev/psl1ght/ppu/lib/librt.a(sleep.o)
 .toc           0x0000000000046270        0x0 /opt/ps3dev/psl1ght/ppu/lib/librt.a(write.o)
 .toc           0x0000000000046270        0x0 /opt/ps3dev/psl1ght/ppu/lib/librt.a(fstat.o)
 .toc           0x0000000000046270        0x0 /opt/ps3dev/psl1ght/ppu/lib/librt.a(lock.o)
 .toc           0x0000000000046270        0x0 /opt/ps3dev/psl1ght/ppu/lib/librt.a(dirent.o)
 .toc           0x0000000000046270        0x0 /opt/ps3dev/psl1ght/ppu/lib/librt.a(times.o)
 .toc           0x0000000000046270        0x0 /opt/ps3dev/psl1ght/ppu/lib/librt.a(lv2errno.o)
 .toc           0x0000000000046270        0x0 /opt/ps3dev/psl1ght/ppu/lib/librt.a(heap.o)
 .toc           0x0000000000046270        0x0 /opt/ps3dev/psl1ght/ppu/lib/librt.a(chmod.o)
 .toc           0x0000000000046270        0x0 /opt/ps3dev/psl1ght/ppu/lib/librt.a(rmdir.o)
 .toc           0x0000000000046270        0x0 /opt/ps3dev/psl1ght/ppu/lib/librt.a(isatty.o)
 .toc           0x0000000000046270        0x0 /opt/ps3dev/psl1ght/ppu/lib/librt.a(gettod.o)
 .toc           0x0000000000046270        0x0 /opt/ps3dev/psl1ght/ppu/lib/librt.a(settod.o)
 .got           0x0000000000046270        0x0 /opt/ps3dev/psl1ght/ppu/lib/liblv2.a(sprx.o)
 .got           0x0000000000046270        0x0 /opt/ps3dev/psl1ght/ppu/lib/libsysmodule.a(sprx.o)
 .got           0x0000000000046270        0x0 /opt/ps3dev/psl1ght/ppu/lib/libpngdec.a(sprx.o)
 .got           0x0000000000046270        0x0 /opt/ps3dev/psl1ght/ppu/lib/libjpgdec.a(sprx.o)
 .toc           0x0000000000046270        0x0 /opt/ps3dev/ppu/lib/gcc/powerpc64-ps3-elf/4.7.0/../../../../powerpc64-ps3-elf/lib/libsysbase.a(syscalls.o)
 .toc           0x0000000000046270        0x0 /opt/ps3dev/ppu/lib/gcc/powerpc64-ps3-elf/4.7.0/../../../../powerpc64-ps3-elf/lib/libsysbase.a(kill.o)
 .toc           0x0000000000046270        0x0 /opt/ps3dev/ppu/lib/gcc/powerpc64-ps3-elf/4.7.0/../../../../powerpc64-ps3-elf/lib/libc.a(lib_a-errno.o)
 .toc           0x0000000000046270        0x0 /opt/ps3dev/ppu/lib/gcc/powerpc64-ps3-elf/4.7.0/../../../../powerpc64-ps3-elf/lib/libc.a(lib_a-stdio.o)
 .toc           0x0000000000046270        0x0 /opt/ps3dev/ppu/lib/gcc/powerpc64-ps3-elf/4.7.0/../../../../powerpc64-ps3-elf/lib/libc.a(lib_a-strncpy.o)
 .toc           0x0000000000046270        0x0 /opt/ps3dev/ppu/lib/gcc/powerpc64-ps3-elf/4.7.0/../../../../powerpc64-ps3-elf/lib/libc.a(lib_a-sccl.o)
 .toc           0x0000000000046270        0x0 /opt/ps3dev/ppu/lib/gcc/powerpc64-ps3-elf/4.7.0/../../../../powerpc64-ps3-elf/lib/libc.a(lib_a-sprintf.o)
 .toc           0x0000000000046270        0x0 /opt/ps3dev/ppu/lib/gcc/powerpc64-ps3-elf/4.7.0/../../../../powerpc64-ps3-elf/lib/libc.a(lib_a-ungetc.o)
 .toc           0x0000000000046270        0x0 /opt/ps3dev/ppu/lib/gcc/powerpc64-ps3-elf/4.7.0/../../../../powerpc64-ps3-elf/lib/libc.a(lib_a-fwalk.o)
 .toc           0x0000000000046270        0x0 /opt/ps3dev/ppu/lib/gcc/powerpc64-ps3-elf/4.7.0/../../../../powerpc64-ps3-elf/lib/libc.a(lib_a-strncmp.o)
 .toc           0x0000000000046270        0x0 /opt/ps3dev/ppu/lib/gcc/powerpc64-ps3-elf/4.7.0/../../../../powerpc64-ps3-elf/lib/libc.a(lib_a-fclose.o)

.toc.sceStub
 *(.toc.sceStub)
 *(SORT(.toc.sceStub.*))

.tdata
 *(.tdata .tdata.* .gnu.linkonce.td.*)

.tbss           0x0000000000046270      0x780
 *(.tbss .tbss.* .gnu.linkonce.tb.*)
 .tbss.t_reent  0x0000000000046270      0x778 /opt/ps3dev/ppu/lib/gcc/powerpc64-ps3-elf/4.7.0/../../../../powerpc64-ps3-elf/lib/libc.a(lib_a-getreent.o)
 .tbss.t_reentp
                0x00000000000469e8        0x8 /opt/ps3dev/ppu/lib/gcc/powerpc64-ps3-elf/4.7.0/../../../../powerpc64-ps3-elf/lib/libc.a(lib_a-getreent.o)
 *(.tcommon)
                0x0000000010000000                . = ALIGN (0x10000000)

.rodata         0x0000000010000000     0xed58
 *(.rodata .rodata.* .gnu.linkonce.r.*)
 .rodata        0x0000000010000000       0x18 /opt/ps3dev/ppu/lib/gcc/powerpc64-ps3-elf/4.7.0/../../../../powerpc64-ps3-elf/lib/lv2-crt0.o
                0x0000000010000000                _start
 *fill*         0x0000000010000018       0x28 00
 .rodata        0x0000000010000040     0xbb2f alphaimg.png.o
                0x0000000010000040                alphaimg_png
                0x000000001000bb6b                alphaimg_png_size
                0x000000001000bb6b                alphaimg_png_end
 *fill*         0x000000001000bb6f       0x11 00
 .rodata        0x000000001000bb80     0x1802 pngsample.png.o
                0x000000001000bb80                pngsample_png
                0x000000001000d37e                pngsample_png_size
                0x000000001000d37e                pngsample_png_end
 *fill*         0x000000001000d382        0x2 00
 .rodata.cst4   0x000000001000d384        0xc main.o
 .rodata.str1.8
                0x000000001000d390       0x50 main.o
 .rodata.cst4   0x0000000000000000        0x4 /opt/ps3dev/portlibs/ppu/lib/libya2d.a(ya2d.o)
 .rodata.str1.8
                0x000000001000d3e0       0x23 /opt/ps3dev/portlibs/ppu/lib/libya2d.a(ya2d.o)
 *fill*         0x000000001000d403        0x1 00
 .rodata.cst4   0x000000001000d404        0x4 /opt/ps3dev/portlibs/ppu/lib/libya2d.a(ya2d_draw.o)
 .rodata.cst4   0x000000001000d408        0x4 /opt/ps3dev/portlibs/ppu/lib/libya2d.a(ya2d_screen.o)
 .rodata.cst4   0x000000001000d40c        0x4 /opt/ps3dev/portlibs/ppu/lib/libya2d.a(ya2d_texture.o)
                                          0xc (size before relaxing)
 .rodata.cst4   0x000000001000d410       0x14 /opt/ps3dev/portlibs/ppu/lib/libfont.a(libfont.o)
                                         0x18 (size before relaxing)
 .rodata.cst4   0x000000001000d424        0xc /opt/ps3dev/portlibs/ppu/lib/libtiny3d.a(matrix.o)
                                         0x14 (size before relaxing)
 .rodata.cst8   0x000000001000d430        0x8 /opt/ps3dev/portlibs/ppu/lib/libtiny3d.a(matrix.o)
 .rodata.matrix_ident
                0x000000001000d438       0x40 /opt/ps3dev/portlibs/ppu/lib/libtiny3d.a(matrix.o)
 .rodata.str1.8
                0x000000001000d478      0x112 /opt/ps3dev/portlibs/ppu/lib/libtiny3d.a(tiny3d.o)
 *fill*         0x000000001000d58a        0x2 00
 .rodata.cst4   0x000000001000d58c       0x48 /opt/ps3dev/portlibs/ppu/lib/libtiny3d.a(tiny3d.o)
                                         0x60 (size before relaxing)
 *fill*         0x000000001000d5d4        0x4 00
 .rodata.fpshader_list
                0x000000001000d5d8       0x70 /opt/ps3dev/portlibs/ppu/lib/libtiny3d.a(tiny3d.o)
 .rodata        0x000000001000d648      0xe00 /opt/ps3dev/portlibs/ppu/lib/libtiny3d.a(vshader_text_normal.vcg.o)
                0x000000001000d648                vshader_text_normal_bin
 .rodata.offset_cmds
                0x000000001000e448       0x14 /opt/ps3dev/portlibs/ppu/lib/libtiny3d.a(commands.o)
 .rodata.dma_cmds
                0x000000001000e45c       0x14 /opt/ps3dev/portlibs/ppu/lib/libtiny3d.a(commands.o)
 .rodata.pitch_cmds
                0x000000001000e470       0x14 /opt/ps3dev/portlibs/ppu/lib/libtiny3d.a(commands.o)
 *fill*         0x000000001000e484        0x4 00
 .rodata.str1.8
                0x000000001000e488        0x2 /opt/ps3dev/ppu/lib/gcc/powerpc64-ps3-elf/4.7.0/../../../../powerpc64-ps3-elf/lib/libc.a(lib_a-impure.o)
 *fill*         0x000000001000e48a        0x6 00
 .rodata._global_impure_ptr
                0x000000001000e490        0x8 /opt/ps3dev/ppu/lib/gcc/powerpc64-ps3-elf/4.7.0/../../../../powerpc64-ps3-elf/lib/libc.a(lib_a-impure.o)
                0x000000001000e490                _global_impure_ptr
 .rodata._ctype_
                0x000000001000e498      0x101 /opt/ps3dev/ppu/lib/gcc/powerpc64-ps3-elf/4.7.0/../../../../powerpc64-ps3-elf/lib/libc.a(lib_a-ctype_.o)
                0x000000001000e498                _ctype_
 .rodata.str1.8
                0x0000000000000000        0x2 /opt/ps3dev/ppu/lib/gcc/powerpc64-ps3-elf/4.7.0/../../../../powerpc64-ps3-elf/lib/libc.a(lib_a-getreent.o)
 *fill*         0x000000001000e599        0x3 00
 .rodata.__libc_lock_attributes
                0x000000001000e59c       0x10 /opt/ps3dev/ppu/lib/gcc/powerpc64-ps3-elf/4.7.0/../../../../powerpc64-ps3-elf/lib/libc.a(lib_a-lock_recursive.o)
 *fill*         0x000000001000e5ac        0x4 00
 .rodata.blanks.4726
                0x000000001000e5b0       0x10 /opt/ps3dev/ppu/lib/gcc/powerpc64-ps3-elf/4.7.0/../../../../powerpc64-ps3-elf/lib/libc.a(lib_a-svfprintf.o)
 .rodata.cst8   0x0000000000000000        0x8 /opt/ps3dev/ppu/lib/gcc/powerpc64-ps3-elf/4.7.0/../../../../powerpc64-ps3-elf/lib/libc.a(lib_a-svfprintf.o)
 .rodata.str1.8
                0x000000001000e5c0       0x5a /opt/ps3dev/ppu/lib/gcc/powerpc64-ps3-elf/4.7.0/../../../../powerpc64-ps3-elf/lib/libc.a(lib_a-svfprintf.o)
 *fill*         0x000000001000e61a        0x6 00
 .rodata.zeroes.4727
                0x000000001000e620       0x10 /opt/ps3dev/ppu/lib/gcc/powerpc64-ps3-elf/4.7.0/../../../../powerpc64-ps3-elf/lib/libc.a(lib_a-svfprintf.o)
 .rodata.cst4   0x000000001000e630       0x10 /opt/ps3dev/ppu/lib/gcc/powerpc64-ps3-elf/4.7.0/../../../../powerpc64-ps3-elf/lib/libc.a(lib_a-dtoa.o)
                                         0x18 (size before relaxing)
 .rodata.cst8   0x000000001000e640       0x18 /opt/ps3dev/ppu/lib/gcc/powerpc64-ps3-elf/4.7.0/../../../../powerpc64-ps3-elf/lib/libc.a(lib_a-dtoa.o)
                                         0x20 (size before relaxing)
 .rodata.str1.8
                0x000000001000e658       0x14 /opt/ps3dev/ppu/lib/gcc/powerpc64-ps3-elf/4.7.0/../../../../powerpc64-ps3-elf/lib/libc.a(lib_a-dtoa.o)
                                         0x1a (size before relaxing)
 *fill*         0x000000001000e66c        0x4 00
 .rodata.str1.8
                0x000000001000e670        0xa /opt/ps3dev/ppu/lib/gcc/powerpc64-ps3-elf/4.7.0/../../../../powerpc64-ps3-elf/lib/libc.a(lib_a-locale.o)
                                         0x1a (size before relaxing)
 *fill*         0x000000001000e67a        0x2 00
 .rodata.__libc_lock_attributes
                0x000000001000e67c       0x10 /opt/ps3dev/ppu/lib/gcc/powerpc64-ps3-elf/4.7.0/../../../../powerpc64-ps3-elf/lib/libc.a(lib_a-lock_internal.o)
 .rodata.cst4   0x0000000000000000        0x8 /opt/ps3dev/ppu/lib/gcc/powerpc64-ps3-elf/4.7.0/../../../../powerpc64-ps3-elf/lib/libc.a(lib_a-mprec.o)
 *fill*         0x000000001000e68c        0x4 00
 .rodata.__mprec_tens
                0x000000001000e690       0xc8 /opt/ps3dev/ppu/lib/gcc/powerpc64-ps3-elf/4.7.0/../../../../powerpc64-ps3-elf/lib/libc.a(lib_a-mprec.o)
                0x000000001000e690                __mprec_tens
 .rodata.__mprec_bigtens
                0x000000001000e758       0x28 /opt/ps3dev/ppu/lib/gcc/powerpc64-ps3-elf/4.7.0/../../../../powerpc64-ps3-elf/lib/libc.a(lib_a-mprec.o)
                0x000000001000e758                __mprec_bigtens
 .rodata.p05.3267
                0x000000001000e780        0xc /opt/ps3dev/ppu/lib/gcc/powerpc64-ps3-elf/4.7.0/../../../../powerpc64-ps3-elf/lib/libc.a(lib_a-mprec.o)
 *fill*         0x000000001000e78c        0x4 00
 .rodata.__mprec_tinytens
                0x000000001000e790       0x28 /opt/ps3dev/ppu/lib/gcc/powerpc64-ps3-elf/4.7.0/../../../../powerpc64-ps3-elf/lib/libc.a(lib_a-mprec.o)
                0x000000001000e790                __mprec_tinytens
 .rodata.zeroes.4671
                0x000000001000e7b8       0x10 /opt/ps3dev/ppu/lib/gcc/powerpc64-ps3-elf/4.7.0/../../../../powerpc64-ps3-elf/lib/libc.a(lib_a-svfiprintf.o)
 .rodata.str1.8
                0x0000000000000000       0x37 /opt/ps3dev/ppu/lib/gcc/powerpc64-ps3-elf/4.7.0/../../../../powerpc64-ps3-elf/lib/libc.a(lib_a-svfiprintf.o)
 .rodata.blanks.4670
                0x000000001000e7c8       0x10 /opt/ps3dev/ppu/lib/gcc/powerpc64-ps3-elf/4.7.0/../../../../powerpc64-ps3-elf/lib/libc.a(lib_a-svfiprintf.o)
 .rodata.cst4   0x0000000000000000        0x4 /opt/ps3dev/ppu/lib/gcc/powerpc64-ps3-elf/4.7.0/../../../../powerpc64-ps3-elf/lib/libm.a(lib_a-sf_cos.o)
 .rodata.cst4   0x0000000000000000        0x4 /opt/ps3dev/ppu/lib/gcc/powerpc64-ps3-elf/4.7.0/../../../../powerpc64-ps3-elf/lib/libm.a(lib_a-sf_sin.o)
 .rodata.cst4   0x0000000000000000        0x4 /opt/ps3dev/ppu/lib/gcc/powerpc64-ps3-elf/4.7.0/../../../../powerpc64-ps3-elf/lib/libm.a(lib_a-sf_tan.o)
 .rodata.cst4   0x0000000000000000        0x4 /opt/ps3dev/ppu/lib/gcc/powerpc64-ps3-elf/4.7.0/../../../../powerpc64-ps3-elf/lib/libm.a(lib_a-wf_sqrt.o)
 .rodata.cst8   0x0000000000000000        0x8 /opt/ps3dev/ppu/lib/gcc/powerpc64-ps3-elf/4.7.0/../../../../powerpc64-ps3-elf/lib/libm.a(lib_a-wf_sqrt.o)
 .rodata.str1.8
                0x000000001000e7d8        0x6 /opt/ps3dev/ppu/lib/gcc/powerpc64-ps3-elf/4.7.0/../../../../powerpc64-ps3-elf/lib/libm.a(lib_a-wf_sqrt.o)
 .rodata.cst8   0x0000000000000000        0x8 /opt/ps3dev/ppu/lib/gcc/powerpc64-ps3-elf/4.7.0/../../../../powerpc64-ps3-elf/lib/libm.a(lib_a-w_sqrt.o)
 *fill*         0x000000001000e7de        0x2 00
 .rodata.str1.8
                0x000000001000e7e0        0x5 /opt/ps3dev/ppu/lib/gcc/powerpc64-ps3-elf/4.7.0/../../../../powerpc64-ps3-elf/lib/libm.a(lib_a-w_sqrt.o)
 *fill*         0x000000001000e7e5        0x3 00
 .rodata.cst4   0x000000001000e7e8       0x20 /opt/ps3dev/ppu/lib/gcc/powerpc64-ps3-elf/4.7.0/../../../../powerpc64-ps3-elf/lib/libm.a(lib_a-ef_rem_pio2.o)
                                         0x28 (size before relaxing)
 .rodata.npio2_hw
                0x000000001000e808       0x80 /opt/ps3dev/ppu/lib/gcc/powerpc64-ps3-elf/4.7.0/../../../../powerpc64-ps3-elf/lib/libm.a(lib_a-ef_rem_pio2.o)
 .rodata.two_over_pi
                0x000000001000e888      0x318 /opt/ps3dev/ppu/lib/gcc/powerpc64-ps3-elf/4.7.0/../../../../powerpc64-ps3-elf/lib/libm.a(lib_a-ef_rem_pio2.o)
 .rodata.cst4   0x000000001000eba0       0x20 /opt/ps3dev/ppu/lib/gcc/powerpc64-ps3-elf/4.7.0/../../../../powerpc64-ps3-elf/lib/libm.a(lib_a-kf_cos.o)
                                         0x28 (size before relaxing)
 .rodata.cst4   0x000000001000ebc0        0xc /opt/ps3dev/ppu/lib/gcc/powerpc64-ps3-elf/4.7.0/../../../../powerpc64-ps3-elf/lib/libm.a(lib_a-kf_rem_pio2.o)
                                         0x1c (size before relaxing)
 .rodata.init_jk
                0x000000001000ebcc        0xc /opt/ps3dev/ppu/lib/gcc/powerpc64-ps3-elf/4.7.0/../../../../powerpc64-ps3-elf/lib/libm.a(lib_a-kf_rem_pio2.o)
 .rodata.PIo2   0x000000001000ebd8       0x2c /opt/ps3dev/ppu/lib/gcc/powerpc64-ps3-elf/4.7.0/../../../../powerpc64-ps3-elf/lib/libm.a(lib_a-kf_rem_pio2.o)
 .rodata.cst4   0x000000001000ec04       0x18 /opt/ps3dev/ppu/lib/gcc/powerpc64-ps3-elf/4.7.0/../../../../powerpc64-ps3-elf/lib/libm.a(lib_a-kf_sin.o)
                                         0x1c (size before relaxing)
 .rodata.cst4   0x000000001000ec1c       0x44 /opt/ps3dev/ppu/lib/gcc/powerpc64-ps3-elf/4.7.0/../../../../powerpc64-ps3-elf/lib/libm.a(lib_a-kf_tan.o)
                                         0x4c (size before relaxing)
 .rodata.cst4   0x000000001000ec60        0x4 /opt/ps3dev/ppu/lib/gcc/powerpc64-ps3-elf/4.7.0/../../../../powerpc64-ps3-elf/lib/libm.a(lib_a-sf_floor.o)
                                          0x8 (size before relaxing)
 .rodata.cst4   0x000000001000ec64        0xc /opt/ps3dev/ppu/lib/gcc/powerpc64-ps3-elf/4.7.0/../../../../powerpc64-ps3-elf/lib/libm.a(lib_a-sf_scalbn.o)
                                         0x10 (size before relaxing)
 .rodata.str1.8
                0x000000001000ec70        0xc /opt/ps3dev/psl1ght/ppu/lib/librt.a(socket.o)
 *fill*         0x000000001000ec7c        0x4 00
 .rodata.str1.8
                0x000000001000ec80        0x5 /opt/ps3dev/ppu/lib/gcc/powerpc64-ps3-elf/4.7.0/../../../../powerpc64-ps3-elf/lib/libc.a(lib_a-svfscanf.o)
 *fill*         0x000000001000ec85        0x1 00
 .rodata.basefix.4642
                0x000000001000ec86       0x22 /opt/ps3dev/ppu/lib/gcc/powerpc64-ps3-elf/4.7.0/../../../../powerpc64-ps3-elf/lib/libc.a(lib_a-svfscanf.o)
 .rodata.str1.8
                0x0000000000000000        0x1 /opt/ps3dev/ppu/lib/gcc/powerpc64-ps3-elf/4.7.0/../../../../powerpc64-ps3-elf/lib/libc.a(lib_a-mbrtowc.o)
 .rodata.cst4   0x000000001000eca8        0x4 /opt/ps3dev/ppu/lib/gcc/powerpc64-ps3-elf/4.7.0/../../../../powerpc64-ps3-elf/lib/libc.a(lib_a-sf_nan.o)
 .rodata.cst4   0x000000001000ecac        0x4 /opt/ps3dev/ppu/lib/gcc/powerpc64-ps3-elf/4.7.0/../../../../powerpc64-ps3-elf/lib/libc.a(lib_a-strtod.o)
                                         0x14 (size before relaxing)
 .rodata.cst8   0x000000001000ecb0       0x20 /opt/ps3dev/ppu/lib/gcc/powerpc64-ps3-elf/4.7.0/../../../../powerpc64-ps3-elf/lib/libc.a(lib_a-strtod.o)
                                         0x28 (size before relaxing)
 .rodata.str1.8
                0x000000001000ecd0       0x13 /opt/ps3dev/ppu/lib/gcc/powerpc64-ps3-elf/4.7.0/../../../../powerpc64-ps3-elf/lib/libc.a(lib_a-strtod.o)
 *fill*         0x000000001000ece3        0x5 00
 .rodata.tinytens
                0x000000001000ece8       0x28 /opt/ps3dev/ppu/lib/gcc/powerpc64-ps3-elf/4.7.0/../../../../powerpc64-ps3-elf/lib/libc.a(lib_a-strtod.o)
 .rodata.basefix.4142
                0x000000001000ed10       0x22 /opt/ps3dev/ppu/lib/gcc/powerpc64-ps3-elf/4.7.0/../../../../powerpc64-ps3-elf/lib/libc.a(lib_a-svfiscanf.o)
 *fill*         0x000000001000ed32        0x6 00
 .rodata.str1.8
                0x000000001000ed38       0x20 /opt/ps3dev/ppu/lib/gcc/powerpc64-ps3-elf/4.7.0/../../../../powerpc64-ps3-elf/lib/libc.a(lib_a-gdtoa-gethex.o)
                                         0x1b (size before relaxing)

.rodata1
 *(.rodata1)

.spu_image
 *(.spu_image .spu_image.*)
                0x0000000010010000                . = ALIGN (0x10000)

.data           0x0000000010010000     0x20d8
 *(.data .data.* .gnu.linkonce.d.*)
 .data          0x0000000010010000        0x0 /opt/ps3dev/ppu/lib/gcc/powerpc64-ps3-elf/4.7.0/../../../../powerpc64-ps3-elf/lib/lv2-crti.o
 .data          0x0000000010010000        0x0 /opt/ps3dev/ppu/lib/gcc/powerpc64-ps3-elf/4.7.0/crtbegin.o
 .data.__dso_handle
                0x0000000010010000        0x8 /opt/ps3dev/ppu/lib/gcc/powerpc64-ps3-elf/4.7.0/crtbegin.o
                0x0000000010010000                __dso_handle
 .data          0x0000000010010008        0x0 /opt/ps3dev/ppu/lib/gcc/powerpc64-ps3-elf/4.7.0/../../../../powerpc64-ps3-elf/lib/lv2-crt0.o
 .data          0x0000000010010008        0x0 /opt/ps3dev/ppu/lib/gcc/powerpc64-ps3-elf/4.7.0/../../../../powerpc64-ps3-elf/lib/lv2-sprx.o
 .data          0x0000000010010008        0x0 alphaimg.png.o
 .data          0x0000000010010008        0x0 pngsample.png.o
 .data          0x0000000010010008        0x0 main.o
 .data          0x0000000010010008        0x0 /opt/ps3dev/portlibs/ppu/lib/libya2d.a(ya2d.o)
 .data          0x0000000010010008        0x0 /opt/ps3dev/portlibs/ppu/lib/libya2d.a(ya2d_controls.o)
 .data          0x0000000010010008        0x0 /opt/ps3dev/portlibs/ppu/lib/libya2d.a(ya2d_draw.o)
 .data          0x0000000010010008        0x0 /opt/ps3dev/portlibs/ppu/lib/libya2d.a(ya2d_screen.o)
 .data          0x0000000010010008        0x0 /opt/ps3dev/portlibs/ppu/lib/libya2d.a(ya2d_texture.o)
 .data          0x0000000010010008        0x0 /opt/ps3dev/portlibs/ppu/lib/libya2d.a(ya2d_utils.o)
 .data          0x0000000010010008        0x0 /opt/ps3dev/portlibs/ppu/lib/libya2d.a(msxfont.o)
 .data.msxfont  0x0000000010010008      0x800 /opt/ps3dev/portlibs/ppu/lib/libya2d.a(msxfont.o)
                0x0000000010010008                msxfont
 .data          0x0000000010010808        0x0 /opt/ps3dev/portlibs/ppu/lib/libya2d.a(valloc.o)
 .data          0x0000000010010808        0x0 /opt/ps3dev/portlibs/ppu/lib/libfont.a(libfont.o)
 .data          0x0000000010010808        0x0 /opt/ps3dev/portlibs/ppu/lib/libtiny3d.a(matrix.o)
 .data          0x0000000010010808        0x0 /opt/ps3dev/portlibs/ppu/lib/libtiny3d.a(tiny3d.o)
 .data.nv30_fp_texture_color2_alt
                0x0000000010010808       0x7c /opt/ps3dev/portlibs/ppu/lib/libtiny3d.a(tiny3d.o)
 .data.scale2D_x_viewport
                0x0000000010010884        0x4 /opt/ps3dev/portlibs/ppu/lib/libtiny3d.a(tiny3d.o)
 .data.nv30_fp_yuv
                0x0000000010010888      0x11c /opt/ps3dev/portlibs/ppu/lib/libtiny3d.a(tiny3d.o)
 .data.scale2D_x_surface
                0x00000000100109a4        0x4 /opt/ps3dev/portlibs/ppu/lib/libtiny3d.a(tiny3d.o)
 .data.scale2D_y_surface
                0x00000000100109a8        0x4 /opt/ps3dev/portlibs/ppu/lib/libtiny3d.a(tiny3d.o)
 .data.nv30_fp_yuv8
                0x00000000100109ac      0x17c /opt/ps3dev/portlibs/ppu/lib/libtiny3d.a(tiny3d.o)
 .data.nv30_fp_texture_color
                0x0000000010010b28       0x2c /opt/ps3dev/portlibs/ppu/lib/libtiny3d.a(tiny3d.o)
 .data.nv30_fp_yuv_color8
                0x0000000010010b54      0x17c /opt/ps3dev/portlibs/ppu/lib/libtiny3d.a(tiny3d.o)
 .data.min_vertex
                0x0000000010010cd0        0x4 /opt/ps3dev/portlibs/ppu/lib/libtiny3d.a(tiny3d.o)
 .data.nv30_fp_yuv_color
                0x0000000010010cd4      0x12c /opt/ps3dev/portlibs/ppu/lib/libtiny3d.a(tiny3d.o)
 .data.scale3D_x_viewport
                0x0000000010010e00        0x4 /opt/ps3dev/portlibs/ppu/lib/libtiny3d.a(tiny3d.o)
 .data.mod_vertex
                0x0000000010010e04        0x4 /opt/ps3dev/portlibs/ppu/lib/libtiny3d.a(tiny3d.o)
 .data.size_rsx_vertex
                0x0000000010010e08        0x4 /opt/ps3dev/portlibs/ppu/lib/libtiny3d.a(tiny3d.o)
 .data.nv30_fp_texture
                0x0000000010010e0c       0x1c /opt/ps3dev/portlibs/ppu/lib/libtiny3d.a(tiny3d.o)
 .data.nv30_fp_color
                0x0000000010010e28       0x1c /opt/ps3dev/portlibs/ppu/lib/libtiny3d.a(tiny3d.o)
 .data.scale3D_y_viewport
                0x0000000010010e44        0x4 /opt/ps3dev/portlibs/ppu/lib/libtiny3d.a(tiny3d.o)
 .data.matrix_ident
                0x0000000010010e48       0x40 /opt/ps3dev/portlibs/ppu/lib/libtiny3d.a(tiny3d.o)
 .data.nv30_fp_texture2_alt
                0x0000000010010e88       0x6c /opt/ps3dev/portlibs/ppu/lib/libtiny3d.a(tiny3d.o)
 .data.current_shader
                0x0000000010010ef4        0x4 /opt/ps3dev/portlibs/ppu/lib/libtiny3d.a(tiny3d.o)
 .data.nv30_fp_texture_color2
                0x0000000010010ef8       0x4c /opt/ps3dev/portlibs/ppu/lib/libtiny3d.a(tiny3d.o)
 .data.nv30_fp_texture2_alt2
                0x0000000010010f44       0x5c /opt/ps3dev/portlibs/ppu/lib/libtiny3d.a(tiny3d.o)
 .data.nv30_fp_texture_color2_alt2
                0x0000000010010fa0       0x6c /opt/ps3dev/portlibs/ppu/lib/libtiny3d.a(tiny3d.o)
 .data.nv30_fp_texture2
                0x000000001001100c       0x3c /opt/ps3dev/portlibs/ppu/lib/libtiny3d.a(tiny3d.o)
 .data.scale2D_y_viewport
                0x0000000010011048        0x4 /opt/ps3dev/portlibs/ppu/lib/libtiny3d.a(tiny3d.o)
 .data.polygon  0x000000001001104c        0x4 /opt/ps3dev/portlibs/ppu/lib/libtiny3d.a(tiny3d.o)
 .data          0x0000000010011050        0x0 /opt/ps3dev/portlibs/ppu/lib/libtiny3d.a(vshader_text_normal.vcg.o)
 .data          0x0000000010011050        0x0 /opt/ps3dev/portlibs/ppu/lib/libtiny3d.a(commands.o)
 .data          0x0000000010011050        0x0 /opt/ps3dev/portlibs/ppu/lib/libtiny3d.a(glue.o)
 .data          0x0000000010011050        0x0 /opt/ps3dev/portlibs/ppu/lib/libtiny3d.a(mm.o)
 .data          0x0000000010011050        0x0 /opt/ps3dev/portlibs/ppu/lib/libtiny3d.a(realityVP.o)
 .data          0x0000000010011050        0x0 /opt/ps3dev/portlibs/ppu/lib/libtiny3d.a(rsxutil.o)
 .data          0x0000000010011050        0x0 /opt/ps3dev/portlibs/ppu/lib/libtiny3d.a(buffer.o)
 .data          0x0000000010011050        0x0 /opt/ps3dev/ppu/lib/gcc/powerpc64-ps3-elf/4.7.0/../../../../powerpc64-ps3-elf/lib/libc.a(lib_a-atexit.o)
 .data          0x0000000010011050        0x0 /opt/ps3dev/ppu/lib/gcc/powerpc64-ps3-elf/4.7.0/../../../../powerpc64-ps3-elf/lib/libc.a(lib_a-exit.o)
 .data          0x0000000010011050        0x0 /opt/ps3dev/ppu/lib/gcc/powerpc64-ps3-elf/4.7.0/../../../../powerpc64-ps3-elf/lib/libc.a(lib_a-impure.o)
 .data.impure_data
                0x0000000010011050      0x778 /opt/ps3dev/ppu/lib/gcc/powerpc64-ps3-elf/4.7.0/../../../../powerpc64-ps3-elf/lib/libc.a(lib_a-impure.o)
 .data._impure_ptr
                0x00000000100117c8        0x8 /opt/ps3dev/ppu/lib/gcc/powerpc64-ps3-elf/4.7.0/../../../../powerpc64-ps3-elf/lib/libc.a(lib_a-impure.o)
                0x00000000100117c8                _impure_ptr
 .data          0x00000000100117d0        0x0 /opt/ps3dev/ppu/lib/gcc/powerpc64-ps3-elf/4.7.0/../../../../powerpc64-ps3-elf/lib/libc.a(lib_a-malign.o)
 .data          0x00000000100117d0        0x0 /opt/ps3dev/ppu/lib/gcc/powerpc64-ps3-elf/4.7.0/../../../../powerpc64-ps3-elf/lib/libc.a(lib_a-malignr.o)
 .data          0x00000000100117d0        0x0 /opt/ps3dev/ppu/lib/gcc/powerpc64-ps3-elf/4.7.0/../../../../powerpc64-ps3-elf/lib/libc.a(lib_a-malloc.o)
 .data          0x00000000100117d0        0x0 /opt/ps3dev/ppu/lib/gcc/powerpc64-ps3-elf/4.7.0/../../../../powerpc64-ps3-elf/lib/libc.a(lib_a-mallocr.o)
 .data.rel.__malloc_av_
                0x00000000100117d0      0x810 /opt/ps3dev/ppu/lib/gcc/powerpc64-ps3-elf/4.7.0/../../../../powerpc64-ps3-elf/lib/libc.a(lib_a-mallocr.o)
                0x00000000100117d0                __malloc_av_
 .data.__malloc_trim_threshold
                0x0000000010011fe0        0x8 /opt/ps3dev/ppu/lib/gcc/powerpc64-ps3-elf/4.7.0/../../../../powerpc64-ps3-elf/lib/libc.a(lib_a-mallocr.o)
                0x0000000010011fe0                __malloc_trim_threshold
 .data.__malloc_sbrk_base
                0x0000000010011fe8        0x8 /opt/ps3dev/ppu/lib/gcc/powerpc64-ps3-elf/4.7.0/../../../../powerpc64-ps3-elf/lib/libc.a(lib_a-mallocr.o)
                0x0000000010011fe8                __malloc_sbrk_base
 .data          0x0000000010011ff0        0x0 /opt/ps3dev/ppu/lib/gcc/powerpc64-ps3-elf/4.7.0/../../../../powerpc64-ps3-elf/lib/libc.a(lib_a-memcpy.o)
 .data          0x0000000010011ff0        0x0 /opt/ps3dev/ppu/lib/gcc/powerpc64-ps3-elf/4.7.0/../../../../powerpc64-ps3-elf/lib/libc.a(lib_a-memset.o)
 .data          0x0000000010011ff0        0x0 /opt/ps3dev/ppu/lib/gcc/powerpc64-ps3-elf/4.7.0/../../../../powerpc64-ps3-elf/lib/libc.a(lib_a-mlock.o)
 .data          0x0000000010011ff0        0x0 /opt/ps3dev/ppu/lib/gcc/powerpc64-ps3-elf/4.7.0/../../../../powerpc64-ps3-elf/lib/libc.a(lib_a-rand.o)
 .data          0x0000000010011ff0        0x0 /opt/ps3dev/ppu/lib/gcc/powerpc64-ps3-elf/4.7.0/../../../../powerpc64-ps3-elf/lib/libc.a(lib_a-strcasecmp.o)
 .data          0x0000000010011ff0        0x0 /opt/ps3dev/ppu/lib/gcc/powerpc64-ps3-elf/4.7.0/../../../../powerpc64-ps3-elf/lib/libc.a(lib_a-vsprintf.o)
 .data          0x0000000010011ff0        0x0 /opt/ps3dev/ppu/lib/gcc/powerpc64-ps3-elf/4.7.0/../../../../powerpc64-ps3-elf/lib/libc.a(lib_a-__atexit.o)
 .data          0x0000000010011ff0        0x0 /opt/ps3dev/ppu/lib/gcc/powerpc64-ps3-elf/4.7.0/../../../../powerpc64-ps3-elf/lib/libc.a(lib_a-__call_atexit.o)
 .data          0x0000000010011ff0        0x0 /opt/ps3dev/ppu/lib/gcc/powerpc64-ps3-elf/4.7.0/../../../../powerpc64-ps3-elf/lib/libc.a(lib_a-ctype_.o)
 .data.rel.__ctype_ptr__
                0x0000000010011ff0        0x8 /opt/ps3dev/ppu/lib/gcc/powerpc64-ps3-elf/4.7.0/../../../../powerpc64-ps3-elf/lib/libc.a(lib_a-ctype_.o)
                0x0000000010011ff0                __ctype_ptr__
 .data          0x0000000010011ff8        0x0 /opt/ps3dev/ppu/lib/gcc/powerpc64-ps3-elf/4.7.0/../../../../powerpc64-ps3-elf/lib/libc.a(lib_a-freer.o)
 .data          0x0000000010011ff8        0x0 /opt/ps3dev/ppu/lib/gcc/powerpc64-ps3-elf/4.7.0/../../../../powerpc64-ps3-elf/lib/libc.a(lib_a-getreent.o)
 .data          0x0000000010011ff8        0x0 /opt/ps3dev/ppu/lib/gcc/powerpc64-ps3-elf/4.7.0/../../../../powerpc64-ps3-elf/lib/libc.a(lib_a-lock_recursive.o)
 .data          0x0000000010011ff8        0x0 /opt/ps3dev/ppu/lib/gcc/powerpc64-ps3-elf/4.7.0/../../../../powerpc64-ps3-elf/lib/libc.a(lib_a-svfprintf.o)
 .data          0x0000000010011ff8        0x0 /opt/ps3dev/ppu/lib/gcc/powerpc64-ps3-elf/4.7.0/../../../../powerpc64-ps3-elf/lib/libc.a(lib_a-dtoa.o)
 .data          0x0000000010011ff8        0x0 /opt/ps3dev/ppu/lib/gcc/powerpc64-ps3-elf/4.7.0/../../../../powerpc64-ps3-elf/lib/libc.a(lib_a-locale.o)
 .data.lc_message_charset
                0x0000000010011ff8       0x20 /opt/ps3dev/ppu/lib/gcc/powerpc64-ps3-elf/4.7.0/../../../../powerpc64-ps3-elf/lib/libc.a(lib_a-locale.o)
 .data.lconv    0x0000000010012018       0x60 /opt/ps3dev/ppu/lib/gcc/powerpc64-ps3-elf/4.7.0/../../../../powerpc64-ps3-elf/lib/libc.a(lib_a-locale.o)
 .data.lc_ctype_charset
                0x0000000010012078       0x20 /opt/ps3dev/ppu/lib/gcc/powerpc64-ps3-elf/4.7.0/../../../../powerpc64-ps3-elf/lib/libc.a(lib_a-locale.o)
 .data.__mb_cur_max
                0x0000000010012098        0x4 /opt/ps3dev/ppu/lib/gcc/powerpc64-ps3-elf/4.7.0/../../../../powerpc64-ps3-elf/lib/libc.a(lib_a-locale.o)
                0x0000000010012098                __mb_cur_max
 .data          0x000000001001209c        0x0 /opt/ps3dev/ppu/lib/gcc/powerpc64-ps3-elf/4.7.0/../../../../powerpc64-ps3-elf/lib/libc.a(lib_a-lock_internal.o)
 .data          0x000000001001209c        0x0 /opt/ps3dev/ppu/lib/gcc/powerpc64-ps3-elf/4.7.0/../../../../powerpc64-ps3-elf/lib/libc.a(lib_a-memchr.o)
 .data          0x000000001001209c        0x0 /opt/ps3dev/ppu/lib/gcc/powerpc64-ps3-elf/4.7.0/../../../../powerpc64-ps3-elf/lib/libc.a(lib_a-mprec.o)
 .data          0x000000001001209c        0x0 /opt/ps3dev/ppu/lib/gcc/powerpc64-ps3-elf/4.7.0/../../../../powerpc64-ps3-elf/lib/libc.a(lib_a-s_fpclassify.o)
 .data          0x000000001001209c        0x0 /opt/ps3dev/ppu/lib/gcc/powerpc64-ps3-elf/4.7.0/../../../../powerpc64-ps3-elf/lib/libc.a(lib_a-strcmp.o)
 .data          0x000000001001209c        0x0 /opt/ps3dev/ppu/lib/gcc/powerpc64-ps3-elf/4.7.0/../../../../powerpc64-ps3-elf/lib/libc.a(lib_a-strlen.o)
 .data          0x000000001001209c        0x0 /opt/ps3dev/ppu/lib/gcc/powerpc64-ps3-elf/4.7.0/../../../../powerpc64-ps3-elf/lib/libc.a(lib_a-svfiprintf.o)
 .data          0x000000001001209c        0x0 /opt/ps3dev/ppu/lib/gcc/powerpc64-ps3-elf/4.7.0/../../../../powerpc64-ps3-elf/lib/libc.a(lib_a-abort.o)
 .data          0x000000001001209c        0x0 /opt/ps3dev/ppu/lib/gcc/powerpc64-ps3-elf/4.7.0/../../../../powerpc64-ps3-elf/lib/libc.a(lib_a-callocr.o)
 .data          0x000000001001209c        0x0 /opt/ps3dev/ppu/lib/gcc/powerpc64-ps3-elf/4.7.0/../../../../powerpc64-ps3-elf/lib/libc.a(lib_a-memmove.o)
 .data          0x000000001001209c        0x0 /opt/ps3dev/ppu/lib/gcc/powerpc64-ps3-elf/4.7.0/../../../../powerpc64-ps3-elf/lib/libc.a(lib_a-reallocr.o)
 .data          0x000000001001209c        0x0 /opt/ps3dev/ppu/lib/gcc/powerpc64-ps3-elf/4.7.0/../../../../powerpc64-ps3-elf/lib/libc.a(lib_a-signal.o)
 .data          0x000000001001209c        0x0 /opt/ps3dev/psl1ght/ppu/lib/libgcm_sys.a(sprx.o)
 .data          0x000000001001209c        0x0 /opt/ps3dev/psl1ght/ppu/lib/libsysutil.a(sprx.o)
 .data          0x000000001001209c        0x0 /opt/ps3dev/psl1ght/ppu/lib/libsysutil.a(sysutil_wrapper.o)
 .data          0x000000001001209c        0x0 /opt/ps3dev/psl1ght/ppu/lib/libio.a(sprx.o)
 .data          0x000000001001209c        0x0 /opt/ps3dev/ppu/lib/gcc/powerpc64-ps3-elf/4.7.0/../../../../powerpc64-ps3-elf/lib/libm.a(lib_a-sf_cos.o)
 .data          0x000000001001209c        0x0 /opt/ps3dev/ppu/lib/gcc/powerpc64-ps3-elf/4.7.0/../../../../powerpc64-ps3-elf/lib/libm.a(lib_a-sf_sin.o)
 .data          0x000000001001209c        0x0 /opt/ps3dev/ppu/lib/gcc/powerpc64-ps3-elf/4.7.0/../../../../powerpc64-ps3-elf/lib/libm.a(lib_a-sf_tan.o)
 .data          0x000000001001209c        0x0 /opt/ps3dev/ppu/lib/gcc/powerpc64-ps3-elf/4.7.0/../../../../powerpc64-ps3-elf/lib/libm.a(lib_a-wf_sqrt.o)
 .data          0x000000001001209c        0x0 /opt/ps3dev/ppu/lib/gcc/powerpc64-ps3-elf/4.7.0/../../../../powerpc64-ps3-elf/lib/libm.a(lib_a-w_sqrt.o)
 .data          0x000000001001209c        0x0 /opt/ps3dev/ppu/lib/gcc/powerpc64-ps3-elf/4.7.0/../../../../powerpc64-ps3-elf/lib/libm.a(lib_a-ef_rem_pio2.o)
 .data          0x000000001001209c        0x0 /opt/ps3dev/ppu/lib/gcc/powerpc64-ps3-elf/4.7.0/../../../../powerpc64-ps3-elf/lib/libm.a(lib_a-ef_sqrt.o)
 .data          0x000000001001209c        0x0 /opt/ps3dev/ppu/lib/gcc/powerpc64-ps3-elf/4.7.0/../../../../powerpc64-ps3-elf/lib/libm.a(lib_a-e_sqrt.o)
 .data          0x000000001001209c        0x0 /opt/ps3dev/ppu/lib/gcc/powerpc64-ps3-elf/4.7.0/../../../../powerpc64-ps3-elf/lib/libm.a(lib_a-kf_cos.o)
 .data          0x000000001001209c        0x0 /opt/ps3dev/ppu/lib/gcc/powerpc64-ps3-elf/4.7.0/../../../../powerpc64-ps3-elf/lib/libm.a(lib_a-kf_rem_pio2.o)
 .data          0x000000001001209c        0x0 /opt/ps3dev/ppu/lib/gcc/powerpc64-ps3-elf/4.7.0/../../../../powerpc64-ps3-elf/lib/libm.a(lib_a-kf_sin.o)
 .data          0x000000001001209c        0x0 /opt/ps3dev/ppu/lib/gcc/powerpc64-ps3-elf/4.7.0/../../../../powerpc64-ps3-elf/lib/libm.a(lib_a-kf_tan.o)
 .data          0x000000001001209c        0x0 /opt/ps3dev/ppu/lib/gcc/powerpc64-ps3-elf/4.7.0/../../../../powerpc64-ps3-elf/lib/libm.a(lib_a-sf_fabs.o)
 .data          0x000000001001209c        0x0 /opt/ps3dev/ppu/lib/gcc/powerpc64-ps3-elf/4.7.0/../../../../powerpc64-ps3-elf/lib/libm.a(lib_a-sf_floor.o)
 .data          0x000000001001209c        0x0 /opt/ps3dev/ppu/lib/gcc/powerpc64-ps3-elf/4.7.0/../../../../powerpc64-ps3-elf/lib/libm.a(lib_a-sf_fpclassify.o)
 .data          0x000000001001209c        0x0 /opt/ps3dev/ppu/lib/gcc/powerpc64-ps3-elf/4.7.0/../../../../powerpc64-ps3-elf/lib/libm.a(lib_a-sf_scalbn.o)
 .data          0x000000001001209c        0x0 /opt/ps3dev/ppu/lib/gcc/powerpc64-ps3-elf/4.7.0/../../../../powerpc64-ps3-elf/lib/libm.a(lib_a-s_lib_ver.o)
 .data.__fdlib_version
                0x000000001001209c        0x4 /opt/ps3dev/ppu/lib/gcc/powerpc64-ps3-elf/4.7.0/../../../../powerpc64-ps3-elf/lib/libm.a(lib_a-s_lib_ver.o)
                0x000000001001209c                __fdlib_version
 .data          0x00000000100120a0        0x0 /opt/ps3dev/ppu/lib/gcc/powerpc64-ps3-elf/4.7.0/../../../../powerpc64-ps3-elf/lib/libm.a(lib_a-s_matherr.o)
 .data          0x00000000100120a0        0x0 /opt/ps3dev/ppu/lib/gcc/powerpc64-ps3-elf/4.7.0/../../../../powerpc64-ps3-elf/lib/libm.a(lib_a-sf_copysign.o)
 .data          0x00000000100120a0        0x0 /opt/ps3dev/psl1ght/ppu/lib/librt.a(sbrk.o)
 .data          0x00000000100120a0        0x0 /opt/ps3dev/psl1ght/ppu/lib/librt.a(exit.o)
 .data          0x00000000100120a0        0x0 /opt/ps3dev/psl1ght/ppu/lib/librt.a(close.o)
 .data          0x00000000100120a0        0x0 /opt/ps3dev/psl1ght/ppu/lib/librt.a(lseek.o)
 .data          0x00000000100120a0        0x0 /opt/ps3dev/psl1ght/ppu/lib/librt.a(read.o)
 .data          0x00000000100120a0        0x0 /opt/ps3dev/psl1ght/ppu/lib/librt.a(open.o)
 .data          0x00000000100120a0        0x0 /opt/ps3dev/psl1ght/ppu/lib/librt.a(sleep.o)
 .data          0x00000000100120a0        0x0 /opt/ps3dev/psl1ght/ppu/lib/librt.a(write.o)
 .data          0x00000000100120a0        0x0 /opt/ps3dev/psl1ght/ppu/lib/librt.a(fstat.o)
 .data          0x00000000100120a0        0x0 /opt/ps3dev/psl1ght/ppu/lib/librt.a(socket.o)
 .data          0x00000000100120a0        0x0 /opt/ps3dev/psl1ght/ppu/lib/librt.a(lock.o)
 .data          0x00000000100120a0        0x0 /opt/ps3dev/psl1ght/ppu/lib/librt.a(dirent.o)
 .data          0x00000000100120a0        0x0 /opt/ps3dev/psl1ght/ppu/lib/librt.a(mkdir.o)
 .data          0x00000000100120a0        0x0 /opt/ps3dev/psl1ght/ppu/lib/librt.a(times.o)
 .data          0x00000000100120a0        0x0 /opt/ps3dev/psl1ght/ppu/lib/librt.a(umask.o)
 .data.g_umask  0x00000000100120a0        0x4 /opt/ps3dev/psl1ght/ppu/lib/librt.a(umask.o)
                0x00000000100120a0                g_umask
 .data          0x00000000100120a4        0x0 /opt/ps3dev/psl1ght/ppu/lib/librt.a(lv2errno.o)
 .data          0x00000000100120a4        0x0 /opt/ps3dev/psl1ght/ppu/lib/librt.a(heap.o)
 .data          0x00000000100120a4        0x0 /opt/ps3dev/psl1ght/ppu/lib/librt.a(chmod.o)
 .data          0x00000000100120a4        0x0 /opt/ps3dev/psl1ght/ppu/lib/librt.a(rmdir.o)
 .data          0x00000000100120a4        0x0 /opt/ps3dev/psl1ght/ppu/lib/librt.a(isatty.o)
 .data          0x00000000100120a4        0x0 /opt/ps3dev/psl1ght/ppu/lib/librt.a(gettod.o)
 .data          0x00000000100120a4        0x0 /opt/ps3dev/psl1ght/ppu/lib/librt.a(settod.o)
 .data          0x00000000100120a4        0x0 /opt/ps3dev/psl1ght/ppu/lib/liblv2.a(sprx.o)
 .data          0x00000000100120a4        0x0 /opt/ps3dev/psl1ght/ppu/lib/libsysmodule.a(sprx.o)
 .data          0x00000000100120a4        0x0 /opt/ps3dev/psl1ght/ppu/lib/libpngdec.a(pngdec.o)
 .data          0x00000000100120a4        0x0 /opt/ps3dev/psl1ght/ppu/lib/libpngdec.a(sprx.o)
 .data          0x00000000100120a4        0x0 /opt/ps3dev/psl1ght/ppu/lib/libjpgdec.a(jpgdec.o)
 .data          0x00000000100120a4        0x0 /opt/ps3dev/psl1ght/ppu/lib/libjpgdec.a(sprx.o)
 .data          0x00000000100120a4        0x0 /opt/ps3dev/ppu/lib/gcc/powerpc64-ps3-elf/4.7.0/../../../../powerpc64-ps3-elf/lib/libsysbase.a(sbrk.o)
 .data          0x00000000100120a4        0x0 /opt/ps3dev/ppu/lib/gcc/powerpc64-ps3-elf/4.7.0/../../../../powerpc64-ps3-elf/lib/libsysbase.a(syscalls.o)
 .data          0x00000000100120a4        0x0 /opt/ps3dev/ppu/lib/gcc/powerpc64-ps3-elf/4.7.0/../../../../powerpc64-ps3-elf/lib/libsysbase.a(_exit.o)
 .data          0x00000000100120a4        0x0 /opt/ps3dev/ppu/lib/gcc/powerpc64-ps3-elf/4.7.0/../../../../powerpc64-ps3-elf/lib/libsysbase.a(lock.o)
 .data          0x00000000100120a4        0x0 /opt/ps3dev/ppu/lib/gcc/powerpc64-ps3-elf/4.7.0/../../../../powerpc64-ps3-elf/lib/libsysbase.a(getpid.o)
 .data          0x00000000100120a4        0x0 /opt/ps3dev/ppu/lib/gcc/powerpc64-ps3-elf/4.7.0/../../../../powerpc64-ps3-elf/lib/libsysbase.a(kill.o)
 .data          0x00000000100120a4        0x0 /opt/ps3dev/ppu/lib/gcc/powerpc64-ps3-elf/4.7.0/../../../../powerpc64-ps3-elf/lib/libsysbase.a(sleep.o)
 .data          0x00000000100120a4        0x0 /opt/ps3dev/ppu/lib/gcc/powerpc64-ps3-elf/4.7.0/../../../../powerpc64-ps3-elf/lib/libc.a(lib_a-errno.o)
 .data          0x00000000100120a4        0x0 /opt/ps3dev/ppu/lib/gcc/powerpc64-ps3-elf/4.7.0/../../../../powerpc64-ps3-elf/lib/libc.a(lib_a-sscanf.o)
 .data          0x00000000100120a4        0x0 /opt/ps3dev/ppu/lib/gcc/powerpc64-ps3-elf/4.7.0/../../../../powerpc64-ps3-elf/lib/libc.a(lib_a-stdio.o)
 .data          0x00000000100120a4        0x0 /opt/ps3dev/ppu/lib/gcc/powerpc64-ps3-elf/4.7.0/../../../../powerpc64-ps3-elf/lib/libc.a(lib_a-strncpy.o)
 .data          0x00000000100120a4        0x0 /opt/ps3dev/ppu/lib/gcc/powerpc64-ps3-elf/4.7.0/../../../../powerpc64-ps3-elf/lib/libc.a(lib_a-svfscanf.o)
 .data          0x00000000100120a4        0x0 /opt/ps3dev/ppu/lib/gcc/powerpc64-ps3-elf/4.7.0/../../../../powerpc64-ps3-elf/lib/libc.a(lib_a-iswspace.o)
 .data          0x00000000100120a4        0x0 /opt/ps3dev/ppu/lib/gcc/powerpc64-ps3-elf/4.7.0/../../../../powerpc64-ps3-elf/lib/libc.a(lib_a-mbrtowc.o)
 .data          0x00000000100120a4        0x0 /opt/ps3dev/ppu/lib/gcc/powerpc64-ps3-elf/4.7.0/../../../../powerpc64-ps3-elf/lib/libc.a(lib_a-mbtowc_r.o)
 *fill*         0x00000000100120a4        0x4 00
 .data.rel.__mbtowc
                0x00000000100120a8        0x8 /opt/ps3dev/ppu/lib/gcc/powerpc64-ps3-elf/4.7.0/../../../../powerpc64-ps3-elf/lib/libc.a(lib_a-mbtowc_r.o)
                0x00000000100120a8                __mbtowc
 .data          0x00000000100120b0        0x0 /opt/ps3dev/ppu/lib/gcc/powerpc64-ps3-elf/4.7.0/../../../../powerpc64-ps3-elf/lib/libc.a(lib_a-sccl.o)
 .data          0x00000000100120b0        0x0 /opt/ps3dev/ppu/lib/gcc/powerpc64-ps3-elf/4.7.0/../../../../powerpc64-ps3-elf/lib/libc.a(lib_a-sf_nan.o)
 .data          0x00000000100120b0        0x0 /opt/ps3dev/ppu/lib/gcc/powerpc64-ps3-elf/4.7.0/../../../../powerpc64-ps3-elf/lib/libc.a(lib_a-sprintf.o)
 .data          0x00000000100120b0        0x0 /opt/ps3dev/ppu/lib/gcc/powerpc64-ps3-elf/4.7.0/../../../../powerpc64-ps3-elf/lib/libc.a(lib_a-strtod.o)
 .data.fpi.3227
                0x00000000100120b0       0x14 /opt/ps3dev/ppu/lib/gcc/powerpc64-ps3-elf/4.7.0/../../../../powerpc64-ps3-elf/lib/libc.a(lib_a-strtod.o)
 .data.fpinan.3263
                0x00000000100120c4       0x14 /opt/ps3dev/ppu/lib/gcc/powerpc64-ps3-elf/4.7.0/../../../../powerpc64-ps3-elf/lib/libc.a(lib_a-strtod.o)
 .data          0x00000000100120d8        0x0 /opt/ps3dev/ppu/lib/gcc/powerpc64-ps3-elf/4.7.0/../../../../powerpc64-ps3-elf/lib/libc.a(lib_a-strtoll_r.o)
 .data          0x00000000100120d8        0x0 /opt/ps3dev/ppu/lib/gcc/powerpc64-ps3-elf/4.7.0/../../../../powerpc64-ps3-elf/lib/libc.a(lib_a-strtol.o)
 .data          0x00000000100120d8        0x0 /opt/ps3dev/ppu/lib/gcc/powerpc64-ps3-elf/4.7.0/../../../../powerpc64-ps3-elf/lib/libc.a(lib_a-strtoull_r.o)
 .data          0x00000000100120d8        0x0 /opt/ps3dev/ppu/lib/gcc/powerpc64-ps3-elf/4.7.0/../../../../powerpc64-ps3-elf/lib/libc.a(lib_a-strtoul.o)
 .data          0x00000000100120d8        0x0 /opt/ps3dev/ppu/lib/gcc/powerpc64-ps3-elf/4.7.0/../../../../powerpc64-ps3-elf/lib/libc.a(lib_a-svfiscanf.o)
 .data          0x00000000100120d8        0x0 /opt/ps3dev/ppu/lib/gcc/powerpc64-ps3-elf/4.7.0/../../../../powerpc64-ps3-elf/lib/libc.a(lib_a-ungetc.o)
 .data          0x00000000100120d8        0x0 /opt/ps3dev/ppu/lib/gcc/powerpc64-ps3-elf/4.7.0/../../../../powerpc64-ps3-elf/lib/libc.a(lib_a-fflush.o)
 .data          0x00000000100120d8        0x0 /opt/ps3dev/ppu/lib/gcc/powerpc64-ps3-elf/4.7.0/../../../../powerpc64-ps3-elf/lib/libc.a(lib_a-findfp.o)
 .data          0x00000000100120d8        0x0 /opt/ps3dev/ppu/lib/gcc/powerpc64-ps3-elf/4.7.0/../../../../powerpc64-ps3-elf/lib/libc.a(lib_a-fwalk.o)
 .data          0x00000000100120d8        0x0 /opt/ps3dev/ppu/lib/gcc/powerpc64-ps3-elf/4.7.0/../../../../powerpc64-ps3-elf/lib/libc.a(lib_a-gdtoa-gethex.o)
 .data          0x00000000100120d8        0x0 /opt/ps3dev/ppu/lib/gcc/powerpc64-ps3-elf/4.7.0/../../../../powerpc64-ps3-elf/lib/libc.a(lib_a-gdtoa-hexnan.o)
 .data          0x00000000100120d8        0x0 /opt/ps3dev/ppu/lib/gcc/powerpc64-ps3-elf/4.7.0/../../../../powerpc64-ps3-elf/lib/libc.a(lib_a-strncmp.o)
 .data          0x00000000100120d8        0x0 /opt/ps3dev/ppu/lib/gcc/powerpc64-ps3-elf/4.7.0/../../../../powerpc64-ps3-elf/lib/libc.a(lib_a-fclose.o)
 .data          0x00000000100120d8        0x0 /opt/ps3dev/ppu/lib/gcc/powerpc64-ps3-elf/4.7.0/../../../../powerpc64-ps3-elf/lib/libsysbase.a(close.o)
 .data          0x00000000100120d8        0x0 /opt/ps3dev/ppu/lib/gcc/powerpc64-ps3-elf/4.7.0/../../../../powerpc64-ps3-elf/lib/libsysbase.a(lseek.o)
 .data          0x00000000100120d8        0x0 /opt/ps3dev/ppu/lib/gcc/powerpc64-ps3-elf/4.7.0/../../../../powerpc64-ps3-elf/lib/libsysbase.a(read.o)
 .data          0x00000000100120d8        0x0 /opt/ps3dev/ppu/lib/gcc/powerpc64-ps3-elf/4.7.0/../../../../powerpc64-ps3-elf/lib/libsysbase.a(write.o)
 .data          0x00000000100120d8        0x0 /opt/ps3dev/ppu/lib/gcc/powerpc64-ps3-elf/4.7.0/crtend.o
 .data          0x00000000100120d8        0x0 /opt/ps3dev/ppu/lib/gcc/powerpc64-ps3-elf/4.7.0/../../../../powerpc64-ps3-elf/lib/lv2-crtn.o
 *(.gnu.linkonce.d.*personality*)

.tm_clone_table
                0x00000000100120d8        0x0
 .tm_clone_table
                0x00000000100120d8        0x0 /opt/ps3dev/ppu/lib/gcc/powerpc64-ps3-elf/4.7.0/crtbegin.o
 .tm_clone_table
                0x00000000100120d8        0x0 /opt/ps3dev/ppu/lib/gcc/powerpc64-ps3-elf/4.7.0/crtend.o

.data1
 *(.data1)

.sdata
 *(.sdata .sdata.* .gnu.linkonce.s.*)
                0x00000000100120d8                _edata = .
                0x00000000100120d8                PROVIDE (edata, .)
                0x00000000100120d8                __bss_start = .

.tocbss
 *(.tocbss)

.sbss           0x00000000100120d8        0x0
                0x00000000100120d8                PROVIDE (__sbss_start, .)
                0x00000000100120d8                PROVIDE (___sbss_start, .)
 *(.dynsbss)
 *(.sbss .sbss.* .gnu.linkonce.sb.*)
 *(.scommon)
                0x00000000100120d8                PROVIDE (__sbss_end, .)
                0x00000000100120d8                PROVIDE (___sbss_end, .)

.plt
 *(.plt)

.bss            0x0000000010012100    0x164f0
 *(.dynbss)
 *(.bss .bss.* .gnu.linkonce.b.*)
 .bss           0x0000000010012100        0x0 /opt/ps3dev/ppu/lib/gcc/powerpc64-ps3-elf/4.7.0/../../../../powerpc64-ps3-elf/lib/lv2-crti.o
 .bss           0x0000000010012100        0x0 /opt/ps3dev/ppu/lib/gcc/powerpc64-ps3-elf/4.7.0/crtbegin.o
 .bss.completed.4578
                0x0000000010012100        0x1 /opt/ps3dev/ppu/lib/gcc/powerpc64-ps3-elf/4.7.0/crtbegin.o
 *fill*         0x0000000010012101        0x7 00
 .bss.dtor_idx.4580
                0x0000000010012108        0x8 /opt/ps3dev/ppu/lib/gcc/powerpc64-ps3-elf/4.7.0/crtbegin.o
 .bss.object.4590
                0x0000000010012110       0x30 /opt/ps3dev/ppu/lib/gcc/powerpc64-ps3-elf/4.7.0/crtbegin.o
 .bss           0x0000000010012140        0x8 /opt/ps3dev/ppu/lib/gcc/powerpc64-ps3-elf/4.7.0/../../../../powerpc64-ps3-elf/lib/lv2-crt0.o
                0x0000000010012140                __libc_stack_end
 .bss           0x0000000010012148        0x0 /opt/ps3dev/ppu/lib/gcc/powerpc64-ps3-elf/4.7.0/../../../../powerpc64-ps3-elf/lib/lv2-sprx.o
 .bss           0x0000000010012148        0x0 alphaimg.png.o
 .bss           0x0000000010012148        0x0 pngsample.png.o
 .bss           0x0000000010012148        0x0 main.o
 .bss           0x0000000010012148        0x0 /opt/ps3dev/portlibs/ppu/lib/libya2d.a(ya2d.o)
 .bss.ya2d_texturePointer
                0x0000000010012148        0x8 /opt/ps3dev/portlibs/ppu/lib/libya2d.a(ya2d.o)
                0x0000000010012148                ya2d_texturePointer
 .bss.ya2d_textureMem
                0x0000000010012150        0x8 /opt/ps3dev/portlibs/ppu/lib/libya2d.a(ya2d.o)
                0x0000000010012150                ya2d_textureMem
 .bss.ya2d_inited
                0x0000000010012158        0x1 /opt/ps3dev/portlibs/ppu/lib/libya2d.a(ya2d.o)
 .bss           0x0000000010012159        0x0 /opt/ps3dev/portlibs/ppu/lib/libya2d.a(ya2d_controls.o)
 .bss           0x0000000010012159        0x0 /opt/ps3dev/portlibs/ppu/lib/libya2d.a(ya2d_draw.o)
 .bss           0x0000000010012159        0x0 /opt/ps3dev/portlibs/ppu/lib/libya2d.a(ya2d_screen.o)
 *fill*         0x0000000010012159        0x7 00
 .bss.ya2d_currentTime
                0x0000000010012160        0x8 /opt/ps3dev/portlibs/ppu/lib/libya2d.a(ya2d_screen.o)
 .bss.ya2d_FPS  0x0000000010012168        0x4 /opt/ps3dev/portlibs/ppu/lib/libya2d.a(ya2d_screen.o)
 *fill*         0x000000001001216c        0x4 00
 .bss.ya2d_lastTime
                0x0000000010012170        0x8 /opt/ps3dev/portlibs/ppu/lib/libya2d.a(ya2d_screen.o)
 .bss.ya2d_clearColor
                0x0000000010012178        0x4 /opt/ps3dev/portlibs/ppu/lib/libya2d.a(ya2d_screen.o)
 *fill*         0x000000001001217c        0x4 00
 .bss.ya2d_deltaTime
                0x0000000010012180        0x8 /opt/ps3dev/portlibs/ppu/lib/libya2d.a(ya2d_screen.o)
 .bss.ya2d_frameCount
                0x0000000010012188        0x8 /opt/ps3dev/portlibs/ppu/lib/libya2d.a(ya2d_screen.o)
 .bss           0x0000000010012190        0x0 /opt/ps3dev/portlibs/ppu/lib/libya2d.a(ya2d_texture.o)
 .bss           0x0000000010012190        0x0 /opt/ps3dev/portlibs/ppu/lib/libya2d.a(ya2d_utils.o)
 .bss           0x0000000010012190        0x0 /opt/ps3dev/portlibs/ppu/lib/libya2d.a(msxfont.o)
 .bss           0x0000000010012190        0x0 /opt/ps3dev/portlibs/ppu/lib/libya2d.a(valloc.o)
 .bss.VRAM_BASE
                0x0000000010012190        0x8 /opt/ps3dev/portlibs/ppu/lib/libya2d.a(valloc.o)
 .bss.__valloc_vram_tail
                0x0000000010012198        0x8 /opt/ps3dev/portlibs/ppu/lib/libya2d.a(valloc.o)
                0x0000000010012198                __valloc_vram_tail
 .bss.VRAM_SIZE
                0x00000000100121a0        0x8 /opt/ps3dev/portlibs/ppu/lib/libya2d.a(valloc.o)
 .bss.__valloc_vram_head
                0x00000000100121a8        0x8 /opt/ps3dev/portlibs/ppu/lib/libya2d.a(valloc.o)
                0x00000000100121a8                __valloc_vram_head
 .bss.__valloc_vram_base
                0x00000000100121b0        0x8 /opt/ps3dev/portlibs/ppu/lib/libya2d.a(valloc.o)
                0x00000000100121b0                __valloc_vram_base
 .bss           0x00000000100121b8        0x0 /opt/ps3dev/portlibs/ppu/lib/libfont.a(libfont.o)
 .bss.font_datas
                0x00000000100121b8     0x2124 /opt/ps3dev/portlibs/ppu/lib/libfont.a(libfont.o)
 *fill*         0x00000000100142dc        0x4 00
 .bss.letter_bitmap.4870
                0x00000000100142e0    0x10100 /opt/ps3dev/portlibs/ppu/lib/libfont.a(libfont.o)
 .bss.buff      0x00000000100243e0     0x1000 /opt/ps3dev/portlibs/ppu/lib/libfont.a(libfont.o)
 .bss           0x00000000100253e0        0x0 /opt/ps3dev/portlibs/ppu/lib/libtiny3d.a(matrix.o)
 .bss           0x00000000100253e0        0x0 /opt/ps3dev/portlibs/ppu/lib/libtiny3d.a(tiny3d.o)
 .bss.data_shader
                0x00000000100253e0      0x708 /opt/ps3dev/portlibs/ppu/lib/libtiny3d.a(tiny3d.o)
 .bss.tiny3d_menu_open
                0x0000000010025ae8        0x4 /opt/ps3dev/portlibs/ppu/lib/libtiny3d.a(tiny3d.o)
 *fill*         0x0000000010025aec        0x4 00
 .bss.CtrlReg   0x0000000010025af0        0x8 /opt/ps3dev/portlibs/ppu/lib/libtiny3d.a(tiny3d.o)
 .bss.project_mat
                0x0000000010025af8       0x40 /opt/ps3dev/portlibs/ppu/lib/libtiny3d.a(tiny3d.o)
 .bss.tinyerror_incallback
                0x0000000010025b38        0x4 /opt/ps3dev/portlibs/ppu/lib/libtiny3d.a(tiny3d.o)
                0x0000000010025b38                tinyerror_incallback
 .bss.off_head_vertex
                0x0000000010025b3c        0x4 /opt/ps3dev/portlibs/ppu/lib/libtiny3d.a(tiny3d.o)
 .bss.y_viewport_2D
                0x0000000010025b40        0x4 /opt/ps3dev/portlibs/ppu/lib/libtiny3d.a(tiny3d.o)
 .bss.pos_rsx_vertex
                0x0000000010025b44        0x4 /opt/ps3dev/portlibs/ppu/lib/libtiny3d.a(tiny3d.o)
 .bss.light     0x0000000010025b48       0xa0 /opt/ps3dev/portlibs/ppu/lib/libtiny3d.a(tiny3d.o)
 .bss.tiny3d_drawing_status
                0x0000000010025be8        0x4 /opt/ps3dev/portlibs/ppu/lib/libtiny3d.a(tiny3d.o)
 .bss.y_viewport_3D
                0x0000000010025bec        0x4 /opt/ps3dev/portlibs/ppu/lib/libtiny3d.a(tiny3d.o)
 .bss.enable_yuv
                0x0000000010025bf0        0x4 /opt/ps3dev/portlibs/ppu/lib/libtiny3d.a(tiny3d.o)
 .bss.user_viewport
                0x0000000010025bf4        0x4 /opt/ps3dev/portlibs/ppu/lib/libtiny3d.a(tiny3d.o)
 .bss.material  0x0000000010025bf8       0x40 /opt/ps3dev/portlibs/ppu/lib/libtiny3d.a(tiny3d.o)
 .bss.select_fp
                0x0000000010025c38        0x4 /opt/ps3dev/portlibs/ppu/lib/libtiny3d.a(tiny3d.o)
 *fill*         0x0000000010025c3c        0x4 00
 .bss.last_list
                0x0000000010025c40        0x8 /opt/ps3dev/portlibs/ppu/lib/libtiny3d.a(tiny3d.o)
 .bss.tinycallback_flag
                0x0000000010025c48        0x4 /opt/ps3dev/portlibs/ppu/lib/libtiny3d.a(tiny3d.o)
                0x0000000010025c48                tinycallback_flag
 *fill*         0x0000000010025c4c        0x4 00
 .bss.curr_list
                0x0000000010025c50        0x8 /opt/ps3dev/portlibs/ppu/lib/libtiny3d.a(tiny3d.o)
 .bss.set_apply_matrix
                0x0000000010025c58        0x4 /opt/ps3dev/portlibs/ppu/lib/libtiny3d.a(tiny3d.o)
 .bss.apply_matrix
                0x0000000010025c5c       0x40 /opt/ps3dev/portlibs/ppu/lib/libtiny3d.a(tiny3d.o)
 .bss.model_view
                0x0000000010025c9c       0x40 /opt/ps3dev/portlibs/ppu/lib/libtiny3d.a(tiny3d.o)
 .bss.tiny_3d_alarm
                0x0000000010025cdc        0x4 /opt/ps3dev/portlibs/ppu/lib/libtiny3d.a(tiny3d.o)
 .bss.grab_list
                0x0000000010025ce0        0x4 /opt/ps3dev/portlibs/ppu/lib/libtiny3d.a(tiny3d.o)
 .bss.off_vtx.5375
                0x0000000010025ce4        0x4 /opt/ps3dev/portlibs/ppu/lib/libtiny3d.a(tiny3d.o)
 .bss.x_viewport_3D
                0x0000000010025ce8        0x4 /opt/ps3dev/portlibs/ppu/lib/libtiny3d.a(tiny3d.o)
 .bss.render_target
                0x0000000010025cec       0x10 /opt/ps3dev/portlibs/ppu/lib/libtiny3d.a(tiny3d.o)
 .bss.n_vertex  0x0000000010025cfc        0x4 /opt/ps3dev/portlibs/ppu/lib/libtiny3d.a(tiny3d.o)
 .bss.Video_currentBuffer
                0x0000000010025d00        0x4 /opt/ps3dev/portlibs/ppu/lib/libtiny3d.a(tiny3d.o)
                0x0000000010025d00                Video_currentBuffer
 .bss.inited    0x0000000010025d04        0x4 /opt/ps3dev/portlibs/ppu/lib/libtiny3d.a(tiny3d.o)
 .bss.off_start_vertex
                0x0000000010025d08        0x4 /opt/ps3dev/portlibs/ppu/lib/libtiny3d.a(tiny3d.o)
 *fill*         0x0000000010025d0c        0x4 00
 .bss.rsx_vertex
                0x0000000010025d10        0x8 /opt/ps3dev/portlibs/ppu/lib/libtiny3d.a(tiny3d.o)
 .bss.flag_vertex
                0x0000000010025d18        0x4 /opt/ps3dev/portlibs/ppu/lib/libtiny3d.a(tiny3d.o)
 *fill*         0x0000000010025d1c        0x4 00
 .bss.list_base
                0x0000000010025d20        0x8 /opt/ps3dev/portlibs/ppu/lib/libtiny3d.a(tiny3d.o)
 .bss.use_2d    0x0000000010025d28        0x4 /opt/ps3dev/portlibs/ppu/lib/libtiny3d.a(tiny3d.o)
 .bss.x_viewport_2D
                0x0000000010025d2c        0x4 /opt/ps3dev/portlibs/ppu/lib/libtiny3d.a(tiny3d.o)
 .bss.curr_list_index
                0x0000000010025d30        0x4 /opt/ps3dev/portlibs/ppu/lib/libtiny3d.a(tiny3d.o)
 .bss.vertex_data
                0x0000000010025d34       0x40 /opt/ps3dev/portlibs/ppu/lib/libtiny3d.a(tiny3d.o)
 .bss           0x0000000010025d74        0x0 /opt/ps3dev/portlibs/ppu/lib/libtiny3d.a(vshader_text_normal.vcg.o)
 .bss           0x0000000010025d74        0x0 /opt/ps3dev/portlibs/ppu/lib/libtiny3d.a(commands.o)
 .bss           0x0000000010025d74        0x0 /opt/ps3dev/portlibs/ppu/lib/libtiny3d.a(glue.o)
 .bss           0x0000000010025d74        0x0 /opt/ps3dev/portlibs/ppu/lib/libtiny3d.a(mm.o)
 .bss.initialized
                0x0000000010025d74        0x1 /opt/ps3dev/portlibs/ppu/lib/libtiny3d.a(mm.o)
 .bss           0x0000000010025d75        0x0 /opt/ps3dev/portlibs/ppu/lib/libtiny3d.a(realityVP.o)
 .bss           0x0000000010025d75        0x0 /opt/ps3dev/portlibs/ppu/lib/libtiny3d.a(rsxutil.o)
 *fill*         0x0000000010025d75        0x3 00
 .bss.depth_buffer
                0x0000000010025d78        0x8 /opt/ps3dev/portlibs/ppu/lib/libtiny3d.a(rsxutil.o)
 .bss.depth_offset
                0x0000000010025d80        0x4 /opt/ps3dev/portlibs/ppu/lib/libtiny3d.a(rsxutil.o)
 *fill*         0x0000000010025d84        0x4 00
 .bss.tiny_host_addr
                0x0000000010025d88        0x8 /opt/ps3dev/portlibs/ppu/lib/libtiny3d.a(rsxutil.o)
                0x0000000010025d88                tiny_host_addr
 .bss.zformat   0x0000000010025d90        0x4 /opt/ps3dev/portlibs/ppu/lib/libtiny3d.a(rsxutil.o)
 .bss.offset    0x0000000010025d94        0x8 /opt/ps3dev/portlibs/ppu/lib/libtiny3d.a(rsxutil.o)
 .bss.depth_pitch
                0x0000000010025d9c        0x4 /opt/ps3dev/portlibs/ppu/lib/libtiny3d.a(rsxutil.o)
 .bss           0x0000000010025da0        0x0 /opt/ps3dev/portlibs/ppu/lib/libtiny3d.a(buffer.o)
 .bss           0x0000000010025da0        0x0 /opt/ps3dev/ppu/lib/gcc/powerpc64-ps3-elf/4.7.0/../../../../powerpc64-ps3-elf/lib/libc.a(lib_a-atexit.o)
 .bss           0x0000000010025da0        0x0 /opt/ps3dev/ppu/lib/gcc/powerpc64-ps3-elf/4.7.0/../../../../powerpc64-ps3-elf/lib/libc.a(lib_a-exit.o)
 .bss           0x0000000010025da0        0x0 /opt/ps3dev/ppu/lib/gcc/powerpc64-ps3-elf/4.7.0/../../../../powerpc64-ps3-elf/lib/libc.a(lib_a-impure.o)
 .bss           0x0000000010025da0        0x0 /opt/ps3dev/ppu/lib/gcc/powerpc64-ps3-elf/4.7.0/../../../../powerpc64-ps3-elf/lib/libc.a(lib_a-malign.o)
 .bss           0x0000000010025da0        0x0 /opt/ps3dev/ppu/lib/gcc/powerpc64-ps3-elf/4.7.0/../../../../powerpc64-ps3-elf/lib/libc.a(lib_a-malignr.o)
 .bss           0x0000000010025da0        0x0 /opt/ps3dev/ppu/lib/gcc/powerpc64-ps3-elf/4.7.0/../../../../powerpc64-ps3-elf/lib/libc.a(lib_a-malloc.o)
 .bss           0x0000000010025da0        0x0 /opt/ps3dev/ppu/lib/gcc/powerpc64-ps3-elf/4.7.0/../../../../powerpc64-ps3-elf/lib/libc.a(lib_a-mallocr.o)
 .bss.__malloc_max_total_mem
                0x0000000010025da0        0x8 /opt/ps3dev/ppu/lib/gcc/powerpc64-ps3-elf/4.7.0/../../../../powerpc64-ps3-elf/lib/libc.a(lib_a-mallocr.o)
                0x0000000010025da0                __malloc_max_total_mem
 .bss.__malloc_max_sbrked_mem
                0x0000000010025da8        0x8 /opt/ps3dev/ppu/lib/gcc/powerpc64-ps3-elf/4.7.0/../../../../powerpc64-ps3-elf/lib/libc.a(lib_a-mallocr.o)
                0x0000000010025da8                __malloc_max_sbrked_mem
 .bss.__malloc_top_pad
                0x0000000010025db0        0x8 /opt/ps3dev/ppu/lib/gcc/powerpc64-ps3-elf/4.7.0/../../../../powerpc64-ps3-elf/lib/libc.a(lib_a-mallocr.o)
                0x0000000010025db0                __malloc_top_pad
 .bss.__malloc_current_mallinfo
                0x0000000010025db8       0x28 /opt/ps3dev/ppu/lib/gcc/powerpc64-ps3-elf/4.7.0/../../../../powerpc64-ps3-elf/lib/libc.a(lib_a-mallocr.o)
                0x0000000010025db8                __malloc_current_mallinfo
 .bss           0x0000000010025de0        0x0 /opt/ps3dev/ppu/lib/gcc/powerpc64-ps3-elf/4.7.0/../../../../powerpc64-ps3-elf/lib/libc.a(lib_a-memcpy.o)
 .bss           0x0000000010025de0        0x0 /opt/ps3dev/ppu/lib/gcc/powerpc64-ps3-elf/4.7.0/../../../../powerpc64-ps3-elf/lib/libc.a(lib_a-memset.o)
 .bss           0x0000000010025de0        0x0 /opt/ps3dev/ppu/lib/gcc/powerpc64-ps3-elf/4.7.0/../../../../powerpc64-ps3-elf/lib/libc.a(lib_a-mlock.o)
 .bss.__malloc_lock_object
                0x0000000010025de0       0x18 /opt/ps3dev/ppu/lib/gcc/powerpc64-ps3-elf/4.7.0/../../../../powerpc64-ps3-elf/lib/libc.a(lib_a-mlock.o)
 .bss           0x0000000010025df8        0x0 /opt/ps3dev/ppu/lib/gcc/powerpc64-ps3-elf/4.7.0/../../../../powerpc64-ps3-elf/lib/libc.a(lib_a-rand.o)
 .bss           0x0000000010025df8        0x0 /opt/ps3dev/ppu/lib/gcc/powerpc64-ps3-elf/4.7.0/../../../../powerpc64-ps3-elf/lib/libc.a(lib_a-strcasecmp.o)
 .bss           0x0000000010025df8        0x0 /opt/ps3dev/ppu/lib/gcc/powerpc64-ps3-elf/4.7.0/../../../../powerpc64-ps3-elf/lib/libc.a(lib_a-vsprintf.o)
 .bss           0x0000000010025df8        0x0 /opt/ps3dev/ppu/lib/gcc/powerpc64-ps3-elf/4.7.0/../../../../powerpc64-ps3-elf/lib/libc.a(lib_a-__atexit.o)
 .bss.__atexit_lock
                0x0000000010025df8       0x18 /opt/ps3dev/ppu/lib/gcc/powerpc64-ps3-elf/4.7.0/../../../../powerpc64-ps3-elf/lib/libc.a(lib_a-__atexit.o)
                0x0000000010025df8                __atexit_lock
 .bss           0x0000000010025e10        0x0 /opt/ps3dev/ppu/lib/gcc/powerpc64-ps3-elf/4.7.0/../../../../powerpc64-ps3-elf/lib/libc.a(lib_a-__call_atexit.o)
 .bss           0x0000000010025e10        0x0 /opt/ps3dev/ppu/lib/gcc/powerpc64-ps3-elf/4.7.0/../../../../powerpc64-ps3-elf/lib/libc.a(lib_a-ctype_.o)
 .bss           0x0000000010025e10        0x0 /opt/ps3dev/ppu/lib/gcc/powerpc64-ps3-elf/4.7.0/../../../../powerpc64-ps3-elf/lib/libc.a(lib_a-freer.o)
 .bss           0x0000000010025e10        0x0 /opt/ps3dev/ppu/lib/gcc/powerpc64-ps3-elf/4.7.0/../../../../powerpc64-ps3-elf/lib/libc.a(lib_a-getreent.o)
 .bss           0x0000000010025e10        0x0 /opt/ps3dev/ppu/lib/gcc/powerpc64-ps3-elf/4.7.0/../../../../powerpc64-ps3-elf/lib/libc.a(lib_a-lock_recursive.o)
 .bss           0x0000000010025e10        0x0 /opt/ps3dev/ppu/lib/gcc/powerpc64-ps3-elf/4.7.0/../../../../powerpc64-ps3-elf/lib/libc.a(lib_a-svfprintf.o)
 .bss           0x0000000010025e10        0x0 /opt/ps3dev/ppu/lib/gcc/powerpc64-ps3-elf/4.7.0/../../../../powerpc64-ps3-elf/lib/libc.a(lib_a-dtoa.o)
 .bss           0x0000000010025e10        0x0 /opt/ps3dev/ppu/lib/gcc/powerpc64-ps3-elf/4.7.0/../../../../powerpc64-ps3-elf/lib/libc.a(lib_a-locale.o)
 .bss._PathLocale
                0x0000000010025e10        0x8 /opt/ps3dev/ppu/lib/gcc/powerpc64-ps3-elf/4.7.0/../../../../powerpc64-ps3-elf/lib/libc.a(lib_a-locale.o)
                0x0000000010025e10                _PathLocale
 .bss.__nlocale_changed
                0x0000000010025e18        0x4 /opt/ps3dev/ppu/lib/gcc/powerpc64-ps3-elf/4.7.0/../../../../powerpc64-ps3-elf/lib/libc.a(lib_a-locale.o)
                0x0000000010025e18                __nlocale_changed
 .bss.__mlocale_changed
                0x0000000010025e1c        0x4 /opt/ps3dev/ppu/lib/gcc/powerpc64-ps3-elf/4.7.0/../../../../powerpc64-ps3-elf/lib/libc.a(lib_a-locale.o)
                0x0000000010025e1c                __mlocale_changed
 .bss           0x0000000010025e20        0x0 /opt/ps3dev/ppu/lib/gcc/powerpc64-ps3-elf/4.7.0/../../../../powerpc64-ps3-elf/lib/libc.a(lib_a-lock_internal.o)
 .bss.metaLock  0x0000000010025e20       0x18 /opt/ps3dev/ppu/lib/gcc/powerpc64-ps3-elf/4.7.0/../../../../powerpc64-ps3-elf/lib/libc.a(lib_a-lock_internal.o)
 .bss           0x0000000010025e38        0x0 /opt/ps3dev/ppu/lib/gcc/powerpc64-ps3-elf/4.7.0/../../../../powerpc64-ps3-elf/lib/libc.a(lib_a-memchr.o)
 .bss           0x0000000010025e38        0x0 /opt/ps3dev/ppu/lib/gcc/powerpc64-ps3-elf/4.7.0/../../../../powerpc64-ps3-elf/lib/libc.a(lib_a-mprec.o)
 .bss           0x0000000010025e38        0x0 /opt/ps3dev/ppu/lib/gcc/powerpc64-ps3-elf/4.7.0/../../../../powerpc64-ps3-elf/lib/libc.a(lib_a-s_fpclassify.o)
 .bss           0x0000000010025e38        0x0 /opt/ps3dev/ppu/lib/gcc/powerpc64-ps3-elf/4.7.0/../../../../powerpc64-ps3-elf/lib/libc.a(lib_a-strcmp.o)
 .bss           0x0000000010025e38        0x0 /opt/ps3dev/ppu/lib/gcc/powerpc64-ps3-elf/4.7.0/../../../../powerpc64-ps3-elf/lib/libc.a(lib_a-strlen.o)
 .bss           0x0000000010025e38        0x0 /opt/ps3dev/ppu/lib/gcc/powerpc64-ps3-elf/4.7.0/../../../../powerpc64-ps3-elf/lib/libc.a(lib_a-svfiprintf.o)
 .bss           0x0000000010025e38        0x0 /opt/ps3dev/ppu/lib/gcc/powerpc64-ps3-elf/4.7.0/../../../../powerpc64-ps3-elf/lib/libc.a(lib_a-abort.o)
 .bss           0x0000000010025e38        0x0 /opt/ps3dev/ppu/lib/gcc/powerpc64-ps3-elf/4.7.0/../../../../powerpc64-ps3-elf/lib/libc.a(lib_a-callocr.o)
 .bss           0x0000000010025e38        0x0 /opt/ps3dev/ppu/lib/gcc/powerpc64-ps3-elf/4.7.0/../../../../powerpc64-ps3-elf/lib/libc.a(lib_a-memmove.o)
 .bss           0x0000000010025e38        0x0 /opt/ps3dev/ppu/lib/gcc/powerpc64-ps3-elf/4.7.0/../../../../powerpc64-ps3-elf/lib/libc.a(lib_a-reallocr.o)
 .bss           0x0000000010025e38        0x0 /opt/ps3dev/ppu/lib/gcc/powerpc64-ps3-elf/4.7.0/../../../../powerpc64-ps3-elf/lib/libc.a(lib_a-signal.o)
 .bss           0x0000000010025e38        0x0 /opt/ps3dev/psl1ght/ppu/lib/libgcm_sys.a(sprx.o)
 .bss           0x0000000010025e38        0x0 /opt/ps3dev/psl1ght/ppu/lib/libsysutil.a(sprx.o)
 .bss           0x0000000010025e38        0x0 /opt/ps3dev/psl1ght/ppu/lib/libsysutil.a(sysutil_wrapper.o)
 .bss           0x0000000010025e38        0x0 /opt/ps3dev/psl1ght/ppu/lib/libio.a(sprx.o)
 .bss           0x0000000010025e38        0x0 /opt/ps3dev/ppu/lib/gcc/powerpc64-ps3-elf/4.7.0/../../../../powerpc64-ps3-elf/lib/libm.a(lib_a-sf_cos.o)
 .bss           0x0000000010025e38        0x0 /opt/ps3dev/ppu/lib/gcc/powerpc64-ps3-elf/4.7.0/../../../../powerpc64-ps3-elf/lib/libm.a(lib_a-sf_sin.o)
 .bss           0x0000000010025e38        0x0 /opt/ps3dev/ppu/lib/gcc/powerpc64-ps3-elf/4.7.0/../../../../powerpc64-ps3-elf/lib/libm.a(lib_a-sf_tan.o)
 .bss           0x0000000010025e38        0x0 /opt/ps3dev/ppu/lib/gcc/powerpc64-ps3-elf/4.7.0/../../../../powerpc64-ps3-elf/lib/libm.a(lib_a-wf_sqrt.o)
 .bss           0x0000000010025e38        0x0 /opt/ps3dev/ppu/lib/gcc/powerpc64-ps3-elf/4.7.0/../../../../powerpc64-ps3-elf/lib/libm.a(lib_a-w_sqrt.o)
 .bss           0x0000000010025e38        0x0 /opt/ps3dev/ppu/lib/gcc/powerpc64-ps3-elf/4.7.0/../../../../powerpc64-ps3-elf/lib/libm.a(lib_a-ef_rem_pio2.o)
 .bss           0x0000000010025e38        0x0 /opt/ps3dev/ppu/lib/gcc/powerpc64-ps3-elf/4.7.0/../../../../powerpc64-ps3-elf/lib/libm.a(lib_a-ef_sqrt.o)
 .bss           0x0000000010025e38        0x0 /opt/ps3dev/ppu/lib/gcc/powerpc64-ps3-elf/4.7.0/../../../../powerpc64-ps3-elf/lib/libm.a(lib_a-e_sqrt.o)
 .bss           0x0000000010025e38        0x0 /opt/ps3dev/ppu/lib/gcc/powerpc64-ps3-elf/4.7.0/../../../../powerpc64-ps3-elf/lib/libm.a(lib_a-kf_cos.o)
 .bss           0x0000000010025e38        0x0 /opt/ps3dev/ppu/lib/gcc/powerpc64-ps3-elf/4.7.0/../../../../powerpc64-ps3-elf/lib/libm.a(lib_a-kf_rem_pio2.o)
 .bss           0x0000000010025e38        0x0 /opt/ps3dev/ppu/lib/gcc/powerpc64-ps3-elf/4.7.0/../../../../powerpc64-ps3-elf/lib/libm.a(lib_a-kf_sin.o)
 .bss           0x0000000010025e38        0x0 /opt/ps3dev/ppu/lib/gcc/powerpc64-ps3-elf/4.7.0/../../../../powerpc64-ps3-elf/lib/libm.a(lib_a-kf_tan.o)
 .bss           0x0000000010025e38        0x0 /opt/ps3dev/ppu/lib/gcc/powerpc64-ps3-elf/4.7.0/../../../../powerpc64-ps3-elf/lib/libm.a(lib_a-sf_fabs.o)
 .bss           0x0000000010025e38        0x0 /opt/ps3dev/ppu/lib/gcc/powerpc64-ps3-elf/4.7.0/../../../../powerpc64-ps3-elf/lib/libm.a(lib_a-sf_floor.o)
 .bss           0x0000000010025e38        0x0 /opt/ps3dev/ppu/lib/gcc/powerpc64-ps3-elf/4.7.0/../../../../powerpc64-ps3-elf/lib/libm.a(lib_a-sf_fpclassify.o)
 .bss           0x0000000010025e38        0x0 /opt/ps3dev/ppu/lib/gcc/powerpc64-ps3-elf/4.7.0/../../../../powerpc64-ps3-elf/lib/libm.a(lib_a-sf_scalbn.o)
 .bss           0x0000000010025e38        0x0 /opt/ps3dev/ppu/lib/gcc/powerpc64-ps3-elf/4.7.0/../../../../powerpc64-ps3-elf/lib/libm.a(lib_a-s_lib_ver.o)
 .bss           0x0000000010025e38        0x0 /opt/ps3dev/ppu/lib/gcc/powerpc64-ps3-elf/4.7.0/../../../../powerpc64-ps3-elf/lib/libm.a(lib_a-s_matherr.o)
 .bss           0x0000000010025e38        0x0 /opt/ps3dev/ppu/lib/gcc/powerpc64-ps3-elf/4.7.0/../../../../powerpc64-ps3-elf/lib/libm.a(lib_a-sf_copysign.o)
 .bss           0x0000000010025e38        0x0 /opt/ps3dev/psl1ght/ppu/lib/librt.a(sbrk.o)
 .bss.__sbrk_baseaddr
                0x0000000010025e38        0x4 /opt/ps3dev/psl1ght/ppu/lib/librt.a(sbrk.o)
 *fill*         0x0000000010025e3c        0x4 00
 .bss.__sbrk_curr_regionentry
                0x0000000010025e40        0x8 /opt/ps3dev/psl1ght/ppu/lib/librt.a(sbrk.o)
 *fill*         0x0000000010025e48       0x38 00
 .bss.__region_list_entries
                0x0000000010025e80     0x2020 /opt/ps3dev/psl1ght/ppu/lib/librt.a(sbrk.o)
 .bss.__sbrk_spinlock
                0x0000000010027ea0        0x4 /opt/ps3dev/psl1ght/ppu/lib/librt.a(sbrk.o)
 *fill*         0x0000000010027ea4        0x4 00
 .bss.__region_heap
                0x0000000010027ea8       0x48 /opt/ps3dev/psl1ght/ppu/lib/librt.a(sbrk.o)
 .bss           0x0000000010027ef0        0x0 /opt/ps3dev/psl1ght/ppu/lib/librt.a(exit.o)
 .bss           0x0000000010027ef0        0x0 /opt/ps3dev/psl1ght/ppu/lib/librt.a(close.o)
 .bss           0x0000000010027ef0        0x0 /opt/ps3dev/psl1ght/ppu/lib/librt.a(lseek.o)
 .bss           0x0000000010027ef0        0x0 /opt/ps3dev/psl1ght/ppu/lib/librt.a(read.o)
 .bss           0x0000000010027ef0        0x0 /opt/ps3dev/psl1ght/ppu/lib/librt.a(open.o)
 .bss           0x0000000010027ef0        0x0 /opt/ps3dev/psl1ght/ppu/lib/librt.a(sleep.o)
 .bss           0x0000000010027ef0        0x0 /opt/ps3dev/psl1ght/ppu/lib/librt.a(write.o)
 .bss           0x0000000010027ef0        0x0 /opt/ps3dev/psl1ght/ppu/lib/librt.a(fstat.o)
 .bss           0x0000000010027ef0        0x0 /opt/ps3dev/psl1ght/ppu/lib/librt.a(socket.o)
 .bss           0x0000000010027ef0        0x0 /opt/ps3dev/psl1ght/ppu/lib/librt.a(lock.o)
 .bss           0x0000000010027ef0        0x0 /opt/ps3dev/psl1ght/ppu/lib/librt.a(dirent.o)
 .bss           0x0000000010027ef0        0x0 /opt/ps3dev/psl1ght/ppu/lib/librt.a(mkdir.o)
 .bss           0x0000000010027ef0        0x0 /opt/ps3dev/psl1ght/ppu/lib/librt.a(times.o)
 .bss           0x0000000010027ef0        0x0 /opt/ps3dev/psl1ght/ppu/lib/librt.a(umask.o)
 .bss           0x0000000010027ef0        0x0 /opt/ps3dev/psl1ght/ppu/lib/librt.a(lv2errno.o)
 .bss           0x0000000010027ef0        0x0 /opt/ps3dev/psl1ght/ppu/lib/librt.a(heap.o)
 .bss           0x0000000010027ef0        0x0 /opt/ps3dev/psl1ght/ppu/lib/librt.a(chmod.o)
 .bss           0x0000000010027ef0        0x0 /opt/ps3dev/psl1ght/ppu/lib/librt.a(rmdir.o)
 .bss           0x0000000010027ef0        0x0 /opt/ps3dev/psl1ght/ppu/lib/librt.a(isatty.o)
 .bss           0x0000000010027ef0        0x0 /opt/ps3dev/psl1ght/ppu/lib/librt.a(gettod.o)
 .bss           0x0000000010027ef0        0x0 /opt/ps3dev/psl1ght/ppu/lib/librt.a(settod.o)
 .bss           0x0000000010027ef0        0x0 /opt/ps3dev/psl1ght/ppu/lib/liblv2.a(sprx.o)
 .bss           0x0000000010027ef0        0x0 /opt/ps3dev/psl1ght/ppu/lib/libsysmodule.a(sprx.o)
 .bss           0x0000000010027ef0        0x0 /opt/ps3dev/psl1ght/ppu/lib/libpngdec.a(pngdec.o)
 .bss           0x0000000010027ef0        0x0 /opt/ps3dev/psl1ght/ppu/lib/libpngdec.a(sprx.o)
 .bss           0x0000000010027ef0        0x0 /opt/ps3dev/psl1ght/ppu/lib/libjpgdec.a(jpgdec.o)
 .bss           0x0000000010027ef0        0x0 /opt/ps3dev/psl1ght/ppu/lib/libjpgdec.a(sprx.o)
 .bss           0x0000000010027ef0        0x0 /opt/ps3dev/ppu/lib/gcc/powerpc64-ps3-elf/4.7.0/../../../../powerpc64-ps3-elf/lib/libsysbase.a(sbrk.o)
 .bss           0x0000000010027ef0        0x0 /opt/ps3dev/ppu/lib/gcc/powerpc64-ps3-elf/4.7.0/../../../../powerpc64-ps3-elf/lib/libsysbase.a(syscalls.o)
 .bss.__syscalls
                0x0000000010027ef0      0x170 /opt/ps3dev/ppu/lib/gcc/powerpc64-ps3-elf/4.7.0/../../../../powerpc64-ps3-elf/lib/libsysbase.a(syscalls.o)
                0x0000000010027ef0                __syscalls
 .bss           0x0000000010028060        0x0 /opt/ps3dev/ppu/lib/gcc/powerpc64-ps3-elf/4.7.0/../../../../powerpc64-ps3-elf/lib/libsysbase.a(_exit.o)
 .bss           0x0000000010028060        0x0 /opt/ps3dev/ppu/lib/gcc/powerpc64-ps3-elf/4.7.0/../../../../powerpc64-ps3-elf/lib/libsysbase.a(lock.o)
 .bss           0x0000000010028060        0x0 /opt/ps3dev/ppu/lib/gcc/powerpc64-ps3-elf/4.7.0/../../../../powerpc64-ps3-elf/lib/libsysbase.a(getpid.o)
 .bss           0x0000000010028060        0x0 /opt/ps3dev/ppu/lib/gcc/powerpc64-ps3-elf/4.7.0/../../../../powerpc64-ps3-elf/lib/libsysbase.a(kill.o)
 .bss           0x0000000010028060        0x0 /opt/ps3dev/ppu/lib/gcc/powerpc64-ps3-elf/4.7.0/../../../../powerpc64-ps3-elf/lib/libsysbase.a(sleep.o)
 .bss           0x0000000010028060        0x0 /opt/ps3dev/ppu/lib/gcc/powerpc64-ps3-elf/4.7.0/../../../../powerpc64-ps3-elf/lib/libc.a(lib_a-errno.o)
 .bss           0x0000000010028060        0x0 /opt/ps3dev/ppu/lib/gcc/powerpc64-ps3-elf/4.7.0/../../../../powerpc64-ps3-elf/lib/libc.a(lib_a-sscanf.o)
 .bss           0x0000000010028060        0x0 /opt/ps3dev/ppu/lib/gcc/powerpc64-ps3-elf/4.7.0/../../../../powerpc64-ps3-elf/lib/libc.a(lib_a-stdio.o)
 .bss           0x0000000010028060        0x0 /opt/ps3dev/ppu/lib/gcc/powerpc64-ps3-elf/4.7.0/../../../../powerpc64-ps3-elf/lib/libc.a(lib_a-strncpy.o)
 .bss           0x0000000010028060        0x0 /opt/ps3dev/ppu/lib/gcc/powerpc64-ps3-elf/4.7.0/../../../../powerpc64-ps3-elf/lib/libc.a(lib_a-svfscanf.o)
 .bss           0x0000000010028060        0x0 /opt/ps3dev/ppu/lib/gcc/powerpc64-ps3-elf/4.7.0/../../../../powerpc64-ps3-elf/lib/libc.a(lib_a-iswspace.o)
 .bss           0x0000000010028060        0x0 /opt/ps3dev/ppu/lib/gcc/powerpc64-ps3-elf/4.7.0/../../../../powerpc64-ps3-elf/lib/libc.a(lib_a-mbrtowc.o)
 .bss           0x0000000010028060        0x0 /opt/ps3dev/ppu/lib/gcc/powerpc64-ps3-elf/4.7.0/../../../../powerpc64-ps3-elf/lib/libc.a(lib_a-mbtowc_r.o)
 .bss           0x0000000010028060        0x0 /opt/ps3dev/ppu/lib/gcc/powerpc64-ps3-elf/4.7.0/../../../../powerpc64-ps3-elf/lib/libc.a(lib_a-sccl.o)
 .bss           0x0000000010028060        0x0 /opt/ps3dev/ppu/lib/gcc/powerpc64-ps3-elf/4.7.0/../../../../powerpc64-ps3-elf/lib/libc.a(lib_a-sf_nan.o)
 .bss           0x0000000010028060        0x0 /opt/ps3dev/ppu/lib/gcc/powerpc64-ps3-elf/4.7.0/../../../../powerpc64-ps3-elf/lib/libc.a(lib_a-sprintf.o)
 .bss           0x0000000010028060        0x0 /opt/ps3dev/ppu/lib/gcc/powerpc64-ps3-elf/4.7.0/../../../../powerpc64-ps3-elf/lib/libc.a(lib_a-strtod.o)
 .bss           0x0000000010028060        0x0 /opt/ps3dev/ppu/lib/gcc/powerpc64-ps3-elf/4.7.0/../../../../powerpc64-ps3-elf/lib/libc.a(lib_a-strtoll_r.o)
 .bss           0x0000000010028060        0x0 /opt/ps3dev/ppu/lib/gcc/powerpc64-ps3-elf/4.7.0/../../../../powerpc64-ps3-elf/lib/libc.a(lib_a-strtol.o)
 .bss           0x0000000010028060        0x0 /opt/ps3dev/ppu/lib/gcc/powerpc64-ps3-elf/4.7.0/../../../../powerpc64-ps3-elf/lib/libc.a(lib_a-strtoull_r.o)
 .bss           0x0000000010028060        0x0 /opt/ps3dev/ppu/lib/gcc/powerpc64-ps3-elf/4.7.0/../../../../powerpc64-ps3-elf/lib/libc.a(lib_a-strtoul.o)
 .bss           0x0000000010028060        0x0 /opt/ps3dev/ppu/lib/gcc/powerpc64-ps3-elf/4.7.0/../../../../powerpc64-ps3-elf/lib/libc.a(lib_a-svfiscanf.o)
 .bss           0x0000000010028060        0x0 /opt/ps3dev/ppu/lib/gcc/powerpc64-ps3-elf/4.7.0/../../../../powerpc64-ps3-elf/lib/libc.a(lib_a-ungetc.o)
 .bss           0x0000000010028060        0x0 /opt/ps3dev/ppu/lib/gcc/powerpc64-ps3-elf/4.7.0/../../../../powerpc64-ps3-elf/lib/libc.a(lib_a-fflush.o)
 .bss           0x0000000010028060        0x0 /opt/ps3dev/ppu/lib/gcc/powerpc64-ps3-elf/4.7.0/../../../../powerpc64-ps3-elf/lib/libc.a(lib_a-findfp.o)
 .bss.__sfp_lock
                0x0000000010028060       0x18 /opt/ps3dev/ppu/lib/gcc/powerpc64-ps3-elf/4.7.0/../../../../powerpc64-ps3-elf/lib/libc.a(lib_a-findfp.o)
 .bss.__sinit_lock
                0x0000000010028078       0x18 /opt/ps3dev/ppu/lib/gcc/powerpc64-ps3-elf/4.7.0/../../../../powerpc64-ps3-elf/lib/libc.a(lib_a-findfp.o)
 .bss           0x0000000010028090        0x0 /opt/ps3dev/ppu/lib/gcc/powerpc64-ps3-elf/4.7.0/../../../../powerpc64-ps3-elf/lib/libc.a(lib_a-fwalk.o)
 .bss           0x0000000010028090        0x0 /opt/ps3dev/ppu/lib/gcc/powerpc64-ps3-elf/4.7.0/../../../../powerpc64-ps3-elf/lib/libc.a(lib_a-gdtoa-gethex.o)
 .bss           0x0000000010028090        0x0 /opt/ps3dev/ppu/lib/gcc/powerpc64-ps3-elf/4.7.0/../../../../powerpc64-ps3-elf/lib/libc.a(lib_a-gdtoa-hexnan.o)
 .bss           0x0000000010028090        0x0 /opt/ps3dev/ppu/lib/gcc/powerpc64-ps3-elf/4.7.0/../../../../powerpc64-ps3-elf/lib/libc.a(lib_a-strncmp.o)
 .bss           0x0000000010028090        0x0 /opt/ps3dev/ppu/lib/gcc/powerpc64-ps3-elf/4.7.0/../../../../powerpc64-ps3-elf/lib/libc.a(lib_a-fclose.o)
 .bss           0x0000000010028090        0x0 /opt/ps3dev/ppu/lib/gcc/powerpc64-ps3-elf/4.7.0/../../../../powerpc64-ps3-elf/lib/libsysbase.a(close.o)
 .bss           0x0000000010028090        0x0 /opt/ps3dev/ppu/lib/gcc/powerpc64-ps3-elf/4.7.0/../../../../powerpc64-ps3-elf/lib/libsysbase.a(lseek.o)
 .bss           0x0000000010028090        0x0 /opt/ps3dev/ppu/lib/gcc/powerpc64-ps3-elf/4.7.0/../../../../powerpc64-ps3-elf/lib/libsysbase.a(read.o)
 .bss           0x0000000010028090        0x0 /opt/ps3dev/ppu/lib/gcc/powerpc64-ps3-elf/4.7.0/../../../../powerpc64-ps3-elf/lib/libsysbase.a(write.o)
 .bss           0x0000000010028090        0x0 /opt/ps3dev/ppu/lib/gcc/powerpc64-ps3-elf/4.7.0/crtend.o
 .bss           0x0000000010028090        0x0 /opt/ps3dev/ppu/lib/gcc/powerpc64-ps3-elf/4.7.0/../../../../powerpc64-ps3-elf/lib/lv2-crtn.o
 *(COMMON)
 COMMON         0x0000000010028090      0x418 main.o
                0x0000000010028090                ya2d_paddata
                0x000000001002842c                ya2d_padinfo
 COMMON         0x00000000100284a8       0x20 /opt/ps3dev/portlibs/ppu/lib/libtiny3d.a(mm.o)
                0x00000000100284a8                heap_pointer
                0x00000000100284b0                config
 COMMON         0x00000000100284c8       0x24 /opt/ps3dev/portlibs/ppu/lib/libtiny3d.a(rsxutil.o)
                0x00000000100284c8                Video_buffer
                0x00000000100284d8                Video_aspect
                0x00000000100284dc                Video_pitch
                0x00000000100284e0                context
                0x00000000100284e8                Video_Resolution
 *fill*         0x00000000100284ec        0x4 00
 COMMON         0x00000000100284f0      0x100 /opt/ps3dev/ppu/lib/gcc/powerpc64-ps3-elf/4.7.0/../../../../powerpc64-ps3-elf/lib/libc.a(lib_a-gdtoa-gethex.o)
                0x00000000100284f0                __hexdig
                0x00000000100285f0                . = ALIGN (0x8)

.iplt           0x00000000100285f0        0x0
 .iplt          0x0000000000000000        0x0 linker stubs
                0x0000000020000000                . = ALIGN (0x10000000)

.rsx_image
 *(.rsx_*)
                0x0000000020000000                _end = .
                0x0000000020000000                __end = .
                0x0000000020000000                PROVIDE (end, .)
                0x0000000020000000                . = ALIGN (0x8)

.stab
 *(.stab)

.stabstr
 *(.stabstr)

.stab.excl
 *(.stab.excl)

.stab.exclstr
 *(.stab.exclstr)

.stab.index
 *(.stab.index)

.stab.indexstr
 *(.stab.indexstr)

.comment        0x0000000000000000       0x11
 *(.comment)
 .comment       0x0000000000000000       0x11 /opt/ps3dev/ppu/lib/gcc/powerpc64-ps3-elf/4.7.0/crtbegin.o
                                         0x12 (size before relaxing)
 .comment       0x0000000000000000       0x12 /opt/ps3dev/ppu/lib/gcc/powerpc64-ps3-elf/4.7.0/../../../../powerpc64-ps3-elf/lib/lv2-crt0.o
 .comment       0x0000000000000000       0x12 main.o
 .comment       0x0000000000000000       0x12 /opt/ps3dev/portlibs/ppu/lib/libya2d.a(ya2d.o)
 .comment       0x0000000000000000       0x12 /opt/ps3dev/portlibs/ppu/lib/libya2d.a(ya2d_controls.o)
 .comment       0x0000000000000000       0x12 /opt/ps3dev/portlibs/ppu/lib/libya2d.a(ya2d_draw.o)
 .comment       0x0000000000000000       0x12 /opt/ps3dev/portlibs/ppu/lib/libya2d.a(ya2d_screen.o)
 .comment       0x0000000000000000       0x12 /opt/ps3dev/portlibs/ppu/lib/libya2d.a(ya2d_texture.o)
 .comment       0x0000000000000000       0x12 /opt/ps3dev/portlibs/ppu/lib/libya2d.a(ya2d_utils.o)
 .comment       0x0000000000000000       0x12 /opt/ps3dev/portlibs/ppu/lib/libya2d.a(msxfont.o)
 .comment       0x0000000000000000       0x12 /opt/ps3dev/portlibs/ppu/lib/libya2d.a(valloc.o)
 .comment       0x0000000000000000       0x12 /opt/ps3dev/portlibs/ppu/lib/libfont.a(libfont.o)
 .comment       0x0000000000000000       0x12 /opt/ps3dev/portlibs/ppu/lib/libtiny3d.a(matrix.o)
 .comment       0x0000000000000000       0x12 /opt/ps3dev/portlibs/ppu/lib/libtiny3d.a(tiny3d.o)
 .comment       0x0000000000000000       0x12 /opt/ps3dev/portlibs/ppu/lib/libtiny3d.a(commands.o)
 .comment       0x0000000000000000       0x12 /opt/ps3dev/portlibs/ppu/lib/libtiny3d.a(glue.o)
 .comment       0x0000000000000000       0x12 /opt/ps3dev/portlibs/ppu/lib/libtiny3d.a(mm.o)
 .comment       0x0000000000000000       0x12 /opt/ps3dev/portlibs/ppu/lib/libtiny3d.a(realityVP.o)
 .comment       0x0000000000000000       0x12 /opt/ps3dev/portlibs/ppu/lib/libtiny3d.a(rsxutil.o)
 .comment       0x0000000000000000       0x12 /opt/ps3dev/portlibs/ppu/lib/libtiny3d.a(buffer.o)
 .comment       0x0000000000000000       0x12 /opt/ps3dev/ppu/lib/gcc/powerpc64-ps3-elf/4.7.0/../../../../powerpc64-ps3-elf/lib/libc.a(lib_a-atexit.o)
 .comment       0x0000000000000000       0x12 /opt/ps3dev/ppu/lib/gcc/powerpc64-ps3-elf/4.7.0/../../../../powerpc64-ps3-elf/lib/libc.a(lib_a-exit.o)
 .comment       0x0000000000000000       0x12 /opt/ps3dev/ppu/lib/gcc/powerpc64-ps3-elf/4.7.0/../../../../powerpc64-ps3-elf/lib/libc.a(lib_a-impure.o)
 .comment       0x0000000000000000       0x12 /opt/ps3dev/ppu/lib/gcc/powerpc64-ps3-elf/4.7.0/../../../../powerpc64-ps3-elf/lib/libc.a(lib_a-malign.o)
 .comment       0x0000000000000000       0x12 /opt/ps3dev/ppu/lib/gcc/powerpc64-ps3-elf/4.7.0/../../../../powerpc64-ps3-elf/lib/libc.a(lib_a-malignr.o)
 .comment       0x0000000000000000       0x12 /opt/ps3dev/ppu/lib/gcc/powerpc64-ps3-elf/4.7.0/../../../../powerpc64-ps3-elf/lib/libc.a(lib_a-malloc.o)
 .comment       0x0000000000000000       0x12 /opt/ps3dev/ppu/lib/gcc/powerpc64-ps3-elf/4.7.0/../../../../powerpc64-ps3-elf/lib/libc.a(lib_a-mallocr.o)
 .comment       0x0000000000000000       0x12 /opt/ps3dev/ppu/lib/gcc/powerpc64-ps3-elf/4.7.0/../../../../powerpc64-ps3-elf/lib/libc.a(lib_a-memcpy.o)
 .comment       0x0000000000000000       0x12 /opt/ps3dev/ppu/lib/gcc/powerpc64-ps3-elf/4.7.0/../../../../powerpc64-ps3-elf/lib/libc.a(lib_a-memset.o)
 .comment       0x0000000000000000       0x12 /opt/ps3dev/ppu/lib/gcc/powerpc64-ps3-elf/4.7.0/../../../../powerpc64-ps3-elf/lib/libc.a(lib_a-mlock.o)
 .comment       0x0000000000000000       0x12 /opt/ps3dev/ppu/lib/gcc/powerpc64-ps3-elf/4.7.0/../../../../powerpc64-ps3-elf/lib/libc.a(lib_a-rand.o)
 .comment       0x0000000000000000       0x12 /opt/ps3dev/ppu/lib/gcc/powerpc64-ps3-elf/4.7.0/../../../../powerpc64-ps3-elf/lib/libc.a(lib_a-strcasecmp.o)
 .comment       0x0000000000000000       0x12 /opt/ps3dev/ppu/lib/gcc/powerpc64-ps3-elf/4.7.0/../../../../powerpc64-ps3-elf/lib/libc.a(lib_a-vsprintf.o)
 .comment       0x0000000000000000       0x12 /opt/ps3dev/ppu/lib/gcc/powerpc64-ps3-elf/4.7.0/../../../../powerpc64-ps3-elf/lib/libc.a(lib_a-__atexit.o)
 .comment       0x0000000000000000       0x12 /opt/ps3dev/ppu/lib/gcc/powerpc64-ps3-elf/4.7.0/../../../../powerpc64-ps3-elf/lib/libc.a(lib_a-__call_atexit.o)
 .comment       0x0000000000000000       0x12 /opt/ps3dev/ppu/lib/gcc/powerpc64-ps3-elf/4.7.0/../../../../powerpc64-ps3-elf/lib/libc.a(lib_a-ctype_.o)
 .comment       0x0000000000000000       0x12 /opt/ps3dev/ppu/lib/gcc/powerpc64-ps3-elf/4.7.0/../../../../powerpc64-ps3-elf/lib/libc.a(lib_a-freer.o)
 .comment       0x0000000000000000       0x12 /opt/ps3dev/ppu/lib/gcc/powerpc64-ps3-elf/4.7.0/../../../../powerpc64-ps3-elf/lib/libc.a(lib_a-getreent.o)
 .comment       0x0000000000000000       0x12 /opt/ps3dev/ppu/lib/gcc/powerpc64-ps3-elf/4.7.0/../../../../powerpc64-ps3-elf/lib/libc.a(lib_a-lock_recursive.o)
 .comment       0x0000000000000000       0x12 /opt/ps3dev/ppu/lib/gcc/powerpc64-ps3-elf/4.7.0/../../../../powerpc64-ps3-elf/lib/libc.a(lib_a-svfprintf.o)
 .comment       0x0000000000000000       0x12 /opt/ps3dev/ppu/lib/gcc/powerpc64-ps3-elf/4.7.0/../../../../powerpc64-ps3-elf/lib/libc.a(lib_a-dtoa.o)
 .comment       0x0000000000000000       0x12 /opt/ps3dev/ppu/lib/gcc/powerpc64-ps3-elf/4.7.0/../../../../powerpc64-ps3-elf/lib/libc.a(lib_a-locale.o)
 .comment       0x0000000000000000       0x12 /opt/ps3dev/ppu/lib/gcc/powerpc64-ps3-elf/4.7.0/../../../../powerpc64-ps3-elf/lib/libc.a(lib_a-lock_internal.o)
 .comment       0x0000000000000000       0x12 /opt/ps3dev/ppu/lib/gcc/powerpc64-ps3-elf/4.7.0/../../../../powerpc64-ps3-elf/lib/libc.a(lib_a-memchr.o)
 .comment       0x0000000000000000       0x12 /opt/ps3dev/ppu/lib/gcc/powerpc64-ps3-elf/4.7.0/../../../../powerpc64-ps3-elf/lib/libc.a(lib_a-mprec.o)
 .comment       0x0000000000000000       0x12 /opt/ps3dev/ppu/lib/gcc/powerpc64-ps3-elf/4.7.0/../../../../powerpc64-ps3-elf/lib/libc.a(lib_a-s_fpclassify.o)
 .comment       0x0000000000000000       0x12 /opt/ps3dev/ppu/lib/gcc/powerpc64-ps3-elf/4.7.0/../../../../powerpc64-ps3-elf/lib/libc.a(lib_a-strcmp.o)
 .comment       0x0000000000000000       0x12 /opt/ps3dev/ppu/lib/gcc/powerpc64-ps3-elf/4.7.0/../../../../powerpc64-ps3-elf/lib/libc.a(lib_a-strlen.o)
 .comment       0x0000000000000000       0x12 /opt/ps3dev/ppu/lib/gcc/powerpc64-ps3-elf/4.7.0/../../../../powerpc64-ps3-elf/lib/libc.a(lib_a-svfiprintf.o)
 .comment       0x0000000000000000       0x12 /opt/ps3dev/ppu/lib/gcc/powerpc64-ps3-elf/4.7.0/../../../../powerpc64-ps3-elf/lib/libc.a(lib_a-abort.o)
 .comment       0x0000000000000000       0x12 /opt/ps3dev/ppu/lib/gcc/powerpc64-ps3-elf/4.7.0/../../../../powerpc64-ps3-elf/lib/libc.a(lib_a-callocr.o)
 .comment       0x0000000000000000       0x12 /opt/ps3dev/ppu/lib/gcc/powerpc64-ps3-elf/4.7.0/../../../../powerpc64-ps3-elf/lib/libc.a(lib_a-memmove.o)
 .comment       0x0000000000000000       0x12 /opt/ps3dev/ppu/lib/gcc/powerpc64-ps3-elf/4.7.0/../../../../powerpc64-ps3-elf/lib/libc.a(lib_a-reallocr.o)
 .comment       0x0000000000000000       0x12 /opt/ps3dev/ppu/lib/gcc/powerpc64-ps3-elf/4.7.0/../../../../powerpc64-ps3-elf/lib/libc.a(lib_a-signal.o)
 .comment       0x0000000000000000       0x12 /opt/ps3dev/psl1ght/ppu/lib/libgcm_sys.a(sprx.o)
 .comment       0x0000000000000000       0x12 /opt/ps3dev/psl1ght/ppu/lib/libsysutil.a(sprx.o)
 .comment       0x0000000000000000       0x12 /opt/ps3dev/psl1ght/ppu/lib/libsysutil.a(sysutil_wrapper.o)
 .comment       0x0000000000000000       0x12 /opt/ps3dev/psl1ght/ppu/lib/libio.a(sprx.o)
 .comment       0x0000000000000000       0x12 /opt/ps3dev/ppu/lib/gcc/powerpc64-ps3-elf/4.7.0/../../../../powerpc64-ps3-elf/lib/libm.a(lib_a-sf_cos.o)
 .comment       0x0000000000000000       0x12 /opt/ps3dev/ppu/lib/gcc/powerpc64-ps3-elf/4.7.0/../../../../powerpc64-ps3-elf/lib/libm.a(lib_a-sf_sin.o)
 .comment       0x0000000000000000       0x12 /opt/ps3dev/ppu/lib/gcc/powerpc64-ps3-elf/4.7.0/../../../../powerpc64-ps3-elf/lib/libm.a(lib_a-sf_tan.o)
 .comment       0x0000000000000000       0x12 /opt/ps3dev/ppu/lib/gcc/powerpc64-ps3-elf/4.7.0/../../../../powerpc64-ps3-elf/lib/libm.a(lib_a-wf_sqrt.o)
 .comment       0x0000000000000000       0x12 /opt/ps3dev/ppu/lib/gcc/powerpc64-ps3-elf/4.7.0/../../../../powerpc64-ps3-elf/lib/libm.a(lib_a-w_sqrt.o)
 .comment       0x0000000000000000       0x12 /opt/ps3dev/ppu/lib/gcc/powerpc64-ps3-elf/4.7.0/../../../../powerpc64-ps3-elf/lib/libm.a(lib_a-ef_rem_pio2.o)
 .comment       0x0000000000000000       0x12 /opt/ps3dev/ppu/lib/gcc/powerpc64-ps3-elf/4.7.0/../../../../powerpc64-ps3-elf/lib/libm.a(lib_a-ef_sqrt.o)
 .comment       0x0000000000000000       0x12 /opt/ps3dev/ppu/lib/gcc/powerpc64-ps3-elf/4.7.0/../../../../powerpc64-ps3-elf/lib/libm.a(lib_a-e_sqrt.o)
 .comment       0x0000000000000000       0x12 /opt/ps3dev/ppu/lib/gcc/powerpc64-ps3-elf/4.7.0/../../../../powerpc64-ps3-elf/lib/libm.a(lib_a-kf_cos.o)
 .comment       0x0000000000000000       0x12 /opt/ps3dev/ppu/lib/gcc/powerpc64-ps3-elf/4.7.0/../../../../powerpc64-ps3-elf/lib/libm.a(lib_a-kf_rem_pio2.o)
 .comment       0x0000000000000000       0x12 /opt/ps3dev/ppu/lib/gcc/powerpc64-ps3-elf/4.7.0/../../../../powerpc64-ps3-elf/lib/libm.a(lib_a-kf_sin.o)
 .comment       0x0000000000000000       0x12 /opt/ps3dev/ppu/lib/gcc/powerpc64-ps3-elf/4.7.0/../../../../powerpc64-ps3-elf/lib/libm.a(lib_a-kf_tan.o)
 .comment       0x0000000000000000       0x12 /opt/ps3dev/ppu/lib/gcc/powerpc64-ps3-elf/4.7.0/../../../../powerpc64-ps3-elf/lib/libm.a(lib_a-sf_fabs.o)
 .comment       0x0000000000000000       0x12 /opt/ps3dev/ppu/lib/gcc/powerpc64-ps3-elf/4.7.0/../../../../powerpc64-ps3-elf/lib/libm.a(lib_a-sf_floor.o)
 .comment       0x0000000000000000       0x12 /opt/ps3dev/ppu/lib/gcc/powerpc64-ps3-elf/4.7.0/../../../../powerpc64-ps3-elf/lib/libm.a(lib_a-sf_fpclassify.o)
 .comment       0x0000000000000000       0x12 /opt/ps3dev/ppu/lib/gcc/powerpc64-ps3-elf/4.7.0/../../../../powerpc64-ps3-elf/lib/libm.a(lib_a-sf_scalbn.o)
 .comment       0x0000000000000000       0x12 /opt/ps3dev/ppu/lib/gcc/powerpc64-ps3-elf/4.7.0/../../../../powerpc64-ps3-elf/lib/libm.a(lib_a-s_lib_ver.o)
 .comment       0x0000000000000000       0x12 /opt/ps3dev/ppu/lib/gcc/powerpc64-ps3-elf/4.7.0/../../../../powerpc64-ps3-elf/lib/libm.a(lib_a-s_matherr.o)
 .comment       0x0000000000000000       0x12 /opt/ps3dev/ppu/lib/gcc/powerpc64-ps3-elf/4.7.0/../../../../powerpc64-ps3-elf/lib/libm.a(lib_a-sf_copysign.o)
 .comment       0x0000000000000000       0x12 /opt/ps3dev/psl1ght/ppu/lib/librt.a(sbrk.o)
 .comment       0x0000000000000000       0x12 /opt/ps3dev/psl1ght/ppu/lib/librt.a(exit.o)
 .comment       0x0000000000000000       0x12 /opt/ps3dev/psl1ght/ppu/lib/librt.a(close.o)
 .comment       0x0000000000000000       0x12 /opt/ps3dev/psl1ght/ppu/lib/librt.a(lseek.o)
 .comment       0x0000000000000000       0x12 /opt/ps3dev/psl1ght/ppu/lib/librt.a(read.o)
 .comment       0x0000000000000000       0x12 /opt/ps3dev/psl1ght/ppu/lib/librt.a(open.o)
 .comment       0x0000000000000000       0x12 /opt/ps3dev/psl1ght/ppu/lib/librt.a(sleep.o)
 .comment       0x0000000000000000       0x12 /opt/ps3dev/psl1ght/ppu/lib/librt.a(write.o)
 .comment       0x0000000000000000       0x12 /opt/ps3dev/psl1ght/ppu/lib/librt.a(fstat.o)
 .comment       0x0000000000000000       0x12 /opt/ps3dev/psl1ght/ppu/lib/librt.a(socket.o)
 .comment       0x0000000000000000       0x12 /opt/ps3dev/psl1ght/ppu/lib/librt.a(lock.o)
 .comment       0x0000000000000000       0x12 /opt/ps3dev/psl1ght/ppu/lib/librt.a(dirent.o)
 .comment       0x0000000000000000       0x12 /opt/ps3dev/psl1ght/ppu/lib/librt.a(mkdir.o)
 .comment       0x0000000000000000       0x12 /opt/ps3dev/psl1ght/ppu/lib/librt.a(times.o)
 .comment       0x0000000000000000       0x12 /opt/ps3dev/psl1ght/ppu/lib/librt.a(umask.o)
 .comment       0x0000000000000000       0x12 /opt/ps3dev/psl1ght/ppu/lib/librt.a(lv2errno.o)
 .comment       0x0000000000000000       0x12 /opt/ps3dev/psl1ght/ppu/lib/librt.a(heap.o)
 .comment       0x0000000000000000       0x12 /opt/ps3dev/psl1ght/ppu/lib/librt.a(chmod.o)
 .comment       0x0000000000000000       0x12 /opt/ps3dev/psl1ght/ppu/lib/librt.a(rmdir.o)
 .comment       0x0000000000000000       0x12 /opt/ps3dev/psl1ght/ppu/lib/librt.a(isatty.o)
 .comment       0x0000000000000000       0x12 /opt/ps3dev/psl1ght/ppu/lib/librt.a(gettod.o)
 .comment       0x0000000000000000       0x12 /opt/ps3dev/psl1ght/ppu/lib/librt.a(settod.o)
 .comment       0x0000000000000000       0x12 /opt/ps3dev/psl1ght/ppu/lib/liblv2.a(sprx.o)
 .comment       0x0000000000000000       0x12 /opt/ps3dev/psl1ght/ppu/lib/libsysmodule.a(sprx.o)
 .comment       0x0000000000000000       0x12 /opt/ps3dev/psl1ght/ppu/lib/libpngdec.a(pngdec.o)
 .comment       0x0000000000000000       0x12 /opt/ps3dev/psl1ght/ppu/lib/libpngdec.a(sprx.o)
 .comment       0x0000000000000000       0x12 /opt/ps3dev/psl1ght/ppu/lib/libjpgdec.a(jpgdec.o)
 .comment       0x0000000000000000       0x12 /opt/ps3dev/psl1ght/ppu/lib/libjpgdec.a(sprx.o)
 .comment       0x0000000000000000       0x12 /opt/ps3dev/ppu/lib/gcc/powerpc64-ps3-elf/4.7.0/../../../../powerpc64-ps3-elf/lib/libsysbase.a(sbrk.o)
 .comment       0x0000000000000000       0x12 /opt/ps3dev/ppu/lib/gcc/powerpc64-ps3-elf/4.7.0/../../../../powerpc64-ps3-elf/lib/libsysbase.a(syscalls.o)
 .comment       0x0000000000000000       0x12 /opt/ps3dev/ppu/lib/gcc/powerpc64-ps3-elf/4.7.0/../../../../powerpc64-ps3-elf/lib/libsysbase.a(_exit.o)
 .comment       0x0000000000000000       0x12 /opt/ps3dev/ppu/lib/gcc/powerpc64-ps3-elf/4.7.0/../../../../powerpc64-ps3-elf/lib/libsysbase.a(lock.o)
 .comment       0x0000000000000000       0x12 /opt/ps3dev/ppu/lib/gcc/powerpc64-ps3-elf/4.7.0/../../../../powerpc64-ps3-elf/lib/libsysbase.a(getpid.o)
 .comment       0x0000000000000000       0x12 /opt/ps3dev/ppu/lib/gcc/powerpc64-ps3-elf/4.7.0/../../../../powerpc64-ps3-elf/lib/libsysbase.a(kill.o)
 .comment       0x0000000000000000       0x12 /opt/ps3dev/ppu/lib/gcc/powerpc64-ps3-elf/4.7.0/../../../../powerpc64-ps3-elf/lib/libsysbase.a(sleep.o)
 .comment       0x0000000000000000       0x12 /opt/ps3dev/ppu/lib/gcc/powerpc64-ps3-elf/4.7.0/../../../../powerpc64-ps3-elf/lib/libc.a(lib_a-errno.o)
 .comment       0x0000000000000000       0x12 /opt/ps3dev/ppu/lib/gcc/powerpc64-ps3-elf/4.7.0/../../../../powerpc64-ps3-elf/lib/libc.a(lib_a-sscanf.o)
 .comment       0x0000000000000000       0x12 /opt/ps3dev/ppu/lib/gcc/powerpc64-ps3-elf/4.7.0/../../../../powerpc64-ps3-elf/lib/libc.a(lib_a-stdio.o)
 .comment       0x0000000000000000       0x12 /opt/ps3dev/ppu/lib/gcc/powerpc64-ps3-elf/4.7.0/../../../../powerpc64-ps3-elf/lib/libc.a(lib_a-strncpy.o)
 .comment       0x0000000000000000       0x12 /opt/ps3dev/ppu/lib/gcc/powerpc64-ps3-elf/4.7.0/../../../../powerpc64-ps3-elf/lib/libc.a(lib_a-svfscanf.o)
 .comment       0x0000000000000000       0x12 /opt/ps3dev/ppu/lib/gcc/powerpc64-ps3-elf/4.7.0/../../../../powerpc64-ps3-elf/lib/libc.a(lib_a-iswspace.o)
 .comment       0x0000000000000000       0x12 /opt/ps3dev/ppu/lib/gcc/powerpc64-ps3-elf/4.7.0/../../../../powerpc64-ps3-elf/lib/libc.a(lib_a-mbrtowc.o)
 .comment       0x0000000000000000       0x12 /opt/ps3dev/ppu/lib/gcc/powerpc64-ps3-elf/4.7.0/../../../../powerpc64-ps3-elf/lib/libc.a(lib_a-mbtowc_r.o)
 .comment       0x0000000000000000       0x12 /opt/ps3dev/ppu/lib/gcc/powerpc64-ps3-elf/4.7.0/../../../../powerpc64-ps3-elf/lib/libc.a(lib_a-sccl.o)
 .comment       0x0000000000000000       0x12 /opt/ps3dev/ppu/lib/gcc/powerpc64-ps3-elf/4.7.0/../../../../powerpc64-ps3-elf/lib/libc.a(lib_a-sf_nan.o)
 .comment       0x0000000000000000       0x12 /opt/ps3dev/ppu/lib/gcc/powerpc64-ps3-elf/4.7.0/../../../../powerpc64-ps3-elf/lib/libc.a(lib_a-sprintf.o)
 .comment       0x0000000000000000       0x12 /opt/ps3dev/ppu/lib/gcc/powerpc64-ps3-elf/4.7.0/../../../../powerpc64-ps3-elf/lib/libc.a(lib_a-strtod.o)
 .comment       0x0000000000000000       0x12 /opt/ps3dev/ppu/lib/gcc/powerpc64-ps3-elf/4.7.0/../../../../powerpc64-ps3-elf/lib/libc.a(lib_a-strtoll_r.o)
 .comment       0x0000000000000000       0x12 /opt/ps3dev/ppu/lib/gcc/powerpc64-ps3-elf/4.7.0/../../../../powerpc64-ps3-elf/lib/libc.a(lib_a-strtol.o)
 .comment       0x0000000000000000       0x12 /opt/ps3dev/ppu/lib/gcc/powerpc64-ps3-elf/4.7.0/../../../../powerpc64-ps3-elf/lib/libc.a(lib_a-strtoull_r.o)
 .comment       0x0000000000000000       0x12 /opt/ps3dev/ppu/lib/gcc/powerpc64-ps3-elf/4.7.0/../../../../powerpc64-ps3-elf/lib/libc.a(lib_a-strtoul.o)
 .comment       0x0000000000000000       0x12 /opt/ps3dev/ppu/lib/gcc/powerpc64-ps3-elf/4.7.0/../../../../powerpc64-ps3-elf/lib/libc.a(lib_a-svfiscanf.o)
 .comment       0x0000000000000000       0x12 /opt/ps3dev/ppu/lib/gcc/powerpc64-ps3-elf/4.7.0/../../../../powerpc64-ps3-elf/lib/libc.a(lib_a-ungetc.o)
 .comment       0x0000000000000000       0x12 /opt/ps3dev/ppu/lib/gcc/powerpc64-ps3-elf/4.7.0/../../../../powerpc64-ps3-elf/lib/libc.a(lib_a-fflush.o)
 .comment       0x0000000000000000       0x12 /opt/ps3dev/ppu/lib/gcc/powerpc64-ps3-elf/4.7.0/../../../../powerpc64-ps3-elf/lib/libc.a(lib_a-findfp.o)
 .comment       0x0000000000000000       0x12 /opt/ps3dev/ppu/lib/gcc/powerpc64-ps3-elf/4.7.0/../../../../powerpc64-ps3-elf/lib/libc.a(lib_a-fwalk.o)
 .comment       0x0000000000000000       0x12 /opt/ps3dev/ppu/lib/gcc/powerpc64-ps3-elf/4.7.0/../../../../powerpc64-ps3-elf/lib/libc.a(lib_a-gdtoa-gethex.o)
 .comment       0x0000000000000000       0x12 /opt/ps3dev/ppu/lib/gcc/powerpc64-ps3-elf/4.7.0/../../../../powerpc64-ps3-elf/lib/libc.a(lib_a-gdtoa-hexnan.o)
 .comment       0x0000000000000000       0x12 /opt/ps3dev/ppu/lib/gcc/powerpc64-ps3-elf/4.7.0/../../../../powerpc64-ps3-elf/lib/libc.a(lib_a-strncmp.o)
 .comment       0x0000000000000000       0x12 /opt/ps3dev/ppu/lib/gcc/powerpc64-ps3-elf/4.7.0/../../../../powerpc64-ps3-elf/lib/libc.a(lib_a-fclose.o)
 .comment       0x0000000000000000       0x12 /opt/ps3dev/ppu/lib/gcc/powerpc64-ps3-elf/4.7.0/../../../../powerpc64-ps3-elf/lib/libsysbase.a(close.o)
 .comment       0x0000000000000000       0x12 /opt/ps3dev/ppu/lib/gcc/powerpc64-ps3-elf/4.7.0/../../../../powerpc64-ps3-elf/lib/libsysbase.a(lseek.o)
 .comment       0x0000000000000000       0x12 /opt/ps3dev/ppu/lib/gcc/powerpc64-ps3-elf/4.7.0/../../../../powerpc64-ps3-elf/lib/libsysbase.a(read.o)
 .comment       0x0000000000000000       0x12 /opt/ps3dev/ppu/lib/gcc/powerpc64-ps3-elf/4.7.0/../../../../powerpc64-ps3-elf/lib/libsysbase.a(write.o)
 .comment       0x0000000000000000       0x12 /opt/ps3dev/ppu/lib/gcc/powerpc64-ps3-elf/4.7.0/crtend.o

.debug
 *(.debug)

.line
 *(.line)

.debug_srcinfo
 *(.debug_srcinfo)

.debug_sfnames
 *(.debug_sfnames)

.debug_aranges  0x0000000000000000     0x15c0
 *(.debug_aranges)
 .debug_aranges
                0x0000000000000000       0x30 /opt/ps3dev/ppu/lib/gcc/powerpc64-ps3-elf/4.7.0/../../../../powerpc64-ps3-elf/lib/libc.a(lib_a-atexit.o)
 .debug_aranges
                0x0000000000000030       0x30 /opt/ps3dev/ppu/lib/gcc/powerpc64-ps3-elf/4.7.0/../../../../powerpc64-ps3-elf/lib/libc.a(lib_a-exit.o)
 .debug_aranges
                0x0000000000000060       0x20 /opt/ps3dev/ppu/lib/gcc/powerpc64-ps3-elf/4.7.0/../../../../powerpc64-ps3-elf/lib/libc.a(lib_a-impure.o)
 .debug_aranges
                0x0000000000000080       0x30 /opt/ps3dev/ppu/lib/gcc/powerpc64-ps3-elf/4.7.0/../../../../powerpc64-ps3-elf/lib/libc.a(lib_a-malign.o)
 .debug_aranges
                0x00000000000000b0       0x30 /opt/ps3dev/ppu/lib/gcc/powerpc64-ps3-elf/4.7.0/../../../../powerpc64-ps3-elf/lib/libc.a(lib_a-malignr.o)
 .debug_aranges
                0x00000000000000e0       0x40 /opt/ps3dev/ppu/lib/gcc/powerpc64-ps3-elf/4.7.0/../../../../powerpc64-ps3-elf/lib/libc.a(lib_a-malloc.o)
 .debug_aranges
                0x0000000000000120       0x30 /opt/ps3dev/ppu/lib/gcc/powerpc64-ps3-elf/4.7.0/../../../../powerpc64-ps3-elf/lib/libc.a(lib_a-mallocr.o)
 .debug_aranges
                0x0000000000000150       0x30 /opt/ps3dev/ppu/lib/gcc/powerpc64-ps3-elf/4.7.0/../../../../powerpc64-ps3-elf/lib/libc.a(lib_a-memcpy.o)
 .debug_aranges
                0x0000000000000180       0x30 /opt/ps3dev/ppu/lib/gcc/powerpc64-ps3-elf/4.7.0/../../../../powerpc64-ps3-elf/lib/libc.a(lib_a-memset.o)
 .debug_aranges
                0x00000000000001b0       0x40 /opt/ps3dev/ppu/lib/gcc/powerpc64-ps3-elf/4.7.0/../../../../powerpc64-ps3-elf/lib/libc.a(lib_a-mlock.o)
 .debug_aranges
                0x00000000000001f0       0x40 /opt/ps3dev/ppu/lib/gcc/powerpc64-ps3-elf/4.7.0/../../../../powerpc64-ps3-elf/lib/libc.a(lib_a-rand.o)
 .debug_aranges
                0x0000000000000230       0x30 /opt/ps3dev/ppu/lib/gcc/powerpc64-ps3-elf/4.7.0/../../../../powerpc64-ps3-elf/lib/libc.a(lib_a-strcasecmp.o)
 .debug_aranges
                0x0000000000000260       0x40 /opt/ps3dev/ppu/lib/gcc/powerpc64-ps3-elf/4.7.0/../../../../powerpc64-ps3-elf/lib/libc.a(lib_a-vsprintf.o)
 .debug_aranges
                0x00000000000002a0       0x30 /opt/ps3dev/ppu/lib/gcc/powerpc64-ps3-elf/4.7.0/../../../../powerpc64-ps3-elf/lib/libc.a(lib_a-__atexit.o)
 .debug_aranges
                0x00000000000002d0       0x30 /opt/ps3dev/ppu/lib/gcc/powerpc64-ps3-elf/4.7.0/../../../../powerpc64-ps3-elf/lib/libc.a(lib_a-__call_atexit.o)
 .debug_aranges
                0x0000000000000300       0x20 /opt/ps3dev/ppu/lib/gcc/powerpc64-ps3-elf/4.7.0/../../../../powerpc64-ps3-elf/lib/libc.a(lib_a-ctype_.o)
 .debug_aranges
                0x0000000000000320       0x40 /opt/ps3dev/ppu/lib/gcc/powerpc64-ps3-elf/4.7.0/../../../../powerpc64-ps3-elf/lib/libc.a(lib_a-freer.o)
 .debug_aranges
                0x0000000000000360       0x30 /opt/ps3dev/ppu/lib/gcc/powerpc64-ps3-elf/4.7.0/../../../../powerpc64-ps3-elf/lib/libc.a(lib_a-getreent.o)
 .debug_aranges
                0x0000000000000390       0x70 /opt/ps3dev/ppu/lib/gcc/powerpc64-ps3-elf/4.7.0/../../../../powerpc64-ps3-elf/lib/libc.a(lib_a-lock_recursive.o)
 .debug_aranges
                0x0000000000000400       0x30 /opt/ps3dev/ppu/lib/gcc/powerpc64-ps3-elf/4.7.0/../../../../powerpc64-ps3-elf/lib/libc.a(lib_a-svfprintf.o)
 .debug_aranges
                0x0000000000000430       0x40 /opt/ps3dev/ppu/lib/gcc/powerpc64-ps3-elf/4.7.0/../../../../powerpc64-ps3-elf/lib/libc.a(lib_a-dtoa.o)
 .debug_aranges
                0x0000000000000470       0xa0 /opt/ps3dev/ppu/lib/gcc/powerpc64-ps3-elf/4.7.0/../../../../powerpc64-ps3-elf/lib/libc.a(lib_a-locale.o)
 .debug_aranges
                0x0000000000000510       0x40 /opt/ps3dev/ppu/lib/gcc/powerpc64-ps3-elf/4.7.0/../../../../powerpc64-ps3-elf/lib/libc.a(lib_a-lock_internal.o)
 .debug_aranges
                0x0000000000000550       0x30 /opt/ps3dev/ppu/lib/gcc/powerpc64-ps3-elf/4.7.0/../../../../powerpc64-ps3-elf/lib/libc.a(lib_a-memchr.o)
 .debug_aranges
                0x0000000000000580      0x150 /opt/ps3dev/ppu/lib/gcc/powerpc64-ps3-elf/4.7.0/../../../../powerpc64-ps3-elf/lib/libc.a(lib_a-mprec.o)
 .debug_aranges
                0x00000000000006d0       0x30 /opt/ps3dev/ppu/lib/gcc/powerpc64-ps3-elf/4.7.0/../../../../powerpc64-ps3-elf/lib/libc.a(lib_a-s_fpclassify.o)
 .debug_aranges
                0x0000000000000700       0x30 /opt/ps3dev/ppu/lib/gcc/powerpc64-ps3-elf/4.7.0/../../../../powerpc64-ps3-elf/lib/libc.a(lib_a-strcmp.o)
 .debug_aranges
                0x0000000000000730       0x30 /opt/ps3dev/ppu/lib/gcc/powerpc64-ps3-elf/4.7.0/../../../../powerpc64-ps3-elf/lib/libc.a(lib_a-strlen.o)
 .debug_aranges
                0x0000000000000760       0x40 /opt/ps3dev/ppu/lib/gcc/powerpc64-ps3-elf/4.7.0/../../../../powerpc64-ps3-elf/lib/libc.a(lib_a-svfiprintf.o)
 .debug_aranges
                0x00000000000007a0       0x30 /opt/ps3dev/ppu/lib/gcc/powerpc64-ps3-elf/4.7.0/../../../../powerpc64-ps3-elf/lib/libc.a(lib_a-abort.o)
 .debug_aranges
                0x00000000000007d0       0x30 /opt/ps3dev/ppu/lib/gcc/powerpc64-ps3-elf/4.7.0/../../../../powerpc64-ps3-elf/lib/libc.a(lib_a-callocr.o)
 .debug_aranges
                0x0000000000000800       0x30 /opt/ps3dev/ppu/lib/gcc/powerpc64-ps3-elf/4.7.0/../../../../powerpc64-ps3-elf/lib/libc.a(lib_a-memmove.o)
 .debug_aranges
                0x0000000000000830       0x30 /opt/ps3dev/ppu/lib/gcc/powerpc64-ps3-elf/4.7.0/../../../../powerpc64-ps3-elf/lib/libc.a(lib_a-reallocr.o)
 .debug_aranges
                0x0000000000000860       0xa0 /opt/ps3dev/ppu/lib/gcc/powerpc64-ps3-elf/4.7.0/../../../../powerpc64-ps3-elf/lib/libc.a(lib_a-signal.o)
 .debug_aranges
                0x0000000000000900       0x30 /opt/ps3dev/ppu/lib/gcc/powerpc64-ps3-elf/4.7.0/../../../../powerpc64-ps3-elf/lib/libm.a(lib_a-sf_cos.o)
 .debug_aranges
                0x0000000000000930       0x30 /opt/ps3dev/ppu/lib/gcc/powerpc64-ps3-elf/4.7.0/../../../../powerpc64-ps3-elf/lib/libm.a(lib_a-sf_sin.o)
 .debug_aranges
                0x0000000000000960       0x30 /opt/ps3dev/ppu/lib/gcc/powerpc64-ps3-elf/4.7.0/../../../../powerpc64-ps3-elf/lib/libm.a(lib_a-sf_tan.o)
 .debug_aranges
                0x0000000000000990       0x30 /opt/ps3dev/ppu/lib/gcc/powerpc64-ps3-elf/4.7.0/../../../../powerpc64-ps3-elf/lib/libm.a(lib_a-wf_sqrt.o)
 .debug_aranges
                0x00000000000009c0       0x30 /opt/ps3dev/ppu/lib/gcc/powerpc64-ps3-elf/4.7.0/../../../../powerpc64-ps3-elf/lib/libm.a(lib_a-w_sqrt.o)
 .debug_aranges
                0x00000000000009f0       0x30 /opt/ps3dev/ppu/lib/gcc/powerpc64-ps3-elf/4.7.0/../../../../powerpc64-ps3-elf/lib/libm.a(lib_a-ef_rem_pio2.o)
 .debug_aranges
                0x0000000000000a20       0x30 /opt/ps3dev/ppu/lib/gcc/powerpc64-ps3-elf/4.7.0/../../../../powerpc64-ps3-elf/lib/libm.a(lib_a-ef_sqrt.o)
 .debug_aranges
                0x0000000000000a50       0x30 /opt/ps3dev/ppu/lib/gcc/powerpc64-ps3-elf/4.7.0/../../../../powerpc64-ps3-elf/lib/libm.a(lib_a-e_sqrt.o)
 .debug_aranges
                0x0000000000000a80       0x30 /opt/ps3dev/ppu/lib/gcc/powerpc64-ps3-elf/4.7.0/../../../../powerpc64-ps3-elf/lib/libm.a(lib_a-kf_cos.o)
 .debug_aranges
                0x0000000000000ab0       0x30 /opt/ps3dev/ppu/lib/gcc/powerpc64-ps3-elf/4.7.0/../../../../powerpc64-ps3-elf/lib/libm.a(lib_a-kf_rem_pio2.o)
 .debug_aranges
                0x0000000000000ae0       0x30 /opt/ps3dev/ppu/lib/gcc/powerpc64-ps3-elf/4.7.0/../../../../powerpc64-ps3-elf/lib/libm.a(lib_a-kf_sin.o)
 .debug_aranges
                0x0000000000000b10       0x30 /opt/ps3dev/ppu/lib/gcc/powerpc64-ps3-elf/4.7.0/../../../../powerpc64-ps3-elf/lib/libm.a(lib_a-kf_tan.o)
 .debug_aranges
                0x0000000000000b40       0x30 /opt/ps3dev/ppu/lib/gcc/powerpc64-ps3-elf/4.7.0/../../../../powerpc64-ps3-elf/lib/libm.a(lib_a-sf_fabs.o)
 .debug_aranges
                0x0000000000000b70       0x30 /opt/ps3dev/ppu/lib/gcc/powerpc64-ps3-elf/4.7.0/../../../../powerpc64-ps3-elf/lib/libm.a(lib_a-sf_floor.o)
 .debug_aranges
                0x0000000000000ba0       0x30 /opt/ps3dev/ppu/lib/gcc/powerpc64-ps3-elf/4.7.0/../../../../powerpc64-ps3-elf/lib/libm.a(lib_a-sf_fpclassify.o)
 .debug_aranges
                0x0000000000000bd0       0x30 /opt/ps3dev/ppu/lib/gcc/powerpc64-ps3-elf/4.7.0/../../../../powerpc64-ps3-elf/lib/libm.a(lib_a-sf_scalbn.o)
 .debug_aranges
                0x0000000000000c00       0x20 /opt/ps3dev/ppu/lib/gcc/powerpc64-ps3-elf/4.7.0/../../../../powerpc64-ps3-elf/lib/libm.a(lib_a-s_lib_ver.o)
 .debug_aranges
                0x0000000000000c20       0x30 /opt/ps3dev/ppu/lib/gcc/powerpc64-ps3-elf/4.7.0/../../../../powerpc64-ps3-elf/lib/libm.a(lib_a-s_matherr.o)
 .debug_aranges
                0x0000000000000c50       0x30 /opt/ps3dev/ppu/lib/gcc/powerpc64-ps3-elf/4.7.0/../../../../powerpc64-ps3-elf/lib/libm.a(lib_a-sf_copysign.o)
 .debug_aranges
                0x0000000000000c80       0x30 /opt/ps3dev/ppu/lib/gcc/powerpc64-ps3-elf/4.7.0/../../../../powerpc64-ps3-elf/lib/libsysbase.a(sbrk.o)
 .debug_aranges
                0x0000000000000cb0       0x20 /opt/ps3dev/ppu/lib/gcc/powerpc64-ps3-elf/4.7.0/../../../../powerpc64-ps3-elf/lib/libsysbase.a(syscalls.o)
 .debug_aranges
                0x0000000000000cd0       0x30 /opt/ps3dev/ppu/lib/gcc/powerpc64-ps3-elf/4.7.0/../../../../powerpc64-ps3-elf/lib/libsysbase.a(_exit.o)
 .debug_aranges
                0x0000000000000d00       0x70 /opt/ps3dev/ppu/lib/gcc/powerpc64-ps3-elf/4.7.0/../../../../powerpc64-ps3-elf/lib/libsysbase.a(lock.o)
 .debug_aranges
                0x0000000000000d70       0x30 /opt/ps3dev/ppu/lib/gcc/powerpc64-ps3-elf/4.7.0/../../../../powerpc64-ps3-elf/lib/libsysbase.a(getpid.o)
 .debug_aranges
                0x0000000000000da0       0x30 /opt/ps3dev/ppu/lib/gcc/powerpc64-ps3-elf/4.7.0/../../../../powerpc64-ps3-elf/lib/libsysbase.a(kill.o)
 .debug_aranges
                0x0000000000000dd0       0x40 /opt/ps3dev/ppu/lib/gcc/powerpc64-ps3-elf/4.7.0/../../../../powerpc64-ps3-elf/lib/libsysbase.a(sleep.o)
 .debug_aranges
                0x0000000000000e10       0x30 /opt/ps3dev/ppu/lib/gcc/powerpc64-ps3-elf/4.7.0/../../../../powerpc64-ps3-elf/lib/libc.a(lib_a-errno.o)
 .debug_aranges
                0x0000000000000e40       0x40 /opt/ps3dev/ppu/lib/gcc/powerpc64-ps3-elf/4.7.0/../../../../powerpc64-ps3-elf/lib/libc.a(lib_a-sscanf.o)
 .debug_aranges
                0x0000000000000e80       0x70 /opt/ps3dev/ppu/lib/gcc/powerpc64-ps3-elf/4.7.0/../../../../powerpc64-ps3-elf/lib/libc.a(lib_a-stdio.o)
 .debug_aranges
                0x0000000000000ef0       0x30 /opt/ps3dev/ppu/lib/gcc/powerpc64-ps3-elf/4.7.0/../../../../powerpc64-ps3-elf/lib/libc.a(lib_a-strncpy.o)
 .debug_aranges
                0x0000000000000f20       0x30 /opt/ps3dev/ppu/lib/gcc/powerpc64-ps3-elf/4.7.0/../../../../powerpc64-ps3-elf/lib/libc.a(lib_a-svfscanf.o)
 .debug_aranges
                0x0000000000000f50       0x30 /opt/ps3dev/ppu/lib/gcc/powerpc64-ps3-elf/4.7.0/../../../../powerpc64-ps3-elf/lib/libc.a(lib_a-iswspace.o)
 .debug_aranges
                0x0000000000000f80       0x40 /opt/ps3dev/ppu/lib/gcc/powerpc64-ps3-elf/4.7.0/../../../../powerpc64-ps3-elf/lib/libc.a(lib_a-mbrtowc.o)
 .debug_aranges
                0x0000000000000fc0       0x40 /opt/ps3dev/ppu/lib/gcc/powerpc64-ps3-elf/4.7.0/../../../../powerpc64-ps3-elf/lib/libc.a(lib_a-mbtowc_r.o)
 .debug_aranges
                0x0000000000001000       0x30 /opt/ps3dev/ppu/lib/gcc/powerpc64-ps3-elf/4.7.0/../../../../powerpc64-ps3-elf/lib/libc.a(lib_a-sccl.o)
 .debug_aranges
                0x0000000000001030       0x30 /opt/ps3dev/ppu/lib/gcc/powerpc64-ps3-elf/4.7.0/../../../../powerpc64-ps3-elf/lib/libc.a(lib_a-sf_nan.o)
 .debug_aranges
                0x0000000000001060       0x40 /opt/ps3dev/ppu/lib/gcc/powerpc64-ps3-elf/4.7.0/../../../../powerpc64-ps3-elf/lib/libc.a(lib_a-sprintf.o)
 .debug_aranges
                0x00000000000010a0       0x50 /opt/ps3dev/ppu/lib/gcc/powerpc64-ps3-elf/4.7.0/../../../../powerpc64-ps3-elf/lib/libc.a(lib_a-strtod.o)
 .debug_aranges
                0x00000000000010f0       0x30 /opt/ps3dev/ppu/lib/gcc/powerpc64-ps3-elf/4.7.0/../../../../powerpc64-ps3-elf/lib/libc.a(lib_a-strtoll_r.o)
 .debug_aranges
                0x0000000000001120       0x40 /opt/ps3dev/ppu/lib/gcc/powerpc64-ps3-elf/4.7.0/../../../../powerpc64-ps3-elf/lib/libc.a(lib_a-strtol.o)
 .debug_aranges
                0x0000000000001160       0x30 /opt/ps3dev/ppu/lib/gcc/powerpc64-ps3-elf/4.7.0/../../../../powerpc64-ps3-elf/lib/libc.a(lib_a-strtoull_r.o)
 .debug_aranges
                0x0000000000001190       0x40 /opt/ps3dev/ppu/lib/gcc/powerpc64-ps3-elf/4.7.0/../../../../powerpc64-ps3-elf/lib/libc.a(lib_a-strtoul.o)
 .debug_aranges
                0x00000000000011d0       0x60 /opt/ps3dev/ppu/lib/gcc/powerpc64-ps3-elf/4.7.0/../../../../powerpc64-ps3-elf/lib/libc.a(lib_a-svfiscanf.o)
 .debug_aranges
                0x0000000000001230       0x50 /opt/ps3dev/ppu/lib/gcc/powerpc64-ps3-elf/4.7.0/../../../../powerpc64-ps3-elf/lib/libc.a(lib_a-ungetc.o)
 .debug_aranges
                0x0000000000001280       0x50 /opt/ps3dev/ppu/lib/gcc/powerpc64-ps3-elf/4.7.0/../../../../powerpc64-ps3-elf/lib/libc.a(lib_a-fflush.o)
 .debug_aranges
                0x00000000000012d0      0x100 /opt/ps3dev/ppu/lib/gcc/powerpc64-ps3-elf/4.7.0/../../../../powerpc64-ps3-elf/lib/libc.a(lib_a-findfp.o)
 .debug_aranges
                0x00000000000013d0       0x40 /opt/ps3dev/ppu/lib/gcc/powerpc64-ps3-elf/4.7.0/../../../../powerpc64-ps3-elf/lib/libc.a(lib_a-fwalk.o)
 .debug_aranges
                0x0000000000001410       0x50 /opt/ps3dev/ppu/lib/gcc/powerpc64-ps3-elf/4.7.0/../../../../powerpc64-ps3-elf/lib/libc.a(lib_a-gdtoa-gethex.o)
 .debug_aranges
                0x0000000000001460       0x30 /opt/ps3dev/ppu/lib/gcc/powerpc64-ps3-elf/4.7.0/../../../../powerpc64-ps3-elf/lib/libc.a(lib_a-gdtoa-hexnan.o)
 .debug_aranges
                0x0000000000001490       0x30 /opt/ps3dev/ppu/lib/gcc/powerpc64-ps3-elf/4.7.0/../../../../powerpc64-ps3-elf/lib/libc.a(lib_a-strncmp.o)
 .debug_aranges
                0x00000000000014c0       0x40 /opt/ps3dev/ppu/lib/gcc/powerpc64-ps3-elf/4.7.0/../../../../powerpc64-ps3-elf/lib/libc.a(lib_a-fclose.o)
 .debug_aranges
                0x0000000000001500       0x30 /opt/ps3dev/ppu/lib/gcc/powerpc64-ps3-elf/4.7.0/../../../../powerpc64-ps3-elf/lib/libsysbase.a(close.o)
 .debug_aranges
                0x0000000000001530       0x30 /opt/ps3dev/ppu/lib/gcc/powerpc64-ps3-elf/4.7.0/../../../../powerpc64-ps3-elf/lib/libsysbase.a(lseek.o)
 .debug_aranges
                0x0000000000001560       0x30 /opt/ps3dev/ppu/lib/gcc/powerpc64-ps3-elf/4.7.0/../../../../powerpc64-ps3-elf/lib/libsysbase.a(read.o)
 .debug_aranges
                0x0000000000001590       0x30 /opt/ps3dev/ppu/lib/gcc/powerpc64-ps3-elf/4.7.0/../../../../powerpc64-ps3-elf/lib/libsysbase.a(write.o)

.debug_pubnames
 *(.debug_pubnames)

.debug_info     0x0000000000000000    0x352bf
 *(.debug_info .gnu.linkonce.wi.*)
 .debug_info    0x0000000000000000      0x12b /opt/ps3dev/ppu/lib/gcc/powerpc64-ps3-elf/4.7.0/../../../../powerpc64-ps3-elf/lib/libc.a(lib_a-atexit.o)
 .debug_info    0x000000000000012b      0xa5d /opt/ps3dev/ppu/lib/gcc/powerpc64-ps3-elf/4.7.0/../../../../powerpc64-ps3-elf/lib/libc.a(lib_a-exit.o)
 .debug_info    0x0000000000000b88      0x9f2 /opt/ps3dev/ppu/lib/gcc/powerpc64-ps3-elf/4.7.0/../../../../powerpc64-ps3-elf/lib/libc.a(lib_a-impure.o)
 .debug_info    0x000000000000157a      0xa62 /opt/ps3dev/ppu/lib/gcc/powerpc64-ps3-elf/4.7.0/../../../../powerpc64-ps3-elf/lib/libc.a(lib_a-malign.o)
 .debug_info    0x0000000000001fdc      0xc02 /opt/ps3dev/ppu/lib/gcc/powerpc64-ps3-elf/4.7.0/../../../../powerpc64-ps3-elf/lib/libc.a(lib_a-malignr.o)
 .debug_info    0x0000000000002bde      0xab4 /opt/ps3dev/ppu/lib/gcc/powerpc64-ps3-elf/4.7.0/../../../../powerpc64-ps3-elf/lib/libc.a(lib_a-malloc.o)
 .debug_info    0x0000000000003692      0xf6a /opt/ps3dev/ppu/lib/gcc/powerpc64-ps3-elf/4.7.0/../../../../powerpc64-ps3-elf/lib/libc.a(lib_a-mallocr.o)
 .debug_info    0x00000000000045fc      0x149 /opt/ps3dev/ppu/lib/gcc/powerpc64-ps3-elf/4.7.0/../../../../powerpc64-ps3-elf/lib/libc.a(lib_a-memcpy.o)
 .debug_info    0x0000000000004745      0x12f /opt/ps3dev/ppu/lib/gcc/powerpc64-ps3-elf/4.7.0/../../../../powerpc64-ps3-elf/lib/libc.a(lib_a-memset.o)
 .debug_info    0x0000000000004874      0xa9d /opt/ps3dev/ppu/lib/gcc/powerpc64-ps3-elf/4.7.0/../../../../powerpc64-ps3-elf/lib/libc.a(lib_a-mlock.o)
 .debug_info    0x0000000000005311      0xa5a /opt/ps3dev/ppu/lib/gcc/powerpc64-ps3-elf/4.7.0/../../../../powerpc64-ps3-elf/lib/libc.a(lib_a-rand.o)
 .debug_info    0x0000000000005d6b      0x177 /opt/ps3dev/ppu/lib/gcc/powerpc64-ps3-elf/4.7.0/../../../../powerpc64-ps3-elf/lib/libc.a(lib_a-strcasecmp.o)
 .debug_info    0x0000000000005ee2      0xb50 /opt/ps3dev/ppu/lib/gcc/powerpc64-ps3-elf/4.7.0/../../../../powerpc64-ps3-elf/lib/libc.a(lib_a-vsprintf.o)
 .debug_info    0x0000000000006a32      0xb3a /opt/ps3dev/ppu/lib/gcc/powerpc64-ps3-elf/4.7.0/../../../../powerpc64-ps3-elf/lib/libc.a(lib_a-__atexit.o)
 .debug_info    0x000000000000756c      0xb36 /opt/ps3dev/ppu/lib/gcc/powerpc64-ps3-elf/4.7.0/../../../../powerpc64-ps3-elf/lib/libc.a(lib_a-__call_atexit.o)
 .debug_info    0x00000000000080a2       0x79 /opt/ps3dev/ppu/lib/gcc/powerpc64-ps3-elf/4.7.0/../../../../powerpc64-ps3-elf/lib/libc.a(lib_a-ctype_.o)
 .debug_info    0x000000000000811b      0xde7 /opt/ps3dev/ppu/lib/gcc/powerpc64-ps3-elf/4.7.0/../../../../powerpc64-ps3-elf/lib/libc.a(lib_a-freer.o)
 .debug_info    0x0000000000008f02      0xaa7 /opt/ps3dev/ppu/lib/gcc/powerpc64-ps3-elf/4.7.0/../../../../powerpc64-ps3-elf/lib/libc.a(lib_a-getreent.o)
 .debug_info    0x00000000000099a9      0x3ee /opt/ps3dev/ppu/lib/gcc/powerpc64-ps3-elf/4.7.0/../../../../powerpc64-ps3-elf/lib/libc.a(lib_a-lock_recursive.o)
 .debug_info    0x0000000000009d97     0x18a1 /opt/ps3dev/ppu/lib/gcc/powerpc64-ps3-elf/4.7.0/../../../../powerpc64-ps3-elf/lib/libc.a(lib_a-svfprintf.o)
 .debug_info    0x000000000000b638     0x15a1 /opt/ps3dev/ppu/lib/gcc/powerpc64-ps3-elf/4.7.0/../../../../powerpc64-ps3-elf/lib/libc.a(lib_a-dtoa.o)
 .debug_info    0x000000000000cbd9      0xe2c /opt/ps3dev/ppu/lib/gcc/powerpc64-ps3-elf/4.7.0/../../../../powerpc64-ps3-elf/lib/libc.a(lib_a-locale.o)
 .debug_info    0x000000000000da05      0x2de /opt/ps3dev/ppu/lib/gcc/powerpc64-ps3-elf/4.7.0/../../../../powerpc64-ps3-elf/lib/libc.a(lib_a-lock_internal.o)
 .debug_info    0x000000000000dce3      0x143 /opt/ps3dev/ppu/lib/gcc/powerpc64-ps3-elf/4.7.0/../../../../powerpc64-ps3-elf/lib/libc.a(lib_a-memchr.o)
 .debug_info    0x000000000000de26     0x1935 /opt/ps3dev/ppu/lib/gcc/powerpc64-ps3-elf/4.7.0/../../../../powerpc64-ps3-elf/lib/libc.a(lib_a-mprec.o)
 .debug_info    0x000000000000f75b      0x158 /opt/ps3dev/ppu/lib/gcc/powerpc64-ps3-elf/4.7.0/../../../../powerpc64-ps3-elf/lib/libc.a(lib_a-s_fpclassify.o)
 .debug_info    0x000000000000f8b3       0xf5 /opt/ps3dev/ppu/lib/gcc/powerpc64-ps3-elf/4.7.0/../../../../powerpc64-ps3-elf/lib/libc.a(lib_a-strcmp.o)
 .debug_info    0x000000000000f9a8       0xf5 /opt/ps3dev/ppu/lib/gcc/powerpc64-ps3-elf/4.7.0/../../../../powerpc64-ps3-elf/lib/libc.a(lib_a-strlen.o)
 .debug_info    0x000000000000fa9d     0x11e5 /opt/ps3dev/ppu/lib/gcc/powerpc64-ps3-elf/4.7.0/../../../../powerpc64-ps3-elf/lib/libc.a(lib_a-svfiprintf.o)
 .debug_info    0x0000000000010c82       0xfb /opt/ps3dev/ppu/lib/gcc/powerpc64-ps3-elf/4.7.0/../../../../powerpc64-ps3-elf/lib/libc.a(lib_a-abort.o)
 .debug_info    0x0000000000010d7d      0xb5f /opt/ps3dev/ppu/lib/gcc/powerpc64-ps3-elf/4.7.0/../../../../powerpc64-ps3-elf/lib/libc.a(lib_a-callocr.o)
 .debug_info    0x00000000000118dc      0x149 /opt/ps3dev/ppu/lib/gcc/powerpc64-ps3-elf/4.7.0/../../../../powerpc64-ps3-elf/lib/libc.a(lib_a-memmove.o)
 .debug_info    0x0000000000011a25      0xe76 /opt/ps3dev/ppu/lib/gcc/powerpc64-ps3-elf/4.7.0/../../../../powerpc64-ps3-elf/lib/libc.a(lib_a-reallocr.o)
 .debug_info    0x000000000001289b      0xd82 /opt/ps3dev/ppu/lib/gcc/powerpc64-ps3-elf/4.7.0/../../../../powerpc64-ps3-elf/lib/libc.a(lib_a-signal.o)
 .debug_info    0x000000000001361d      0x20d /opt/ps3dev/ppu/lib/gcc/powerpc64-ps3-elf/4.7.0/../../../../powerpc64-ps3-elf/lib/libm.a(lib_a-sf_cos.o)
 .debug_info    0x000000000001382a      0x201 /opt/ps3dev/ppu/lib/gcc/powerpc64-ps3-elf/4.7.0/../../../../powerpc64-ps3-elf/lib/libm.a(lib_a-sf_sin.o)
 .debug_info    0x0000000000013a2b      0x1a5 /opt/ps3dev/ppu/lib/gcc/powerpc64-ps3-elf/4.7.0/../../../../powerpc64-ps3-elf/lib/libm.a(lib_a-sf_tan.o)
 .debug_info    0x0000000000013bd0      0x258 /opt/ps3dev/ppu/lib/gcc/powerpc64-ps3-elf/4.7.0/../../../../powerpc64-ps3-elf/lib/libm.a(lib_a-wf_sqrt.o)
 .debug_info    0x0000000000013e28      0x257 /opt/ps3dev/ppu/lib/gcc/powerpc64-ps3-elf/4.7.0/../../../../powerpc64-ps3-elf/lib/libm.a(lib_a-w_sqrt.o)
 .debug_info    0x000000000001407f      0x3c4 /opt/ps3dev/ppu/lib/gcc/powerpc64-ps3-elf/4.7.0/../../../../powerpc64-ps3-elf/lib/libm.a(lib_a-ef_rem_pio2.o)
 .debug_info    0x0000000000014443      0x1c3 /opt/ps3dev/ppu/lib/gcc/powerpc64-ps3-elf/4.7.0/../../../../powerpc64-ps3-elf/lib/libm.a(lib_a-ef_sqrt.o)
 .debug_info    0x0000000000014606      0x250 /opt/ps3dev/ppu/lib/gcc/powerpc64-ps3-elf/4.7.0/../../../../powerpc64-ps3-elf/lib/libm.a(lib_a-e_sqrt.o)
 .debug_info    0x0000000000014856      0x1a6 /opt/ps3dev/ppu/lib/gcc/powerpc64-ps3-elf/4.7.0/../../../../powerpc64-ps3-elf/lib/libm.a(lib_a-kf_cos.o)
 .debug_info    0x00000000000149fc      0x3f3 /opt/ps3dev/ppu/lib/gcc/powerpc64-ps3-elf/4.7.0/../../../../powerpc64-ps3-elf/lib/libm.a(lib_a-kf_rem_pio2.o)
 .debug_info    0x0000000000014def      0x19d /opt/ps3dev/ppu/lib/gcc/powerpc64-ps3-elf/4.7.0/../../../../powerpc64-ps3-elf/lib/libm.a(lib_a-kf_sin.o)
 .debug_info    0x0000000000014f8c      0x24a /opt/ps3dev/ppu/lib/gcc/powerpc64-ps3-elf/4.7.0/../../../../powerpc64-ps3-elf/lib/libm.a(lib_a-kf_tan.o)
 .debug_info    0x00000000000151d6       0xe4 /opt/ps3dev/ppu/lib/gcc/powerpc64-ps3-elf/4.7.0/../../../../powerpc64-ps3-elf/lib/libm.a(lib_a-sf_fabs.o)
 .debug_info    0x00000000000152ba      0x174 /opt/ps3dev/ppu/lib/gcc/powerpc64-ps3-elf/4.7.0/../../../../powerpc64-ps3-elf/lib/libm.a(lib_a-sf_floor.o)
 .debug_info    0x000000000001542e       0xe0 /opt/ps3dev/ppu/lib/gcc/powerpc64-ps3-elf/4.7.0/../../../../powerpc64-ps3-elf/lib/libm.a(lib_a-sf_fpclassify.o)
 .debug_info    0x000000000001550e      0x235 /opt/ps3dev/ppu/lib/gcc/powerpc64-ps3-elf/4.7.0/../../../../powerpc64-ps3-elf/lib/libm.a(lib_a-sf_scalbn.o)
 .debug_info    0x0000000000015743       0xc4 /opt/ps3dev/ppu/lib/gcc/powerpc64-ps3-elf/4.7.0/../../../../powerpc64-ps3-elf/lib/libm.a(lib_a-s_lib_ver.o)
 .debug_info    0x0000000000015807      0x14d /opt/ps3dev/ppu/lib/gcc/powerpc64-ps3-elf/4.7.0/../../../../powerpc64-ps3-elf/lib/libm.a(lib_a-s_matherr.o)
 .debug_info    0x0000000000015954      0x14c /opt/ps3dev/ppu/lib/gcc/powerpc64-ps3-elf/4.7.0/../../../../powerpc64-ps3-elf/lib/libm.a(lib_a-sf_copysign.o)
 .debug_info    0x0000000000015aa0     0x1594 /opt/ps3dev/ppu/lib/gcc/powerpc64-ps3-elf/4.7.0/../../../../powerpc64-ps3-elf/lib/libsysbase.a(sbrk.o)
 .debug_info    0x0000000000017034     0x152c /opt/ps3dev/ppu/lib/gcc/powerpc64-ps3-elf/4.7.0/../../../../powerpc64-ps3-elf/lib/libsysbase.a(syscalls.o)
 .debug_info    0x0000000000018560     0x1568 /opt/ps3dev/ppu/lib/gcc/powerpc64-ps3-elf/4.7.0/../../../../powerpc64-ps3-elf/lib/libsysbase.a(_exit.o)
 .debug_info    0x0000000000019ac8     0x1746 /opt/ps3dev/ppu/lib/gcc/powerpc64-ps3-elf/4.7.0/../../../../powerpc64-ps3-elf/lib/libsysbase.a(lock.o)
 .debug_info    0x000000000001b20e     0x157e /opt/ps3dev/ppu/lib/gcc/powerpc64-ps3-elf/4.7.0/../../../../powerpc64-ps3-elf/lib/libsysbase.a(getpid.o)
 .debug_info    0x000000000001c78c      0xa07 /opt/ps3dev/ppu/lib/gcc/powerpc64-ps3-elf/4.7.0/../../../../powerpc64-ps3-elf/lib/libsysbase.a(kill.o)
 .debug_info    0x000000000001d193     0x1602 /opt/ps3dev/ppu/lib/gcc/powerpc64-ps3-elf/4.7.0/../../../../powerpc64-ps3-elf/lib/libsysbase.a(sleep.o)
 .debug_info    0x000000000001e795      0xa07 /opt/ps3dev/ppu/lib/gcc/powerpc64-ps3-elf/4.7.0/../../../../powerpc64-ps3-elf/lib/libc.a(lib_a-errno.o)
 .debug_info    0x000000000001f19c      0xbb9 /opt/ps3dev/ppu/lib/gcc/powerpc64-ps3-elf/4.7.0/../../../../powerpc64-ps3-elf/lib/libc.a(lib_a-sscanf.o)
 .debug_info    0x000000000001fd55      0xd37 /opt/ps3dev/ppu/lib/gcc/powerpc64-ps3-elf/4.7.0/../../../../powerpc64-ps3-elf/lib/libc.a(lib_a-stdio.o)
 .debug_info    0x0000000000020a8c      0x140 /opt/ps3dev/ppu/lib/gcc/powerpc64-ps3-elf/4.7.0/../../../../powerpc64-ps3-elf/lib/libc.a(lib_a-strncpy.o)
 .debug_info    0x0000000000020bcc     0x1508 /opt/ps3dev/ppu/lib/gcc/powerpc64-ps3-elf/4.7.0/../../../../powerpc64-ps3-elf/lib/libc.a(lib_a-svfscanf.o)
 .debug_info    0x00000000000220d4       0xdd /opt/ps3dev/ppu/lib/gcc/powerpc64-ps3-elf/4.7.0/../../../../powerpc64-ps3-elf/lib/libc.a(lib_a-iswspace.o)
 .debug_info    0x00000000000221b1      0xc2f /opt/ps3dev/ppu/lib/gcc/powerpc64-ps3-elf/4.7.0/../../../../powerpc64-ps3-elf/lib/libc.a(lib_a-mbrtowc.o)
 .debug_info    0x0000000000022de0      0xb59 /opt/ps3dev/ppu/lib/gcc/powerpc64-ps3-elf/4.7.0/../../../../powerpc64-ps3-elf/lib/libc.a(lib_a-mbtowc_r.o)
 .debug_info    0x0000000000023939      0x117 /opt/ps3dev/ppu/lib/gcc/powerpc64-ps3-elf/4.7.0/../../../../powerpc64-ps3-elf/lib/libc.a(lib_a-sccl.o)
 .debug_info    0x0000000000023a50       0xe4 /opt/ps3dev/ppu/lib/gcc/powerpc64-ps3-elf/4.7.0/../../../../powerpc64-ps3-elf/lib/libc.a(lib_a-sf_nan.o)
 .debug_info    0x0000000000023b34      0xb6c /opt/ps3dev/ppu/lib/gcc/powerpc64-ps3-elf/4.7.0/../../../../powerpc64-ps3-elf/lib/libc.a(lib_a-sprintf.o)
 .debug_info    0x00000000000246a0     0x1a7f /opt/ps3dev/ppu/lib/gcc/powerpc64-ps3-elf/4.7.0/../../../../powerpc64-ps3-elf/lib/libc.a(lib_a-strtod.o)
 .debug_info    0x000000000002611f      0xaa1 /opt/ps3dev/ppu/lib/gcc/powerpc64-ps3-elf/4.7.0/../../../../powerpc64-ps3-elf/lib/libc.a(lib_a-strtoll_r.o)
 .debug_info    0x0000000000026bc0      0xb2c /opt/ps3dev/ppu/lib/gcc/powerpc64-ps3-elf/4.7.0/../../../../powerpc64-ps3-elf/lib/libc.a(lib_a-strtol.o)
 .debug_info    0x00000000000276ec      0xaa1 /opt/ps3dev/ppu/lib/gcc/powerpc64-ps3-elf/4.7.0/../../../../powerpc64-ps3-elf/lib/libc.a(lib_a-strtoull_r.o)
 .debug_info    0x000000000002818d      0xb2c /opt/ps3dev/ppu/lib/gcc/powerpc64-ps3-elf/4.7.0/../../../../powerpc64-ps3-elf/lib/libc.a(lib_a-strtoul.o)
 .debug_info    0x0000000000028cb9     0x1419 /opt/ps3dev/ppu/lib/gcc/powerpc64-ps3-elf/4.7.0/../../../../powerpc64-ps3-elf/lib/libc.a(lib_a-svfiscanf.o)
 .debug_info    0x000000000002a0d2      0xcbc /opt/ps3dev/ppu/lib/gcc/powerpc64-ps3-elf/4.7.0/../../../../powerpc64-ps3-elf/lib/libc.a(lib_a-ungetc.o)
 .debug_info    0x000000000002ad8e      0xd2b /opt/ps3dev/ppu/lib/gcc/powerpc64-ps3-elf/4.7.0/../../../../powerpc64-ps3-elf/lib/libc.a(lib_a-fflush.o)
 .debug_info    0x000000000002bab9     0x1152 /opt/ps3dev/ppu/lib/gcc/powerpc64-ps3-elf/4.7.0/../../../../powerpc64-ps3-elf/lib/libc.a(lib_a-findfp.o)
 .debug_info    0x000000000002cc0b      0xb1e /opt/ps3dev/ppu/lib/gcc/powerpc64-ps3-elf/4.7.0/../../../../powerpc64-ps3-elf/lib/libc.a(lib_a-fwalk.o)
 .debug_info    0x000000000002d729     0x1450 /opt/ps3dev/ppu/lib/gcc/powerpc64-ps3-elf/4.7.0/../../../../powerpc64-ps3-elf/lib/libc.a(lib_a-gdtoa-gethex.o)
 .debug_info    0x000000000002eb79      0x360 /opt/ps3dev/ppu/lib/gcc/powerpc64-ps3-elf/4.7.0/../../../../powerpc64-ps3-elf/lib/libc.a(lib_a-gdtoa-hexnan.o)
 .debug_info    0x000000000002eed9      0x10d /opt/ps3dev/ppu/lib/gcc/powerpc64-ps3-elf/4.7.0/../../../../powerpc64-ps3-elf/lib/libc.a(lib_a-strncmp.o)
 .debug_info    0x000000000002efe6      0xc32 /opt/ps3dev/ppu/lib/gcc/powerpc64-ps3-elf/4.7.0/../../../../powerpc64-ps3-elf/lib/libc.a(lib_a-fclose.o)
 .debug_info    0x000000000002fc18     0x158c /opt/ps3dev/ppu/lib/gcc/powerpc64-ps3-elf/4.7.0/../../../../powerpc64-ps3-elf/lib/libsysbase.a(close.o)
 .debug_info    0x00000000000311a4     0x15af /opt/ps3dev/ppu/lib/gcc/powerpc64-ps3-elf/4.7.0/../../../../powerpc64-ps3-elf/lib/libsysbase.a(lseek.o)
 .debug_info    0x0000000000032753     0x15b6 /opt/ps3dev/ppu/lib/gcc/powerpc64-ps3-elf/4.7.0/../../../../powerpc64-ps3-elf/lib/libsysbase.a(read.o)
 .debug_info    0x0000000000033d09     0x15b6 /opt/ps3dev/ppu/lib/gcc/powerpc64-ps3-elf/4.7.0/../../../../powerpc64-ps3-elf/lib/libsysbase.a(write.o)

.debug_abbrev   0x0000000000000000     0x8f30
 *(.debug_abbrev)
 .debug_abbrev  0x0000000000000000       0xb7 /opt/ps3dev/ppu/lib/gcc/powerpc64-ps3-elf/4.7.0/../../../../powerpc64-ps3-elf/lib/libc.a(lib_a-atexit.o)
 .debug_abbrev  0x00000000000000b7      0x1d7 /opt/ps3dev/ppu/lib/gcc/powerpc64-ps3-elf/4.7.0/../../../../powerpc64-ps3-elf/lib/libc.a(lib_a-exit.o)
 .debug_abbrev  0x000000000000028e      0x16f /opt/ps3dev/ppu/lib/gcc/powerpc64-ps3-elf/4.7.0/../../../../powerpc64-ps3-elf/lib/libc.a(lib_a-impure.o)
 .debug_abbrev  0x00000000000003fd      0x1c8 /opt/ps3dev/ppu/lib/gcc/powerpc64-ps3-elf/4.7.0/../../../../powerpc64-ps3-elf/lib/libc.a(lib_a-malign.o)
 .debug_abbrev  0x00000000000005c5      0x20a /opt/ps3dev/ppu/lib/gcc/powerpc64-ps3-elf/4.7.0/../../../../powerpc64-ps3-elf/lib/libc.a(lib_a-malignr.o)
 .debug_abbrev  0x00000000000007cf      0x1f5 /opt/ps3dev/ppu/lib/gcc/powerpc64-ps3-elf/4.7.0/../../../../powerpc64-ps3-elf/lib/libc.a(lib_a-malloc.o)
 .debug_abbrev  0x00000000000009c4      0x293 /opt/ps3dev/ppu/lib/gcc/powerpc64-ps3-elf/4.7.0/../../../../powerpc64-ps3-elf/lib/libc.a(lib_a-mallocr.o)
 .debug_abbrev  0x0000000000000c57       0xad /opt/ps3dev/ppu/lib/gcc/powerpc64-ps3-elf/4.7.0/../../../../powerpc64-ps3-elf/lib/libc.a(lib_a-memcpy.o)
 .debug_abbrev  0x0000000000000d04       0xa1 /opt/ps3dev/ppu/lib/gcc/powerpc64-ps3-elf/4.7.0/../../../../powerpc64-ps3-elf/lib/libc.a(lib_a-memset.o)
 .debug_abbrev  0x0000000000000da5      0x1ca /opt/ps3dev/ppu/lib/gcc/powerpc64-ps3-elf/4.7.0/../../../../powerpc64-ps3-elf/lib/libc.a(lib_a-mlock.o)
 .debug_abbrev  0x0000000000000f6f      0x1b8 /opt/ps3dev/ppu/lib/gcc/powerpc64-ps3-elf/4.7.0/../../../../powerpc64-ps3-elf/lib/libc.a(lib_a-rand.o)
 .debug_abbrev  0x0000000000001127       0xaf /opt/ps3dev/ppu/lib/gcc/powerpc64-ps3-elf/4.7.0/../../../../powerpc64-ps3-elf/lib/libc.a(lib_a-strcasecmp.o)
 .debug_abbrev  0x00000000000011d6      0x20e /opt/ps3dev/ppu/lib/gcc/powerpc64-ps3-elf/4.7.0/../../../../powerpc64-ps3-elf/lib/libc.a(lib_a-vsprintf.o)
 .debug_abbrev  0x00000000000013e4      0x233 /opt/ps3dev/ppu/lib/gcc/powerpc64-ps3-elf/4.7.0/../../../../powerpc64-ps3-elf/lib/libc.a(lib_a-__atexit.o)
 .debug_abbrev  0x0000000000001617      0x234 /opt/ps3dev/ppu/lib/gcc/powerpc64-ps3-elf/4.7.0/../../../../powerpc64-ps3-elf/lib/libc.a(lib_a-__call_atexit.o)
 .debug_abbrev  0x000000000000184b       0x4e /opt/ps3dev/ppu/lib/gcc/powerpc64-ps3-elf/4.7.0/../../../../powerpc64-ps3-elf/lib/libc.a(lib_a-ctype_.o)
 .debug_abbrev  0x0000000000001899      0x25c /opt/ps3dev/ppu/lib/gcc/powerpc64-ps3-elf/4.7.0/../../../../powerpc64-ps3-elf/lib/libc.a(lib_a-freer.o)
 .debug_abbrev  0x0000000000001af5      0x1e3 /opt/ps3dev/ppu/lib/gcc/powerpc64-ps3-elf/4.7.0/../../../../powerpc64-ps3-elf/lib/libc.a(lib_a-getreent.o)
 .debug_abbrev  0x0000000000001cd8      0x119 /opt/ps3dev/ppu/lib/gcc/powerpc64-ps3-elf/4.7.0/../../../../powerpc64-ps3-elf/lib/libc.a(lib_a-lock_recursive.o)
 .debug_abbrev  0x0000000000001df1      0x364 /opt/ps3dev/ppu/lib/gcc/powerpc64-ps3-elf/4.7.0/../../../../powerpc64-ps3-elf/lib/libc.a(lib_a-svfprintf.o)
 .debug_abbrev  0x0000000000002155      0x284 /opt/ps3dev/ppu/lib/gcc/powerpc64-ps3-elf/4.7.0/../../../../powerpc64-ps3-elf/lib/libc.a(lib_a-dtoa.o)
 .debug_abbrev  0x00000000000023d9      0x2a3 /opt/ps3dev/ppu/lib/gcc/powerpc64-ps3-elf/4.7.0/../../../../powerpc64-ps3-elf/lib/libc.a(lib_a-locale.o)
 .debug_abbrev  0x000000000000267c      0x12d /opt/ps3dev/ppu/lib/gcc/powerpc64-ps3-elf/4.7.0/../../../../powerpc64-ps3-elf/lib/libc.a(lib_a-lock_internal.o)
 .debug_abbrev  0x00000000000027a9       0xad /opt/ps3dev/ppu/lib/gcc/powerpc64-ps3-elf/4.7.0/../../../../powerpc64-ps3-elf/lib/libc.a(lib_a-memchr.o)
 .debug_abbrev  0x0000000000002856      0x35c /opt/ps3dev/ppu/lib/gcc/powerpc64-ps3-elf/4.7.0/../../../../powerpc64-ps3-elf/lib/libc.a(lib_a-mprec.o)
 .debug_abbrev  0x0000000000002bb2       0xca /opt/ps3dev/ppu/lib/gcc/powerpc64-ps3-elf/4.7.0/../../../../powerpc64-ps3-elf/lib/libc.a(lib_a-s_fpclassify.o)
 .debug_abbrev  0x0000000000002c7c       0x76 /opt/ps3dev/ppu/lib/gcc/powerpc64-ps3-elf/4.7.0/../../../../powerpc64-ps3-elf/lib/libc.a(lib_a-strcmp.o)
 .debug_abbrev  0x0000000000002cf2       0x83 /opt/ps3dev/ppu/lib/gcc/powerpc64-ps3-elf/4.7.0/../../../../powerpc64-ps3-elf/lib/libc.a(lib_a-strlen.o)
 .debug_abbrev  0x0000000000002d75      0x2e1 /opt/ps3dev/ppu/lib/gcc/powerpc64-ps3-elf/4.7.0/../../../../powerpc64-ps3-elf/lib/libc.a(lib_a-svfiprintf.o)
 .debug_abbrev  0x0000000000003056       0x97 /opt/ps3dev/ppu/lib/gcc/powerpc64-ps3-elf/4.7.0/../../../../powerpc64-ps3-elf/lib/libc.a(lib_a-abort.o)
 .debug_abbrev  0x00000000000030ed      0x204 /opt/ps3dev/ppu/lib/gcc/powerpc64-ps3-elf/4.7.0/../../../../powerpc64-ps3-elf/lib/libc.a(lib_a-callocr.o)
 .debug_abbrev  0x00000000000032f1       0xad /opt/ps3dev/ppu/lib/gcc/powerpc64-ps3-elf/4.7.0/../../../../powerpc64-ps3-elf/lib/libc.a(lib_a-memmove.o)
 .debug_abbrev  0x000000000000339e      0x241 /opt/ps3dev/ppu/lib/gcc/powerpc64-ps3-elf/4.7.0/../../../../powerpc64-ps3-elf/lib/libc.a(lib_a-reallocr.o)
 .debug_abbrev  0x00000000000035df      0x2a8 /opt/ps3dev/ppu/lib/gcc/powerpc64-ps3-elf/4.7.0/../../../../powerpc64-ps3-elf/lib/libc.a(lib_a-signal.o)
 .debug_abbrev  0x0000000000003887      0x111 /opt/ps3dev/ppu/lib/gcc/powerpc64-ps3-elf/4.7.0/../../../../powerpc64-ps3-elf/lib/libm.a(lib_a-sf_cos.o)
 .debug_abbrev  0x0000000000003998       0xff /opt/ps3dev/ppu/lib/gcc/powerpc64-ps3-elf/4.7.0/../../../../powerpc64-ps3-elf/lib/libm.a(lib_a-sf_sin.o)
 .debug_abbrev  0x0000000000003a97      0x10a /opt/ps3dev/ppu/lib/gcc/powerpc64-ps3-elf/4.7.0/../../../../powerpc64-ps3-elf/lib/libm.a(lib_a-sf_tan.o)
 .debug_abbrev  0x0000000000003ba1      0x13c /opt/ps3dev/ppu/lib/gcc/powerpc64-ps3-elf/4.7.0/../../../../powerpc64-ps3-elf/lib/libm.a(lib_a-wf_sqrt.o)
 .debug_abbrev  0x0000000000003cdd      0x13c /opt/ps3dev/ppu/lib/gcc/powerpc64-ps3-elf/4.7.0/../../../../powerpc64-ps3-elf/lib/libm.a(lib_a-w_sqrt.o)
 .debug_abbrev  0x0000000000003e19      0x15f /opt/ps3dev/ppu/lib/gcc/powerpc64-ps3-elf/4.7.0/../../../../powerpc64-ps3-elf/lib/libm.a(lib_a-ef_rem_pio2.o)
 .debug_abbrev  0x0000000000003f78       0xd5 /opt/ps3dev/ppu/lib/gcc/powerpc64-ps3-elf/4.7.0/../../../../powerpc64-ps3-elf/lib/libm.a(lib_a-ef_sqrt.o)
 .debug_abbrev  0x000000000000404d      0x118 /opt/ps3dev/ppu/lib/gcc/powerpc64-ps3-elf/4.7.0/../../../../powerpc64-ps3-elf/lib/libm.a(lib_a-e_sqrt.o)
 .debug_abbrev  0x0000000000004165       0x89 /opt/ps3dev/ppu/lib/gcc/powerpc64-ps3-elf/4.7.0/../../../../powerpc64-ps3-elf/lib/libm.a(lib_a-kf_cos.o)
 .debug_abbrev  0x00000000000041ee      0x14f /opt/ps3dev/ppu/lib/gcc/powerpc64-ps3-elf/4.7.0/../../../../powerpc64-ps3-elf/lib/libm.a(lib_a-kf_rem_pio2.o)
 .debug_abbrev  0x000000000000433d       0xb6 /opt/ps3dev/ppu/lib/gcc/powerpc64-ps3-elf/4.7.0/../../../../powerpc64-ps3-elf/lib/libm.a(lib_a-kf_sin.o)
 .debug_abbrev  0x00000000000043f3      0x11b /opt/ps3dev/ppu/lib/gcc/powerpc64-ps3-elf/4.7.0/../../../../powerpc64-ps3-elf/lib/libm.a(lib_a-kf_tan.o)
 .debug_abbrev  0x000000000000450e       0x71 /opt/ps3dev/ppu/lib/gcc/powerpc64-ps3-elf/4.7.0/../../../../powerpc64-ps3-elf/lib/libm.a(lib_a-sf_fabs.o)
 .debug_abbrev  0x000000000000457f       0xc6 /opt/ps3dev/ppu/lib/gcc/powerpc64-ps3-elf/4.7.0/../../../../powerpc64-ps3-elf/lib/libm.a(lib_a-sf_floor.o)
 .debug_abbrev  0x0000000000004645       0x71 /opt/ps3dev/ppu/lib/gcc/powerpc64-ps3-elf/4.7.0/../../../../powerpc64-ps3-elf/lib/libm.a(lib_a-sf_fpclassify.o)
 .debug_abbrev  0x00000000000046b6      0x111 /opt/ps3dev/ppu/lib/gcc/powerpc64-ps3-elf/4.7.0/../../../../powerpc64-ps3-elf/lib/libm.a(lib_a-sf_scalbn.o)
 .debug_abbrev  0x00000000000047c7       0x4f /opt/ps3dev/ppu/lib/gcc/powerpc64-ps3-elf/4.7.0/../../../../powerpc64-ps3-elf/lib/libm.a(lib_a-s_lib_ver.o)
 .debug_abbrev  0x0000000000004816       0x9c /opt/ps3dev/ppu/lib/gcc/powerpc64-ps3-elf/4.7.0/../../../../powerpc64-ps3-elf/lib/libm.a(lib_a-s_matherr.o)
 .debug_abbrev  0x00000000000048b2       0xce /opt/ps3dev/ppu/lib/gcc/powerpc64-ps3-elf/4.7.0/../../../../powerpc64-ps3-elf/lib/libm.a(lib_a-sf_copysign.o)
 .debug_abbrev  0x0000000000004980      0x1f1 /opt/ps3dev/ppu/lib/gcc/powerpc64-ps3-elf/4.7.0/../../../../powerpc64-ps3-elf/lib/libsysbase.a(sbrk.o)
 .debug_abbrev  0x0000000000004b71      0x19c /opt/ps3dev/ppu/lib/gcc/powerpc64-ps3-elf/4.7.0/../../../../powerpc64-ps3-elf/lib/libsysbase.a(syscalls.o)
 .debug_abbrev  0x0000000000004d0d      0x1cb /opt/ps3dev/ppu/lib/gcc/powerpc64-ps3-elf/4.7.0/../../../../powerpc64-ps3-elf/lib/libsysbase.a(_exit.o)
 .debug_abbrev  0x0000000000004ed8      0x20f /opt/ps3dev/ppu/lib/gcc/powerpc64-ps3-elf/4.7.0/../../../../powerpc64-ps3-elf/lib/libsysbase.a(lock.o)
 .debug_abbrev  0x00000000000050e7      0x1e2 /opt/ps3dev/ppu/lib/gcc/powerpc64-ps3-elf/4.7.0/../../../../powerpc64-ps3-elf/lib/libsysbase.a(getpid.o)
 .debug_abbrev  0x00000000000052c9      0x18d /opt/ps3dev/ppu/lib/gcc/powerpc64-ps3-elf/4.7.0/../../../../powerpc64-ps3-elf/lib/libsysbase.a(kill.o)
 .debug_abbrev  0x0000000000005456      0x21e /opt/ps3dev/ppu/lib/gcc/powerpc64-ps3-elf/4.7.0/../../../../powerpc64-ps3-elf/lib/libsysbase.a(sleep.o)
 .debug_abbrev  0x0000000000005674      0x18f /opt/ps3dev/ppu/lib/gcc/powerpc64-ps3-elf/4.7.0/../../../../powerpc64-ps3-elf/lib/libc.a(lib_a-errno.o)
 .debug_abbrev  0x0000000000005803      0x212 /opt/ps3dev/ppu/lib/gcc/powerpc64-ps3-elf/4.7.0/../../../../powerpc64-ps3-elf/lib/libc.a(lib_a-sscanf.o)
 .debug_abbrev  0x0000000000005a15      0x238 /opt/ps3dev/ppu/lib/gcc/powerpc64-ps3-elf/4.7.0/../../../../powerpc64-ps3-elf/lib/libc.a(lib_a-stdio.o)
 .debug_abbrev  0x0000000000005c4d       0xa1 /opt/ps3dev/ppu/lib/gcc/powerpc64-ps3-elf/4.7.0/../../../../powerpc64-ps3-elf/lib/libc.a(lib_a-strncpy.o)
 .debug_abbrev  0x0000000000005cee      0x2b4 /opt/ps3dev/ppu/lib/gcc/powerpc64-ps3-elf/4.7.0/../../../../powerpc64-ps3-elf/lib/libc.a(lib_a-svfscanf.o)
 .debug_abbrev  0x0000000000005fa2       0x85 /opt/ps3dev/ppu/lib/gcc/powerpc64-ps3-elf/4.7.0/../../../../powerpc64-ps3-elf/lib/libc.a(lib_a-iswspace.o)
 .debug_abbrev  0x0000000000006027      0x1f1 /opt/ps3dev/ppu/lib/gcc/powerpc64-ps3-elf/4.7.0/../../../../powerpc64-ps3-elf/lib/libc.a(lib_a-mbrtowc.o)
 .debug_abbrev  0x0000000000006218      0x22b /opt/ps3dev/ppu/lib/gcc/powerpc64-ps3-elf/4.7.0/../../../../powerpc64-ps3-elf/lib/libc.a(lib_a-mbtowc_r.o)
 .debug_abbrev  0x0000000000006443       0x89 /opt/ps3dev/ppu/lib/gcc/powerpc64-ps3-elf/4.7.0/../../../../powerpc64-ps3-elf/lib/libc.a(lib_a-sccl.o)
 .debug_abbrev  0x00000000000064cc       0x74 /opt/ps3dev/ppu/lib/gcc/powerpc64-ps3-elf/4.7.0/../../../../powerpc64-ps3-elf/lib/libc.a(lib_a-sf_nan.o)
 .debug_abbrev  0x0000000000006540      0x205 /opt/ps3dev/ppu/lib/gcc/powerpc64-ps3-elf/4.7.0/../../../../powerpc64-ps3-elf/lib/libc.a(lib_a-sprintf.o)
 .debug_abbrev  0x0000000000006745      0x3c3 /opt/ps3dev/ppu/lib/gcc/powerpc64-ps3-elf/4.7.0/../../../../powerpc64-ps3-elf/lib/libc.a(lib_a-strtod.o)
 .debug_abbrev  0x0000000000006b08      0x1be /opt/ps3dev/ppu/lib/gcc/powerpc64-ps3-elf/4.7.0/../../../../powerpc64-ps3-elf/lib/libc.a(lib_a-strtoll_r.o)
 .debug_abbrev  0x0000000000006cc6      0x221 /opt/ps3dev/ppu/lib/gcc/powerpc64-ps3-elf/4.7.0/../../../../powerpc64-ps3-elf/lib/libc.a(lib_a-strtol.o)
 .debug_abbrev  0x0000000000006ee7      0x1be /opt/ps3dev/ppu/lib/gcc/powerpc64-ps3-elf/4.7.0/../../../../powerpc64-ps3-elf/lib/libc.a(lib_a-strtoull_r.o)
 .debug_abbrev  0x00000000000070a5      0x221 /opt/ps3dev/ppu/lib/gcc/powerpc64-ps3-elf/4.7.0/../../../../powerpc64-ps3-elf/lib/libc.a(lib_a-strtoul.o)
 .debug_abbrev  0x00000000000072c6      0x328 /opt/ps3dev/ppu/lib/gcc/powerpc64-ps3-elf/4.7.0/../../../../powerpc64-ps3-elf/lib/libc.a(lib_a-svfiscanf.o)
 .debug_abbrev  0x00000000000075ee      0x24c /opt/ps3dev/ppu/lib/gcc/powerpc64-ps3-elf/4.7.0/../../../../powerpc64-ps3-elf/lib/libc.a(lib_a-ungetc.o)
 .debug_abbrev  0x000000000000783a      0x2c3 /opt/ps3dev/ppu/lib/gcc/powerpc64-ps3-elf/4.7.0/../../../../powerpc64-ps3-elf/lib/libc.a(lib_a-fflush.o)
 .debug_abbrev  0x0000000000007afd      0x312 /opt/ps3dev/ppu/lib/gcc/powerpc64-ps3-elf/4.7.0/../../../../powerpc64-ps3-elf/lib/libc.a(lib_a-findfp.o)
 .debug_abbrev  0x0000000000007e0f      0x1b3 /opt/ps3dev/ppu/lib/gcc/powerpc64-ps3-elf/4.7.0/../../../../powerpc64-ps3-elf/lib/libc.a(lib_a-fwalk.o)
 .debug_abbrev  0x0000000000007fc2      0x389 /opt/ps3dev/ppu/lib/gcc/powerpc64-ps3-elf/4.7.0/../../../../powerpc64-ps3-elf/lib/libc.a(lib_a-gdtoa-gethex.o)
 .debug_abbrev  0x000000000000834b      0x177 /opt/ps3dev/ppu/lib/gcc/powerpc64-ps3-elf/4.7.0/../../../../powerpc64-ps3-elf/lib/libc.a(lib_a-gdtoa-hexnan.o)
 .debug_abbrev  0x00000000000084c2       0x83 /opt/ps3dev/ppu/lib/gcc/powerpc64-ps3-elf/4.7.0/../../../../powerpc64-ps3-elf/lib/libc.a(lib_a-strncmp.o)
 .debug_abbrev  0x0000000000008545      0x263 /opt/ps3dev/ppu/lib/gcc/powerpc64-ps3-elf/4.7.0/../../../../powerpc64-ps3-elf/lib/libc.a(lib_a-fclose.o)
 .debug_abbrev  0x00000000000087a8      0x1e2 /opt/ps3dev/ppu/lib/gcc/powerpc64-ps3-elf/4.7.0/../../../../powerpc64-ps3-elf/lib/libsysbase.a(close.o)
 .debug_abbrev  0x000000000000898a      0x1e2 /opt/ps3dev/ppu/lib/gcc/powerpc64-ps3-elf/4.7.0/../../../../powerpc64-ps3-elf/lib/libsysbase.a(lseek.o)
 .debug_abbrev  0x0000000000008b6c      0x1e2 /opt/ps3dev/ppu/lib/gcc/powerpc64-ps3-elf/4.7.0/../../../../powerpc64-ps3-elf/lib/libsysbase.a(read.o)
 .debug_abbrev  0x0000000000008d4e      0x1e2 /opt/ps3dev/ppu/lib/gcc/powerpc64-ps3-elf/4.7.0/../../../../powerpc64-ps3-elf/lib/libsysbase.a(write.o)

.debug_line     0x0000000000000000     0xef1c
 *(.debug_line)
 .debug_line    0x0000000000000000       0xc4 /opt/ps3dev/ppu/lib/gcc/powerpc64-ps3-elf/4.7.0/../../../../powerpc64-ps3-elf/lib/libc.a(lib_a-atexit.o)
 .debug_line    0x00000000000000c4      0x27f /opt/ps3dev/ppu/lib/gcc/powerpc64-ps3-elf/4.7.0/../../../../powerpc64-ps3-elf/lib/libc.a(lib_a-exit.o)
 .debug_line    0x0000000000000343      0x243 /opt/ps3dev/ppu/lib/gcc/powerpc64-ps3-elf/4.7.0/../../../../powerpc64-ps3-elf/lib/libc.a(lib_a-impure.o)
 .debug_line    0x0000000000000586      0x265 /opt/ps3dev/ppu/lib/gcc/powerpc64-ps3-elf/4.7.0/../../../../powerpc64-ps3-elf/lib/libc.a(lib_a-malign.o)
 .debug_line    0x00000000000007eb      0x2d1 /opt/ps3dev/ppu/lib/gcc/powerpc64-ps3-elf/4.7.0/../../../../powerpc64-ps3-elf/lib/libc.a(lib_a-malignr.o)
 .debug_line    0x0000000000000abc      0x27c /opt/ps3dev/ppu/lib/gcc/powerpc64-ps3-elf/4.7.0/../../../../powerpc64-ps3-elf/lib/libc.a(lib_a-malloc.o)
 .debug_line    0x0000000000000d38      0x4d8 /opt/ps3dev/ppu/lib/gcc/powerpc64-ps3-elf/4.7.0/../../../../powerpc64-ps3-elf/lib/libc.a(lib_a-mallocr.o)
 .debug_line    0x0000000000001210      0x18c /opt/ps3dev/ppu/lib/gcc/powerpc64-ps3-elf/4.7.0/../../../../powerpc64-ps3-elf/lib/libc.a(lib_a-memcpy.o)
 .debug_line    0x000000000000139c      0x187 /opt/ps3dev/ppu/lib/gcc/powerpc64-ps3-elf/4.7.0/../../../../powerpc64-ps3-elf/lib/libc.a(lib_a-memset.o)
 .debug_line    0x0000000000001523      0x271 /opt/ps3dev/ppu/lib/gcc/powerpc64-ps3-elf/4.7.0/../../../../powerpc64-ps3-elf/lib/libc.a(lib_a-mlock.o)
 .debug_line    0x0000000000001794      0x281 /opt/ps3dev/ppu/lib/gcc/powerpc64-ps3-elf/4.7.0/../../../../powerpc64-ps3-elf/lib/libc.a(lib_a-rand.o)
 .debug_line    0x0000000000001a15       0xf2 /opt/ps3dev/ppu/lib/gcc/powerpc64-ps3-elf/4.7.0/../../../../powerpc64-ps3-elf/lib/libc.a(lib_a-strcasecmp.o)
 .debug_line    0x0000000000001b07      0x2a2 /opt/ps3dev/ppu/lib/gcc/powerpc64-ps3-elf/4.7.0/../../../../powerpc64-ps3-elf/lib/libc.a(lib_a-vsprintf.o)
 .debug_line    0x0000000000001da9      0x2b2 /opt/ps3dev/ppu/lib/gcc/powerpc64-ps3-elf/4.7.0/../../../../powerpc64-ps3-elf/lib/libc.a(lib_a-__atexit.o)
 .debug_line    0x000000000000205b      0x2db /opt/ps3dev/ppu/lib/gcc/powerpc64-ps3-elf/4.7.0/../../../../powerpc64-ps3-elf/lib/libc.a(lib_a-__call_atexit.o)
 .debug_line    0x0000000000002336       0x70 /opt/ps3dev/ppu/lib/gcc/powerpc64-ps3-elf/4.7.0/../../../../powerpc64-ps3-elf/lib/libc.a(lib_a-ctype_.o)
 .debug_line    0x00000000000023a6      0x371 /opt/ps3dev/ppu/lib/gcc/powerpc64-ps3-elf/4.7.0/../../../../powerpc64-ps3-elf/lib/libc.a(lib_a-freer.o)
 .debug_line    0x0000000000002717      0x1f1 /opt/ps3dev/ppu/lib/gcc/powerpc64-ps3-elf/4.7.0/../../../../powerpc64-ps3-elf/lib/libc.a(lib_a-getreent.o)
 .debug_line    0x0000000000002908      0x167 /opt/ps3dev/ppu/lib/gcc/powerpc64-ps3-elf/4.7.0/../../../../powerpc64-ps3-elf/lib/libc.a(lib_a-lock_recursive.o)
 .debug_line    0x0000000000002a6f      0xa9d /opt/ps3dev/ppu/lib/gcc/powerpc64-ps3-elf/4.7.0/../../../../powerpc64-ps3-elf/lib/libc.a(lib_a-svfprintf.o)
 .debug_line    0x000000000000350c      0x87a /opt/ps3dev/ppu/lib/gcc/powerpc64-ps3-elf/4.7.0/../../../../powerpc64-ps3-elf/lib/libc.a(lib_a-dtoa.o)
 .debug_line    0x0000000000003d86      0x346 /opt/ps3dev/ppu/lib/gcc/powerpc64-ps3-elf/4.7.0/../../../../powerpc64-ps3-elf/lib/libc.a(lib_a-locale.o)
 .debug_line    0x00000000000040cc      0x136 /opt/ps3dev/ppu/lib/gcc/powerpc64-ps3-elf/4.7.0/../../../../powerpc64-ps3-elf/lib/libc.a(lib_a-lock_internal.o)
 .debug_line    0x0000000000004202      0x14f /opt/ps3dev/ppu/lib/gcc/powerpc64-ps3-elf/4.7.0/../../../../powerpc64-ps3-elf/lib/libc.a(lib_a-memchr.o)
 .debug_line    0x0000000000004351      0x9be /opt/ps3dev/ppu/lib/gcc/powerpc64-ps3-elf/4.7.0/../../../../powerpc64-ps3-elf/lib/libc.a(lib_a-mprec.o)
 .debug_line    0x0000000000004d0f      0x17b /opt/ps3dev/ppu/lib/gcc/powerpc64-ps3-elf/4.7.0/../../../../powerpc64-ps3-elf/lib/libc.a(lib_a-s_fpclassify.o)
 .debug_line    0x0000000000004e8a       0xd6 /opt/ps3dev/ppu/lib/gcc/powerpc64-ps3-elf/4.7.0/../../../../powerpc64-ps3-elf/lib/libc.a(lib_a-strcmp.o)
 .debug_line    0x0000000000004f60      0x12a /opt/ps3dev/ppu/lib/gcc/powerpc64-ps3-elf/4.7.0/../../../../powerpc64-ps3-elf/lib/libc.a(lib_a-strlen.o)
 .debug_line    0x000000000000508a      0x755 /opt/ps3dev/ppu/lib/gcc/powerpc64-ps3-elf/4.7.0/../../../../powerpc64-ps3-elf/lib/libc.a(lib_a-svfiprintf.o)
 .debug_line    0x00000000000057df      0x11b /opt/ps3dev/ppu/lib/gcc/powerpc64-ps3-elf/4.7.0/../../../../powerpc64-ps3-elf/lib/libc.a(lib_a-abort.o)
 .debug_line    0x00000000000058fa      0x291 /opt/ps3dev/ppu/lib/gcc/powerpc64-ps3-elf/4.7.0/../../../../powerpc64-ps3-elf/lib/libc.a(lib_a-callocr.o)
 .debug_line    0x0000000000005b8b      0x1a9 /opt/ps3dev/ppu/lib/gcc/powerpc64-ps3-elf/4.7.0/../../../../powerpc64-ps3-elf/lib/libc.a(lib_a-memmove.o)
 .debug_line    0x0000000000005d34      0x411 /opt/ps3dev/ppu/lib/gcc/powerpc64-ps3-elf/4.7.0/../../../../powerpc64-ps3-elf/lib/libc.a(lib_a-reallocr.o)
 .debug_line    0x0000000000006145      0x398 /opt/ps3dev/ppu/lib/gcc/powerpc64-ps3-elf/4.7.0/../../../../powerpc64-ps3-elf/lib/libc.a(lib_a-signal.o)
 .debug_line    0x00000000000064dd      0x16c /opt/ps3dev/ppu/lib/gcc/powerpc64-ps3-elf/4.7.0/../../../../powerpc64-ps3-elf/lib/libm.a(lib_a-sf_cos.o)
 .debug_line    0x0000000000006649      0x16c /opt/ps3dev/ppu/lib/gcc/powerpc64-ps3-elf/4.7.0/../../../../powerpc64-ps3-elf/lib/libm.a(lib_a-sf_sin.o)
 .debug_line    0x00000000000067b5      0x175 /opt/ps3dev/ppu/lib/gcc/powerpc64-ps3-elf/4.7.0/../../../../powerpc64-ps3-elf/lib/libm.a(lib_a-sf_tan.o)
 .debug_line    0x000000000000692a      0x166 /opt/ps3dev/ppu/lib/gcc/powerpc64-ps3-elf/4.7.0/../../../../powerpc64-ps3-elf/lib/libm.a(lib_a-wf_sqrt.o)
 .debug_line    0x0000000000006a90      0x164 /opt/ps3dev/ppu/lib/gcc/powerpc64-ps3-elf/4.7.0/../../../../powerpc64-ps3-elf/lib/libm.a(lib_a-w_sqrt.o)
 .debug_line    0x0000000000006bf4      0x20b /opt/ps3dev/ppu/lib/gcc/powerpc64-ps3-elf/4.7.0/../../../../powerpc64-ps3-elf/lib/libm.a(lib_a-ef_rem_pio2.o)
 .debug_line    0x0000000000006dff      0x14e /opt/ps3dev/ppu/lib/gcc/powerpc64-ps3-elf/4.7.0/../../../../powerpc64-ps3-elf/lib/libm.a(lib_a-ef_sqrt.o)
 .debug_line    0x0000000000006f4d      0x1e4 /opt/ps3dev/ppu/lib/gcc/powerpc64-ps3-elf/4.7.0/../../../../powerpc64-ps3-elf/lib/libm.a(lib_a-e_sqrt.o)
 .debug_line    0x0000000000007131       0xea /opt/ps3dev/ppu/lib/gcc/powerpc64-ps3-elf/4.7.0/../../../../powerpc64-ps3-elf/lib/libm.a(lib_a-kf_cos.o)
 .debug_line    0x000000000000721b      0x46b /opt/ps3dev/ppu/lib/gcc/powerpc64-ps3-elf/4.7.0/../../../../powerpc64-ps3-elf/lib/libm.a(lib_a-kf_rem_pio2.o)
 .debug_line    0x0000000000007686       0xd9 /opt/ps3dev/ppu/lib/gcc/powerpc64-ps3-elf/4.7.0/../../../../powerpc64-ps3-elf/lib/libm.a(lib_a-kf_sin.o)
 .debug_line    0x000000000000775f      0x1cb /opt/ps3dev/ppu/lib/gcc/powerpc64-ps3-elf/4.7.0/../../../../powerpc64-ps3-elf/lib/libm.a(lib_a-kf_tan.o)
 .debug_line    0x000000000000792a      0x115 /opt/ps3dev/ppu/lib/gcc/powerpc64-ps3-elf/4.7.0/../../../../powerpc64-ps3-elf/lib/libm.a(lib_a-sf_fabs.o)
 .debug_line    0x0000000000007a3f      0x17c /opt/ps3dev/ppu/lib/gcc/powerpc64-ps3-elf/4.7.0/../../../../powerpc64-ps3-elf/lib/libm.a(lib_a-sf_floor.o)
 .debug_line    0x0000000000007bbb      0x150 /opt/ps3dev/ppu/lib/gcc/powerpc64-ps3-elf/4.7.0/../../../../powerpc64-ps3-elf/lib/libm.a(lib_a-sf_fpclassify.o)
 .debug_line    0x0000000000007d0b      0x15d /opt/ps3dev/ppu/lib/gcc/powerpc64-ps3-elf/4.7.0/../../../../powerpc64-ps3-elf/lib/libm.a(lib_a-sf_scalbn.o)
 .debug_line    0x0000000000007e68       0x6f /opt/ps3dev/ppu/lib/gcc/powerpc64-ps3-elf/4.7.0/../../../../powerpc64-ps3-elf/lib/libm.a(lib_a-s_lib_ver.o)
 .debug_line    0x0000000000007ed7       0xb5 /opt/ps3dev/ppu/lib/gcc/powerpc64-ps3-elf/4.7.0/../../../../powerpc64-ps3-elf/lib/libm.a(lib_a-s_matherr.o)
 .debug_line    0x0000000000007f8c      0x128 /opt/ps3dev/ppu/lib/gcc/powerpc64-ps3-elf/4.7.0/../../../../powerpc64-ps3-elf/lib/libm.a(lib_a-sf_copysign.o)
 .debug_line    0x00000000000080b4      0x2ba /opt/ps3dev/ppu/lib/gcc/powerpc64-ps3-elf/4.7.0/../../../../powerpc64-ps3-elf/lib/libsysbase.a(sbrk.o)
 .debug_line    0x000000000000836e      0x273 /opt/ps3dev/ppu/lib/gcc/powerpc64-ps3-elf/4.7.0/../../../../powerpc64-ps3-elf/lib/libsysbase.a(syscalls.o)
 .debug_line    0x00000000000085e1      0x2c1 /opt/ps3dev/ppu/lib/gcc/powerpc64-ps3-elf/4.7.0/../../../../powerpc64-ps3-elf/lib/libsysbase.a(_exit.o)
 .debug_line    0x00000000000088a2      0x324 /opt/ps3dev/ppu/lib/gcc/powerpc64-ps3-elf/4.7.0/../../../../powerpc64-ps3-elf/lib/libsysbase.a(lock.o)
 .debug_line    0x0000000000008bc6      0x2bc /opt/ps3dev/ppu/lib/gcc/powerpc64-ps3-elf/4.7.0/../../../../powerpc64-ps3-elf/lib/libsysbase.a(getpid.o)
 .debug_line    0x0000000000008e82      0x255 /opt/ps3dev/ppu/lib/gcc/powerpc64-ps3-elf/4.7.0/../../../../powerpc64-ps3-elf/lib/libsysbase.a(kill.o)
 .debug_line    0x00000000000090d7      0x2e2 /opt/ps3dev/ppu/lib/gcc/powerpc64-ps3-elf/4.7.0/../../../../powerpc64-ps3-elf/lib/libsysbase.a(sleep.o)
 .debug_line    0x00000000000093b9      0x262 /opt/ps3dev/ppu/lib/gcc/powerpc64-ps3-elf/4.7.0/../../../../powerpc64-ps3-elf/lib/libc.a(lib_a-errno.o)
 .debug_line    0x000000000000961b      0x2db /opt/ps3dev/ppu/lib/gcc/powerpc64-ps3-elf/4.7.0/../../../../powerpc64-ps3-elf/lib/libc.a(lib_a-sscanf.o)
 .debug_line    0x00000000000098f6      0x304 /opt/ps3dev/ppu/lib/gcc/powerpc64-ps3-elf/4.7.0/../../../../powerpc64-ps3-elf/lib/libc.a(lib_a-stdio.o)
 .debug_line    0x0000000000009bfa      0x162 /opt/ps3dev/ppu/lib/gcc/powerpc64-ps3-elf/4.7.0/../../../../powerpc64-ps3-elf/lib/libc.a(lib_a-strncpy.o)
 .debug_line    0x0000000000009d5c      0x783 /opt/ps3dev/ppu/lib/gcc/powerpc64-ps3-elf/4.7.0/../../../../powerpc64-ps3-elf/lib/libc.a(lib_a-svfscanf.o)
 .debug_line    0x000000000000a4df      0x123 /opt/ps3dev/ppu/lib/gcc/powerpc64-ps3-elf/4.7.0/../../../../powerpc64-ps3-elf/lib/libc.a(lib_a-iswspace.o)
 .debug_line    0x000000000000a602      0x2c6 /opt/ps3dev/ppu/lib/gcc/powerpc64-ps3-elf/4.7.0/../../../../powerpc64-ps3-elf/lib/libc.a(lib_a-mbrtowc.o)
 .debug_line    0x000000000000a8c8      0x2a7 /opt/ps3dev/ppu/lib/gcc/powerpc64-ps3-elf/4.7.0/../../../../powerpc64-ps3-elf/lib/libc.a(lib_a-mbtowc_r.o)
 .debug_line    0x000000000000ab6f       0xfe /opt/ps3dev/ppu/lib/gcc/powerpc64-ps3-elf/4.7.0/../../../../powerpc64-ps3-elf/lib/libc.a(lib_a-sccl.o)
 .debug_line    0x000000000000ac6d       0xb0 /opt/ps3dev/ppu/lib/gcc/powerpc64-ps3-elf/4.7.0/../../../../powerpc64-ps3-elf/lib/libc.a(lib_a-sf_nan.o)
 .debug_line    0x000000000000ad1d      0x2ce /opt/ps3dev/ppu/lib/gcc/powerpc64-ps3-elf/4.7.0/../../../../powerpc64-ps3-elf/lib/libc.a(lib_a-sprintf.o)
 .debug_line    0x000000000000afeb      0x76f /opt/ps3dev/ppu/lib/gcc/powerpc64-ps3-elf/4.7.0/../../../../powerpc64-ps3-elf/lib/libc.a(lib_a-strtod.o)
 .debug_line    0x000000000000b75a      0x30b /opt/ps3dev/ppu/lib/gcc/powerpc64-ps3-elf/4.7.0/../../../../powerpc64-ps3-elf/lib/libc.a(lib_a-strtoll_r.o)
 .debug_line    0x000000000000ba65      0x322 /opt/ps3dev/ppu/lib/gcc/powerpc64-ps3-elf/4.7.0/../../../../powerpc64-ps3-elf/lib/libc.a(lib_a-strtol.o)
 .debug_line    0x000000000000bd87      0x2f4 /opt/ps3dev/ppu/lib/gcc/powerpc64-ps3-elf/4.7.0/../../../../powerpc64-ps3-elf/lib/libc.a(lib_a-strtoull_r.o)
 .debug_line    0x000000000000c07b      0x30a /opt/ps3dev/ppu/lib/gcc/powerpc64-ps3-elf/4.7.0/../../../../powerpc64-ps3-elf/lib/libc.a(lib_a-strtoul.o)
 .debug_line    0x000000000000c385      0x6eb /opt/ps3dev/ppu/lib/gcc/powerpc64-ps3-elf/4.7.0/../../../../powerpc64-ps3-elf/lib/libc.a(lib_a-svfiscanf.o)
 .debug_line    0x000000000000ca70      0x389 /opt/ps3dev/ppu/lib/gcc/powerpc64-ps3-elf/4.7.0/../../../../powerpc64-ps3-elf/lib/libc.a(lib_a-ungetc.o)
 .debug_line    0x000000000000cdf9      0x3df /opt/ps3dev/ppu/lib/gcc/powerpc64-ps3-elf/4.7.0/../../../../powerpc64-ps3-elf/lib/libc.a(lib_a-fflush.o)
 .debug_line    0x000000000000d1d8      0x464 /opt/ps3dev/ppu/lib/gcc/powerpc64-ps3-elf/4.7.0/../../../../powerpc64-ps3-elf/lib/libc.a(lib_a-findfp.o)
 .debug_line    0x000000000000d63c      0x2cd /opt/ps3dev/ppu/lib/gcc/powerpc64-ps3-elf/4.7.0/../../../../powerpc64-ps3-elf/lib/libc.a(lib_a-fwalk.o)
 .debug_line    0x000000000000d909      0x508 /opt/ps3dev/ppu/lib/gcc/powerpc64-ps3-elf/4.7.0/../../../../powerpc64-ps3-elf/lib/libc.a(lib_a-gdtoa-gethex.o)
 .debug_line    0x000000000000de11      0x185 /opt/ps3dev/ppu/lib/gcc/powerpc64-ps3-elf/4.7.0/../../../../powerpc64-ps3-elf/lib/libc.a(lib_a-gdtoa-hexnan.o)
 .debug_line    0x000000000000df96      0x1a1 /opt/ps3dev/ppu/lib/gcc/powerpc64-ps3-elf/4.7.0/../../../../powerpc64-ps3-elf/lib/libc.a(lib_a-strncmp.o)
 .debug_line    0x000000000000e137      0x2ee /opt/ps3dev/ppu/lib/gcc/powerpc64-ps3-elf/4.7.0/../../../../powerpc64-ps3-elf/lib/libc.a(lib_a-fclose.o)
 .debug_line    0x000000000000e425      0x2bb /opt/ps3dev/ppu/lib/gcc/powerpc64-ps3-elf/4.7.0/../../../../powerpc64-ps3-elf/lib/libsysbase.a(close.o)
 .debug_line    0x000000000000e6e0      0x2bf /opt/ps3dev/ppu/lib/gcc/powerpc64-ps3-elf/4.7.0/../../../../powerpc64-ps3-elf/lib/libsysbase.a(lseek.o)
 .debug_line    0x000000000000e99f      0x2be /opt/ps3dev/ppu/lib/gcc/powerpc64-ps3-elf/4.7.0/../../../../powerpc64-ps3-elf/lib/libsysbase.a(read.o)
 .debug_line    0x000000000000ec5d      0x2bf /opt/ps3dev/ppu/lib/gcc/powerpc64-ps3-elf/4.7.0/../../../../powerpc64-ps3-elf/lib/libsysbase.a(write.o)

.debug_frame    0x0000000000000000     0x27c0
 *(.debug_frame)
 .debug_frame   0x0000000000000000       0x38 /opt/ps3dev/ppu/lib/gcc/powerpc64-ps3-elf/4.7.0/../../../../powerpc64-ps3-elf/lib/libc.a(lib_a-atexit.o)
 .debug_frame   0x0000000000000038       0x38 /opt/ps3dev/ppu/lib/gcc/powerpc64-ps3-elf/4.7.0/../../../../powerpc64-ps3-elf/lib/libc.a(lib_a-exit.o)
 .debug_frame   0x0000000000000070       0x40 /opt/ps3dev/ppu/lib/gcc/powerpc64-ps3-elf/4.7.0/../../../../powerpc64-ps3-elf/lib/libc.a(lib_a-malign.o)
 .debug_frame   0x00000000000000b0       0x68 /opt/ps3dev/ppu/lib/gcc/powerpc64-ps3-elf/4.7.0/../../../../powerpc64-ps3-elf/lib/libc.a(lib_a-malignr.o)
 .debug_frame   0x0000000000000118       0x70 /opt/ps3dev/ppu/lib/gcc/powerpc64-ps3-elf/4.7.0/../../../../powerpc64-ps3-elf/lib/libc.a(lib_a-malloc.o)
 .debug_frame   0x0000000000000188       0x98 /opt/ps3dev/ppu/lib/gcc/powerpc64-ps3-elf/4.7.0/../../../../powerpc64-ps3-elf/lib/libc.a(lib_a-mallocr.o)
 .debug_frame   0x0000000000000220       0x28 /opt/ps3dev/ppu/lib/gcc/powerpc64-ps3-elf/4.7.0/../../../../powerpc64-ps3-elf/lib/libc.a(lib_a-memcpy.o)
 .debug_frame   0x0000000000000248       0x28 /opt/ps3dev/ppu/lib/gcc/powerpc64-ps3-elf/4.7.0/../../../../powerpc64-ps3-elf/lib/libc.a(lib_a-memset.o)
 .debug_frame   0x0000000000000270       0x60 /opt/ps3dev/ppu/lib/gcc/powerpc64-ps3-elf/4.7.0/../../../../powerpc64-ps3-elf/lib/libc.a(lib_a-mlock.o)
 .debug_frame   0x00000000000002d0       0x68 /opt/ps3dev/ppu/lib/gcc/powerpc64-ps3-elf/4.7.0/../../../../powerpc64-ps3-elf/lib/libc.a(lib_a-rand.o)
 .debug_frame   0x0000000000000338       0x28 /opt/ps3dev/ppu/lib/gcc/powerpc64-ps3-elf/4.7.0/../../../../powerpc64-ps3-elf/lib/libc.a(lib_a-strcasecmp.o)
 .debug_frame   0x0000000000000360       0x70 /opt/ps3dev/ppu/lib/gcc/powerpc64-ps3-elf/4.7.0/../../../../powerpc64-ps3-elf/lib/libc.a(lib_a-vsprintf.o)
 .debug_frame   0x00000000000003d0       0x68 /opt/ps3dev/ppu/lib/gcc/powerpc64-ps3-elf/4.7.0/../../../../powerpc64-ps3-elf/lib/libc.a(lib_a-__atexit.o)
 .debug_frame   0x0000000000000438       0x70 /opt/ps3dev/ppu/lib/gcc/powerpc64-ps3-elf/4.7.0/../../../../powerpc64-ps3-elf/lib/libc.a(lib_a-__call_atexit.o)
 .debug_frame   0x00000000000004a8       0x90 /opt/ps3dev/ppu/lib/gcc/powerpc64-ps3-elf/4.7.0/../../../../powerpc64-ps3-elf/lib/libc.a(lib_a-freer.o)
 .debug_frame   0x0000000000000538       0x50 /opt/ps3dev/ppu/lib/gcc/powerpc64-ps3-elf/4.7.0/../../../../powerpc64-ps3-elf/lib/libc.a(lib_a-getreent.o)
 .debug_frame   0x0000000000000588       0xf0 /opt/ps3dev/ppu/lib/gcc/powerpc64-ps3-elf/4.7.0/../../../../powerpc64-ps3-elf/lib/libc.a(lib_a-lock_recursive.o)
 .debug_frame   0x0000000000000678       0x88 /opt/ps3dev/ppu/lib/gcc/powerpc64-ps3-elf/4.7.0/../../../../powerpc64-ps3-elf/lib/libc.a(lib_a-svfprintf.o)
 .debug_frame   0x0000000000000700       0xc0 /opt/ps3dev/ppu/lib/gcc/powerpc64-ps3-elf/4.7.0/../../../../powerpc64-ps3-elf/lib/libc.a(lib_a-dtoa.o)
 .debug_frame   0x00000000000007c0      0x120 /opt/ps3dev/ppu/lib/gcc/powerpc64-ps3-elf/4.7.0/../../../../powerpc64-ps3-elf/lib/libc.a(lib_a-locale.o)
 .debug_frame   0x00000000000008e0       0x70 /opt/ps3dev/ppu/lib/gcc/powerpc64-ps3-elf/4.7.0/../../../../powerpc64-ps3-elf/lib/libc.a(lib_a-lock_internal.o)
 .debug_frame   0x0000000000000950       0x28 /opt/ps3dev/ppu/lib/gcc/powerpc64-ps3-elf/4.7.0/../../../../powerpc64-ps3-elf/lib/libc.a(lib_a-memchr.o)
 .debug_frame   0x0000000000000978      0x3c0 /opt/ps3dev/ppu/lib/gcc/powerpc64-ps3-elf/4.7.0/../../../../powerpc64-ps3-elf/lib/libc.a(lib_a-mprec.o)
 .debug_frame   0x0000000000000d38       0x28 /opt/ps3dev/ppu/lib/gcc/powerpc64-ps3-elf/4.7.0/../../../../powerpc64-ps3-elf/lib/libc.a(lib_a-s_fpclassify.o)
 .debug_frame   0x0000000000000d60       0x28 /opt/ps3dev/ppu/lib/gcc/powerpc64-ps3-elf/4.7.0/../../../../powerpc64-ps3-elf/lib/libc.a(lib_a-strcmp.o)
 .debug_frame   0x0000000000000d88       0x28 /opt/ps3dev/ppu/lib/gcc/powerpc64-ps3-elf/4.7.0/../../../../powerpc64-ps3-elf/lib/libc.a(lib_a-strlen.o)
 .debug_frame   0x0000000000000db0       0xf8 /opt/ps3dev/ppu/lib/gcc/powerpc64-ps3-elf/4.7.0/../../../../powerpc64-ps3-elf/lib/libc.a(lib_a-svfiprintf.o)
 .debug_frame   0x0000000000000ea8       0x30 /opt/ps3dev/ppu/lib/gcc/powerpc64-ps3-elf/4.7.0/../../../../powerpc64-ps3-elf/lib/libc.a(lib_a-abort.o)
 .debug_frame   0x0000000000000ed8       0x48 /opt/ps3dev/ppu/lib/gcc/powerpc64-ps3-elf/4.7.0/../../../../powerpc64-ps3-elf/lib/libc.a(lib_a-callocr.o)
 .debug_frame   0x0000000000000f20       0x28 /opt/ps3dev/ppu/lib/gcc/powerpc64-ps3-elf/4.7.0/../../../../powerpc64-ps3-elf/lib/libc.a(lib_a-memmove.o)
 .debug_frame   0x0000000000000f48       0x98 /opt/ps3dev/ppu/lib/gcc/powerpc64-ps3-elf/4.7.0/../../../../powerpc64-ps3-elf/lib/libc.a(lib_a-reallocr.o)
 .debug_frame   0x0000000000000fe0      0x1b0 /opt/ps3dev/ppu/lib/gcc/powerpc64-ps3-elf/4.7.0/../../../../powerpc64-ps3-elf/lib/libc.a(lib_a-signal.o)
 .debug_frame   0x0000000000001190       0x48 /opt/ps3dev/ppu/lib/gcc/powerpc64-ps3-elf/4.7.0/../../../../powerpc64-ps3-elf/lib/libm.a(lib_a-sf_cos.o)
 .debug_frame   0x00000000000011d8       0x48 /opt/ps3dev/ppu/lib/gcc/powerpc64-ps3-elf/4.7.0/../../../../powerpc64-ps3-elf/lib/libm.a(lib_a-sf_sin.o)
 .debug_frame   0x0000000000001220       0x48 /opt/ps3dev/ppu/lib/gcc/powerpc64-ps3-elf/4.7.0/../../../../powerpc64-ps3-elf/lib/libm.a(lib_a-sf_tan.o)
 .debug_frame   0x0000000000001268       0x58 /opt/ps3dev/ppu/lib/gcc/powerpc64-ps3-elf/4.7.0/../../../../powerpc64-ps3-elf/lib/libm.a(lib_a-wf_sqrt.o)
 .debug_frame   0x00000000000012c0       0x58 /opt/ps3dev/ppu/lib/gcc/powerpc64-ps3-elf/4.7.0/../../../../powerpc64-ps3-elf/lib/libm.a(lib_a-w_sqrt.o)
 .debug_frame   0x0000000000001318       0x58 /opt/ps3dev/ppu/lib/gcc/powerpc64-ps3-elf/4.7.0/../../../../powerpc64-ps3-elf/lib/libm.a(lib_a-ef_rem_pio2.o)
 .debug_frame   0x0000000000001370       0x28 /opt/ps3dev/ppu/lib/gcc/powerpc64-ps3-elf/4.7.0/../../../../powerpc64-ps3-elf/lib/libm.a(lib_a-ef_sqrt.o)
 .debug_frame   0x0000000000001398       0x40 /opt/ps3dev/ppu/lib/gcc/powerpc64-ps3-elf/4.7.0/../../../../powerpc64-ps3-elf/lib/libm.a(lib_a-e_sqrt.o)
 .debug_frame   0x00000000000013d8       0x28 /opt/ps3dev/ppu/lib/gcc/powerpc64-ps3-elf/4.7.0/../../../../powerpc64-ps3-elf/lib/libm.a(lib_a-kf_cos.o)
 .debug_frame   0x0000000000001400       0x88 /opt/ps3dev/ppu/lib/gcc/powerpc64-ps3-elf/4.7.0/../../../../powerpc64-ps3-elf/lib/libm.a(lib_a-kf_rem_pio2.o)
 .debug_frame   0x0000000000001488       0x28 /opt/ps3dev/ppu/lib/gcc/powerpc64-ps3-elf/4.7.0/../../../../powerpc64-ps3-elf/lib/libm.a(lib_a-kf_sin.o)
 .debug_frame   0x00000000000014b0       0x50 /opt/ps3dev/ppu/lib/gcc/powerpc64-ps3-elf/4.7.0/../../../../powerpc64-ps3-elf/lib/libm.a(lib_a-kf_tan.o)
 .debug_frame   0x0000000000001500       0x28 /opt/ps3dev/ppu/lib/gcc/powerpc64-ps3-elf/4.7.0/../../../../powerpc64-ps3-elf/lib/libm.a(lib_a-sf_fabs.o)
 .debug_frame   0x0000000000001528       0x28 /opt/ps3dev/ppu/lib/gcc/powerpc64-ps3-elf/4.7.0/../../../../powerpc64-ps3-elf/lib/libm.a(lib_a-sf_floor.o)
 .debug_frame   0x0000000000001550       0x28 /opt/ps3dev/ppu/lib/gcc/powerpc64-ps3-elf/4.7.0/../../../../powerpc64-ps3-elf/lib/libm.a(lib_a-sf_fpclassify.o)
 .debug_frame   0x0000000000001578       0x50 /opt/ps3dev/ppu/lib/gcc/powerpc64-ps3-elf/4.7.0/../../../../powerpc64-ps3-elf/lib/libm.a(lib_a-sf_scalbn.o)
 .debug_frame   0x00000000000015c8       0x28 /opt/ps3dev/ppu/lib/gcc/powerpc64-ps3-elf/4.7.0/../../../../powerpc64-ps3-elf/lib/libm.a(lib_a-s_matherr.o)
 .debug_frame   0x00000000000015f0       0x28 /opt/ps3dev/ppu/lib/gcc/powerpc64-ps3-elf/4.7.0/../../../../powerpc64-ps3-elf/lib/libm.a(lib_a-sf_copysign.o)
 .debug_frame   0x0000000000001618       0x38 /opt/ps3dev/ppu/lib/gcc/powerpc64-ps3-elf/4.7.0/../../../../powerpc64-ps3-elf/lib/libsysbase.a(sbrk.o)
 .debug_frame   0x0000000000001650       0x30 /opt/ps3dev/ppu/lib/gcc/powerpc64-ps3-elf/4.7.0/../../../../powerpc64-ps3-elf/lib/libsysbase.a(_exit.o)
 .debug_frame   0x0000000000001680      0x110 /opt/ps3dev/ppu/lib/gcc/powerpc64-ps3-elf/4.7.0/../../../../powerpc64-ps3-elf/lib/libsysbase.a(lock.o)
 .debug_frame   0x0000000000001790       0x38 /opt/ps3dev/ppu/lib/gcc/powerpc64-ps3-elf/4.7.0/../../../../powerpc64-ps3-elf/lib/libsysbase.a(getpid.o)
 .debug_frame   0x00000000000017c8       0x28 /opt/ps3dev/ppu/lib/gcc/powerpc64-ps3-elf/4.7.0/../../../../powerpc64-ps3-elf/lib/libsysbase.a(kill.o)
 .debug_frame   0x00000000000017f0       0x78 /opt/ps3dev/ppu/lib/gcc/powerpc64-ps3-elf/4.7.0/../../../../powerpc64-ps3-elf/lib/libsysbase.a(sleep.o)
 .debug_frame   0x0000000000001868       0x38 /opt/ps3dev/ppu/lib/gcc/powerpc64-ps3-elf/4.7.0/../../../../powerpc64-ps3-elf/lib/libc.a(lib_a-errno.o)
 .debug_frame   0x00000000000018a0       0x70 /opt/ps3dev/ppu/lib/gcc/powerpc64-ps3-elf/4.7.0/../../../../powerpc64-ps3-elf/lib/libc.a(lib_a-sscanf.o)
 .debug_frame   0x0000000000001910       0xf8 /opt/ps3dev/ppu/lib/gcc/powerpc64-ps3-elf/4.7.0/../../../../powerpc64-ps3-elf/lib/libc.a(lib_a-stdio.o)
 .debug_frame   0x0000000000001a08       0x28 /opt/ps3dev/ppu/lib/gcc/powerpc64-ps3-elf/4.7.0/../../../../powerpc64-ps3-elf/lib/libc.a(lib_a-strncpy.o)
 .debug_frame   0x0000000000001a30       0x80 /opt/ps3dev/ppu/lib/gcc/powerpc64-ps3-elf/4.7.0/../../../../powerpc64-ps3-elf/lib/libc.a(lib_a-svfscanf.o)
 .debug_frame   0x0000000000001ab0       0x28 /opt/ps3dev/ppu/lib/gcc/powerpc64-ps3-elf/4.7.0/../../../../powerpc64-ps3-elf/lib/libc.a(lib_a-iswspace.o)
 .debug_frame   0x0000000000001ad8       0x98 /opt/ps3dev/ppu/lib/gcc/powerpc64-ps3-elf/4.7.0/../../../../powerpc64-ps3-elf/lib/libc.a(lib_a-mbrtowc.o)
 .debug_frame   0x0000000000001b70       0x58 /opt/ps3dev/ppu/lib/gcc/powerpc64-ps3-elf/4.7.0/../../../../powerpc64-ps3-elf/lib/libc.a(lib_a-mbtowc_r.o)
 .debug_frame   0x0000000000001bc8       0x28 /opt/ps3dev/ppu/lib/gcc/powerpc64-ps3-elf/4.7.0/../../../../powerpc64-ps3-elf/lib/libc.a(lib_a-sccl.o)
 .debug_frame   0x0000000000001bf0       0x28 /opt/ps3dev/ppu/lib/gcc/powerpc64-ps3-elf/4.7.0/../../../../powerpc64-ps3-elf/lib/libc.a(lib_a-sf_nan.o)
 .debug_frame   0x0000000000001c18       0x68 /opt/ps3dev/ppu/lib/gcc/powerpc64-ps3-elf/4.7.0/../../../../powerpc64-ps3-elf/lib/libc.a(lib_a-sprintf.o)
 .debug_frame   0x0000000000001c80      0x100 /opt/ps3dev/ppu/lib/gcc/powerpc64-ps3-elf/4.7.0/../../../../powerpc64-ps3-elf/lib/libc.a(lib_a-strtod.o)
 .debug_frame   0x0000000000001d80       0x40 /opt/ps3dev/ppu/lib/gcc/powerpc64-ps3-elf/4.7.0/../../../../powerpc64-ps3-elf/lib/libc.a(lib_a-strtoll_r.o)
 .debug_frame   0x0000000000001dc0       0x78 /opt/ps3dev/ppu/lib/gcc/powerpc64-ps3-elf/4.7.0/../../../../powerpc64-ps3-elf/lib/libc.a(lib_a-strtol.o)
 .debug_frame   0x0000000000001e38       0x40 /opt/ps3dev/ppu/lib/gcc/powerpc64-ps3-elf/4.7.0/../../../../powerpc64-ps3-elf/lib/libc.a(lib_a-strtoull_r.o)
 .debug_frame   0x0000000000001e78       0x78 /opt/ps3dev/ppu/lib/gcc/powerpc64-ps3-elf/4.7.0/../../../../powerpc64-ps3-elf/lib/libc.a(lib_a-strtoul.o)
 .debug_frame   0x0000000000001ef0      0x150 /opt/ps3dev/ppu/lib/gcc/powerpc64-ps3-elf/4.7.0/../../../../powerpc64-ps3-elf/lib/libc.a(lib_a-svfiscanf.o)
 .debug_frame   0x0000000000002040       0xe0 /opt/ps3dev/ppu/lib/gcc/powerpc64-ps3-elf/4.7.0/../../../../powerpc64-ps3-elf/lib/libc.a(lib_a-ungetc.o)
 .debug_frame   0x0000000000002120       0xe8 /opt/ps3dev/ppu/lib/gcc/powerpc64-ps3-elf/4.7.0/../../../../powerpc64-ps3-elf/lib/libc.a(lib_a-fflush.o)
 .debug_frame   0x0000000000002208      0x258 /opt/ps3dev/ppu/lib/gcc/powerpc64-ps3-elf/4.7.0/../../../../powerpc64-ps3-elf/lib/libc.a(lib_a-findfp.o)
 .debug_frame   0x0000000000002460       0xa8 /opt/ps3dev/ppu/lib/gcc/powerpc64-ps3-elf/4.7.0/../../../../powerpc64-ps3-elf/lib/libc.a(lib_a-fwalk.o)
 .debug_frame   0x0000000000002508       0xa8 /opt/ps3dev/ppu/lib/gcc/powerpc64-ps3-elf/4.7.0/../../../../powerpc64-ps3-elf/lib/libc.a(lib_a-gdtoa-gethex.o)
 .debug_frame   0x00000000000025b0       0x70 /opt/ps3dev/ppu/lib/gcc/powerpc64-ps3-elf/4.7.0/../../../../powerpc64-ps3-elf/lib/libc.a(lib_a-gdtoa-hexnan.o)
 .debug_frame   0x0000000000002620       0x28 /opt/ps3dev/ppu/lib/gcc/powerpc64-ps3-elf/4.7.0/../../../../powerpc64-ps3-elf/lib/libc.a(lib_a-strncmp.o)
 .debug_frame   0x0000000000002648       0x98 /opt/ps3dev/ppu/lib/gcc/powerpc64-ps3-elf/4.7.0/../../../../powerpc64-ps3-elf/lib/libc.a(lib_a-fclose.o)
 .debug_frame   0x00000000000026e0       0x38 /opt/ps3dev/ppu/lib/gcc/powerpc64-ps3-elf/4.7.0/../../../../powerpc64-ps3-elf/lib/libsysbase.a(close.o)
 .debug_frame   0x0000000000002718       0x38 /opt/ps3dev/ppu/lib/gcc/powerpc64-ps3-elf/4.7.0/../../../../powerpc64-ps3-elf/lib/libsysbase.a(lseek.o)
 .debug_frame   0x0000000000002750       0x38 /opt/ps3dev/ppu/lib/gcc/powerpc64-ps3-elf/4.7.0/../../../../powerpc64-ps3-elf/lib/libsysbase.a(read.o)
 .debug_frame   0x0000000000002788       0x38 /opt/ps3dev/ppu/lib/gcc/powerpc64-ps3-elf/4.7.0/../../../../powerpc64-ps3-elf/lib/libsysbase.a(write.o)

.debug_str      0x0000000000000000     0x2ea4
 *(.debug_str)
 .debug_str     0x0000000000000000      0x137 /opt/ps3dev/ppu/lib/gcc/powerpc64-ps3-elf/4.7.0/../../../../powerpc64-ps3-elf/lib/libc.a(lib_a-atexit.o)
                                        0x177 (size before relaxing)
 .debug_str     0x0000000000000137      0x414 /opt/ps3dev/ppu/lib/gcc/powerpc64-ps3-elf/4.7.0/../../../../powerpc64-ps3-elf/lib/libc.a(lib_a-exit.o)
                                        0x578 (size before relaxing)
 .debug_str     0x000000000000054b       0x98 /opt/ps3dev/ppu/lib/gcc/powerpc64-ps3-elf/4.7.0/../../../../powerpc64-ps3-elf/lib/libc.a(lib_a-impure.o)
                                        0x56f (size before relaxing)
 .debug_str     0x00000000000005e3       0x52 /opt/ps3dev/ppu/lib/gcc/powerpc64-ps3-elf/4.7.0/../../../../powerpc64-ps3-elf/lib/libc.a(lib_a-malign.o)
                                        0x57a (size before relaxing)
 .debug_str     0x0000000000000635       0xc0 /opt/ps3dev/ppu/lib/gcc/powerpc64-ps3-elf/4.7.0/../../../../powerpc64-ps3-elf/lib/libc.a(lib_a-malignr.o)
                                        0x5f9 (size before relaxing)
 .debug_str     0x00000000000006f5       0x30 /opt/ps3dev/ppu/lib/gcc/powerpc64-ps3-elf/4.7.0/../../../../powerpc64-ps3-elf/lib/libc.a(lib_a-malloc.o)
                                        0x582 (size before relaxing)
 .debug_str     0x0000000000000725      0x190 /opt/ps3dev/ppu/lib/gcc/powerpc64-ps3-elf/4.7.0/../../../../powerpc64-ps3-elf/lib/libc.a(lib_a-mallocr.o)
                                        0x77e (size before relaxing)
 .debug_str     0x00000000000008b5       0xbc /opt/ps3dev/ppu/lib/gcc/powerpc64-ps3-elf/4.7.0/../../../../powerpc64-ps3-elf/lib/libc.a(lib_a-memcpy.o)
                                        0x161 (size before relaxing)
 .debug_str     0x0000000000000971       0x46 /opt/ps3dev/ppu/lib/gcc/powerpc64-ps3-elf/4.7.0/../../../../powerpc64-ps3-elf/lib/libc.a(lib_a-memset.o)
                                        0x14e (size before relaxing)
 .debug_str     0x00000000000009b7       0x7b /opt/ps3dev/ppu/lib/gcc/powerpc64-ps3-elf/4.7.0/../../../../powerpc64-ps3-elf/lib/libc.a(lib_a-mlock.o)
                                        0x5b4 (size before relaxing)
 .debug_str     0x0000000000000a32       0x2f /opt/ps3dev/ppu/lib/gcc/powerpc64-ps3-elf/4.7.0/../../../../powerpc64-ps3-elf/lib/libc.a(lib_a-rand.o)
                                        0x55f (size before relaxing)
 .debug_str     0x0000000000000a61       0x52 /opt/ps3dev/ppu/lib/gcc/powerpc64-ps3-elf/4.7.0/../../../../powerpc64-ps3-elf/lib/libc.a(lib_a-strcasecmp.o)
                                        0x153 (size before relaxing)
 .debug_str     0x0000000000000ab3       0xd1 /opt/ps3dev/ppu/lib/gcc/powerpc64-ps3-elf/4.7.0/../../../../powerpc64-ps3-elf/lib/libc.a(lib_a-vsprintf.o)
                                        0x5a1 (size before relaxing)
 .debug_str     0x0000000000000b84       0x3b /opt/ps3dev/ppu/lib/gcc/powerpc64-ps3-elf/4.7.0/../../../../powerpc64-ps3-elf/lib/libc.a(lib_a-__atexit.o)
                                        0x601 (size before relaxing)
 .debug_str     0x0000000000000bbf       0x40 /opt/ps3dev/ppu/lib/gcc/powerpc64-ps3-elf/4.7.0/../../../../powerpc64-ps3-elf/lib/libc.a(lib_a-__call_atexit.o)
                                        0x5d8 (size before relaxing)
 .debug_str     0x0000000000000bff       0x94 /opt/ps3dev/ppu/lib/gcc/powerpc64-ps3-elf/4.7.0/../../../../powerpc64-ps3-elf/lib/libc.a(lib_a-ctype_.o)
                                         0xbc (size before relaxing)
 .debug_str     0x0000000000000c93       0x34 /opt/ps3dev/ppu/lib/gcc/powerpc64-ps3-elf/4.7.0/../../../../powerpc64-ps3-elf/lib/libc.a(lib_a-freer.o)
                                        0x6c8 (size before relaxing)
 .debug_str     0x0000000000000cc7       0xa6 /opt/ps3dev/ppu/lib/gcc/powerpc64-ps3-elf/4.7.0/../../../../powerpc64-ps3-elf/lib/libc.a(lib_a-getreent.o)
                                        0x570 (size before relaxing)
 .debug_str     0x0000000000000d6d      0x17e /opt/ps3dev/ppu/lib/gcc/powerpc64-ps3-elf/4.7.0/../../../../powerpc64-ps3-elf/lib/libc.a(lib_a-lock_recursive.o)
                                        0x321 (size before relaxing)
 .debug_str     0x0000000000000eeb      0x2ba /opt/ps3dev/ppu/lib/gcc/powerpc64-ps3-elf/4.7.0/../../../../powerpc64-ps3-elf/lib/libc.a(lib_a-svfprintf.o)
                                        0x8e7 (size before relaxing)
 .debug_str     0x00000000000011a5      0x141 /opt/ps3dev/ppu/lib/gcc/powerpc64-ps3-elf/4.7.0/../../../../powerpc64-ps3-elf/lib/libc.a(lib_a-dtoa.o)
                                        0x6c1 (size before relaxing)
 .debug_str     0x00000000000012e6      0x175 /opt/ps3dev/ppu/lib/gcc/powerpc64-ps3-elf/4.7.0/../../../../powerpc64-ps3-elf/lib/libc.a(lib_a-locale.o)
                                        0x7cb (size before relaxing)
 .debug_str     0x000000000000145b       0x53 /opt/ps3dev/ppu/lib/gcc/powerpc64-ps3-elf/4.7.0/../../../../powerpc64-ps3-elf/lib/libc.a(lib_a-lock_internal.o)
                                        0x275 (size before relaxing)
 .debug_str     0x00000000000014ae       0x39 /opt/ps3dev/ppu/lib/gcc/powerpc64-ps3-elf/4.7.0/../../../../powerpc64-ps3-elf/lib/libc.a(lib_a-memchr.o)
                                        0x154 (size before relaxing)
 .debug_str     0x00000000000014e7       0x95 /opt/ps3dev/ppu/lib/gcc/powerpc64-ps3-elf/4.7.0/../../../../powerpc64-ps3-elf/lib/libc.a(lib_a-mprec.o)
                                        0x67b (size before relaxing)
 .debug_str     0x000000000000157c       0xb6 /opt/ps3dev/ppu/lib/gcc/powerpc64-ps3-elf/4.7.0/../../../../powerpc64-ps3-elf/lib/libc.a(lib_a-s_fpclassify.o)
                                        0x18c (size before relaxing)
 .debug_str     0x0000000000001632       0x2b /opt/ps3dev/ppu/lib/gcc/powerpc64-ps3-elf/4.7.0/../../../../powerpc64-ps3-elf/lib/libc.a(lib_a-strcmp.o)
                                        0x133 (size before relaxing)
 .debug_str     0x000000000000165d       0x2b /opt/ps3dev/ppu/lib/gcc/powerpc64-ps3-elf/4.7.0/../../../../powerpc64-ps3-elf/lib/libc.a(lib_a-strlen.o)
                                        0x14d (size before relaxing)
 .debug_str     0x0000000000001688       0x28 /opt/ps3dev/ppu/lib/gcc/powerpc64-ps3-elf/4.7.0/../../../../powerpc64-ps3-elf/lib/libc.a(lib_a-svfiprintf.o)
                                        0x6ea (size before relaxing)
 .debug_str     0x00000000000016b0       0x30 /opt/ps3dev/ppu/lib/gcc/powerpc64-ps3-elf/4.7.0/../../../../powerpc64-ps3-elf/lib/libc.a(lib_a-abort.o)
                                        0x13d (size before relaxing)
 .debug_str     0x00000000000016e0        0xf /opt/ps3dev/ppu/lib/gcc/powerpc64-ps3-elf/4.7.0/../../../../powerpc64-ps3-elf/lib/libc.a(lib_a-callocr.o)
                                        0x5a8 (size before relaxing)
 .debug_str     0x00000000000016ef       0x35 /opt/ps3dev/ppu/lib/gcc/powerpc64-ps3-elf/4.7.0/../../../../powerpc64-ps3-elf/lib/libc.a(lib_a-memmove.o)
                                        0x16d (size before relaxing)
 .debug_str     0x0000000000001724       0x49 /opt/ps3dev/ppu/lib/gcc/powerpc64-ps3-elf/4.7.0/../../../../powerpc64-ps3-elf/lib/libc.a(lib_a-reallocr.o)
                                        0x650 (size before relaxing)
 .debug_str     0x000000000000176d       0xf4 /opt/ps3dev/ppu/lib/gcc/powerpc64-ps3-elf/4.7.0/../../../../powerpc64-ps3-elf/lib/libc.a(lib_a-signal.o)
                                        0x5e4 (size before relaxing)
 .debug_str     0x0000000000001861       0xc4 /opt/ps3dev/ppu/lib/gcc/powerpc64-ps3-elf/4.7.0/../../../../powerpc64-ps3-elf/lib/libm.a(lib_a-sf_cos.o)
                                        0x180 (size before relaxing)
 .debug_str     0x0000000000001925       0x29 /opt/ps3dev/ppu/lib/gcc/powerpc64-ps3-elf/4.7.0/../../../../powerpc64-ps3-elf/lib/libm.a(lib_a-sf_sin.o)
                                        0x180 (size before relaxing)
 .debug_str     0x000000000000194e       0x37 /opt/ps3dev/ppu/lib/gcc/powerpc64-ps3-elf/4.7.0/../../../../powerpc64-ps3-elf/lib/libm.a(lib_a-sf_tan.o)
                                        0x172 (size before relaxing)
 .debug_str     0x0000000000001985       0xce /opt/ps3dev/ppu/lib/gcc/powerpc64-ps3-elf/4.7.0/../../../../powerpc64-ps3-elf/lib/libm.a(lib_a-wf_sqrt.o)
                                        0x1f6 (size before relaxing)
 .debug_str     0x0000000000001a53       0x38 /opt/ps3dev/ppu/lib/gcc/powerpc64-ps3-elf/4.7.0/../../../../powerpc64-ps3-elf/lib/libm.a(lib_a-w_sqrt.o)
                                        0x1f3 (size before relaxing)
 .debug_str     0x0000000000001a8b       0xc5 /opt/ps3dev/ppu/lib/gcc/powerpc64-ps3-elf/4.7.0/../../../../powerpc64-ps3-elf/lib/libm.a(lib_a-ef_rem_pio2.o)
                                        0x211 (size before relaxing)
 .debug_str     0x0000000000001b50       0x2f /opt/ps3dev/ppu/lib/gcc/powerpc64-ps3-elf/4.7.0/../../../../powerpc64-ps3-elf/lib/libm.a(lib_a-ef_sqrt.o)
                                        0x192 (size before relaxing)
 .debug_str     0x0000000000001b7f       0x2e /opt/ps3dev/ppu/lib/gcc/powerpc64-ps3-elf/4.7.0/../../../../powerpc64-ps3-elf/lib/libm.a(lib_a-e_sqrt.o)
                                        0x19c (size before relaxing)
 .debug_str     0x0000000000001bad       0x29 /opt/ps3dev/ppu/lib/gcc/powerpc64-ps3-elf/4.7.0/../../../../powerpc64-ps3-elf/lib/libm.a(lib_a-kf_cos.o)
                                        0x159 (size before relaxing)
 .debug_str     0x0000000000001bd6       0x60 /opt/ps3dev/ppu/lib/gcc/powerpc64-ps3-elf/4.7.0/../../../../powerpc64-ps3-elf/lib/libm.a(lib_a-kf_rem_pio2.o)
                                        0x1aa (size before relaxing)
 .debug_str     0x0000000000001c36       0x29 /opt/ps3dev/ppu/lib/gcc/powerpc64-ps3-elf/4.7.0/../../../../powerpc64-ps3-elf/lib/libm.a(lib_a-kf_sin.o)
                                        0x15e (size before relaxing)
 .debug_str     0x0000000000001c5f       0x35 /opt/ps3dev/ppu/lib/gcc/powerpc64-ps3-elf/4.7.0/../../../../powerpc64-ps3-elf/lib/libm.a(lib_a-kf_tan.o)
                                        0x19c (size before relaxing)
 .debug_str     0x0000000000001c94       0x2a /opt/ps3dev/ppu/lib/gcc/powerpc64-ps3-elf/4.7.0/../../../../powerpc64-ps3-elf/lib/libm.a(lib_a-sf_fabs.o)
                                        0x153 (size before relaxing)
 .debug_str     0x0000000000001cbe       0x30 /opt/ps3dev/ppu/lib/gcc/powerpc64-ps3-elf/4.7.0/../../../../powerpc64-ps3-elf/lib/libm.a(lib_a-sf_floor.o)
                                        0x18a (size before relaxing)
 .debug_str     0x0000000000001cee       0x32 /opt/ps3dev/ppu/lib/gcc/powerpc64-ps3-elf/4.7.0/../../../../powerpc64-ps3-elf/lib/libm.a(lib_a-sf_fpclassify.o)
                                        0x165 (size before relaxing)
 .debug_str     0x0000000000001d20       0x45 /opt/ps3dev/ppu/lib/gcc/powerpc64-ps3-elf/4.7.0/../../../../powerpc64-ps3-elf/lib/libm.a(lib_a-sf_scalbn.o)
                                        0x1b1 (size before relaxing)
 .debug_str     0x0000000000001d65       0x2e /opt/ps3dev/ppu/lib/gcc/powerpc64-ps3-elf/4.7.0/../../../../powerpc64-ps3-elf/lib/libm.a(lib_a-s_lib_ver.o)
                                        0x1a3 (size before relaxing)
 .debug_str     0x0000000000001d93       0x2e /opt/ps3dev/ppu/lib/gcc/powerpc64-ps3-elf/4.7.0/../../../../powerpc64-ps3-elf/lib/libm.a(lib_a-s_matherr.o)
                                        0x175 (size before relaxing)
 .debug_str     0x0000000000001dc1       0x30 /opt/ps3dev/ppu/lib/gcc/powerpc64-ps3-elf/4.7.0/../../../../powerpc64-ps3-elf/lib/libm.a(lib_a-sf_copysign.o)
                                        0x185 (size before relaxing)
 .debug_str     0x0000000000001df1      0x44e /opt/ps3dev/ppu/lib/gcc/powerpc64-ps3-elf/4.7.0/../../../../powerpc64-ps3-elf/lib/libsysbase.a(sbrk.o)
                                        0x9db (size before relaxing)
 .debug_str     0x000000000000223f       0x2b /opt/ps3dev/ppu/lib/gcc/powerpc64-ps3-elf/4.7.0/../../../../powerpc64-ps3-elf/lib/libsysbase.a(syscalls.o)
                                        0x9d2 (size before relaxing)
 .debug_str     0x000000000000226a       0x28 /opt/ps3dev/ppu/lib/gcc/powerpc64-ps3-elf/4.7.0/../../../../powerpc64-ps3-elf/lib/libsysbase.a(_exit.o)
                                        0x9d5 (size before relaxing)
 .debug_str     0x0000000000002292       0x2f /opt/ps3dev/ppu/lib/gcc/powerpc64-ps3-elf/4.7.0/../../../../powerpc64-ps3-elf/lib/libsysbase.a(lock.o)
                                        0xa4d (size before relaxing)
 .debug_str     0x00000000000022c1       0x29 /opt/ps3dev/ppu/lib/gcc/powerpc64-ps3-elf/4.7.0/../../../../powerpc64-ps3-elf/lib/libsysbase.a(getpid.o)
                                        0x9da (size before relaxing)
 .debug_str     0x00000000000022ea       0x27 /opt/ps3dev/ppu/lib/gcc/powerpc64-ps3-elf/4.7.0/../../../../powerpc64-ps3-elf/lib/libsysbase.a(kill.o)
                                        0x54b (size before relaxing)
 .debug_str     0x0000000000002311       0x2f /opt/ps3dev/ppu/lib/gcc/powerpc64-ps3-elf/4.7.0/../../../../powerpc64-ps3-elf/lib/libsysbase.a(sleep.o)
                                        0x9ec (size before relaxing)
 .debug_str     0x0000000000002340       0x8b /opt/ps3dev/ppu/lib/gcc/powerpc64-ps3-elf/4.7.0/../../../../powerpc64-ps3-elf/lib/libc.a(lib_a-errno.o)
                                        0x556 (size before relaxing)
 .debug_str     0x00000000000023cb       0x49 /opt/ps3dev/ppu/lib/gcc/powerpc64-ps3-elf/4.7.0/../../../../powerpc64-ps3-elf/lib/libc.a(lib_a-sscanf.o)
                                        0x5aa (size before relaxing)
 .debug_str     0x0000000000002414       0x80 /opt/ps3dev/ppu/lib/gcc/powerpc64-ps3-elf/4.7.0/../../../../powerpc64-ps3-elf/lib/libc.a(lib_a-stdio.o)
                                        0x5c9 (size before relaxing)
 .debug_str     0x0000000000002494       0x34 /opt/ps3dev/ppu/lib/gcc/powerpc64-ps3-elf/4.7.0/../../../../powerpc64-ps3-elf/lib/libc.a(lib_a-strncpy.o)
                                        0x164 (size before relaxing)
 .debug_str     0x00000000000024c8      0x176 /opt/ps3dev/ppu/lib/gcc/powerpc64-ps3-elf/4.7.0/../../../../powerpc64-ps3-elf/lib/libc.a(lib_a-svfscanf.o)
                                        0x76e (size before relaxing)
 .debug_str     0x000000000000263e       0x2c /opt/ps3dev/ppu/lib/gcc/powerpc64-ps3-elf/4.7.0/../../../../powerpc64-ps3-elf/lib/libc.a(lib_a-iswspace.o)
                                        0x14a (size before relaxing)
 .debug_str     0x000000000000266a       0x3d /opt/ps3dev/ppu/lib/gcc/powerpc64-ps3-elf/4.7.0/../../../../powerpc64-ps3-elf/lib/libc.a(lib_a-mbrtowc.o)
                                        0x59f (size before relaxing)
 .debug_str     0x00000000000026a7       0x4c /opt/ps3dev/ppu/lib/gcc/powerpc64-ps3-elf/4.7.0/../../../../powerpc64-ps3-elf/lib/libc.a(lib_a-mbtowc_r.o)
                                        0x5a8 (size before relaxing)
 .debug_str     0x00000000000026f3       0x31 /opt/ps3dev/ppu/lib/gcc/powerpc64-ps3-elf/4.7.0/../../../../powerpc64-ps3-elf/lib/libc.a(lib_a-sccl.o)
                                        0x13f (size before relaxing)
 .debug_str     0x0000000000002724       0x2b /opt/ps3dev/ppu/lib/gcc/powerpc64-ps3-elf/4.7.0/../../../../powerpc64-ps3-elf/lib/libc.a(lib_a-sf_nan.o)
                                        0x151 (size before relaxing)
 .debug_str     0x000000000000274f       0x36 /opt/ps3dev/ppu/lib/gcc/powerpc64-ps3-elf/4.7.0/../../../../powerpc64-ps3-elf/lib/libc.a(lib_a-sprintf.o)
                                        0x59e (size before relaxing)
 .debug_str     0x0000000000002785      0x1be /opt/ps3dev/ppu/lib/gcc/powerpc64-ps3-elf/4.7.0/../../../../powerpc64-ps3-elf/lib/libc.a(lib_a-strtod.o)
                                        0x972 (size before relaxing)
 .debug_str     0x0000000000002943       0x43 /opt/ps3dev/ppu/lib/gcc/powerpc64-ps3-elf/4.7.0/../../../../powerpc64-ps3-elf/lib/libc.a(lib_a-strtoll_r.o)
                                        0x586 (size before relaxing)
 .debug_str     0x0000000000002986       0x32 /opt/ps3dev/ppu/lib/gcc/powerpc64-ps3-elf/4.7.0/../../../../powerpc64-ps3-elf/lib/libc.a(lib_a-strtol.o)
                                        0x594 (size before relaxing)
 .debug_str     0x00000000000029b8       0x2f /opt/ps3dev/ppu/lib/gcc/powerpc64-ps3-elf/4.7.0/../../../../powerpc64-ps3-elf/lib/libc.a(lib_a-strtoull_r.o)
                                        0x588 (size before relaxing)
 .debug_str     0x00000000000029e7       0x3f /opt/ps3dev/ppu/lib/gcc/powerpc64-ps3-elf/4.7.0/../../../../powerpc64-ps3-elf/lib/libc.a(lib_a-strtoul.o)
                                        0x597 (size before relaxing)
 .debug_str     0x0000000000002a26       0x1f /opt/ps3dev/ppu/lib/gcc/powerpc64-ps3-elf/4.7.0/../../../../powerpc64-ps3-elf/lib/libc.a(lib_a-svfiscanf.o)
                                        0x711 (size before relaxing)
 .debug_str     0x0000000000002a45       0x4d /opt/ps3dev/ppu/lib/gcc/powerpc64-ps3-elf/4.7.0/../../../../powerpc64-ps3-elf/lib/libc.a(lib_a-ungetc.o)
                                        0x5e5 (size before relaxing)
 .debug_str     0x0000000000002a92       0x5a /opt/ps3dev/ppu/lib/gcc/powerpc64-ps3-elf/4.7.0/../../../../powerpc64-ps3-elf/lib/libc.a(lib_a-fflush.o)
                                        0x5f4 (size before relaxing)
 .debug_str     0x0000000000002aec      0x16c /opt/ps3dev/ppu/lib/gcc/powerpc64-ps3-elf/4.7.0/../../../../powerpc64-ps3-elf/lib/libc.a(lib_a-findfp.o)
                                        0x743 (size before relaxing)
 .debug_str     0x0000000000002c58       0x38 /opt/ps3dev/ppu/lib/gcc/powerpc64-ps3-elf/4.7.0/../../../../powerpc64-ps3-elf/lib/libc.a(lib_a-fwalk.o)
                                        0x574 (size before relaxing)
 .debug_str     0x0000000000002c90       0xd5 /opt/ps3dev/ppu/lib/gcc/powerpc64-ps3-elf/4.7.0/../../../../powerpc64-ps3-elf/lib/libc.a(lib_a-gdtoa-gethex.o)
                                        0x8fa (size before relaxing)
 .debug_str     0x0000000000002d65       0x39 /opt/ps3dev/ppu/lib/gcc/powerpc64-ps3-elf/4.7.0/../../../../powerpc64-ps3-elf/lib/libc.a(lib_a-gdtoa-hexnan.o)
                                        0x277 (size before relaxing)
 .debug_str     0x0000000000002d9e       0x2c /opt/ps3dev/ppu/lib/gcc/powerpc64-ps3-elf/4.7.0/../../../../powerpc64-ps3-elf/lib/libc.a(lib_a-strncmp.o)
                                        0x13c (size before relaxing)
 .debug_str     0x0000000000002dca       0x3b /opt/ps3dev/ppu/lib/gcc/powerpc64-ps3-elf/4.7.0/../../../../powerpc64-ps3-elf/lib/libc.a(lib_a-fclose.o)
                                        0x602 (size before relaxing)
 .debug_str     0x0000000000002e05       0x28 /opt/ps3dev/ppu/lib/gcc/powerpc64-ps3-elf/4.7.0/../../../../powerpc64-ps3-elf/lib/libsysbase.a(close.o)
                                        0x9d8 (size before relaxing)
 .debug_str     0x0000000000002e2d       0x28 /opt/ps3dev/ppu/lib/gcc/powerpc64-ps3-elf/4.7.0/../../../../powerpc64-ps3-elf/lib/libsysbase.a(lseek.o)
                                        0x9d8 (size before relaxing)
 .debug_str     0x0000000000002e55       0x27 /opt/ps3dev/ppu/lib/gcc/powerpc64-ps3-elf/4.7.0/../../../../powerpc64-ps3-elf/lib/libsysbase.a(read.o)
                                        0x9d6 (size before relaxing)
 .debug_str     0x0000000000002e7c       0x28 /opt/ps3dev/ppu/lib/gcc/powerpc64-ps3-elf/4.7.0/../../../../powerpc64-ps3-elf/lib/libsysbase.a(write.o)
                                        0x9d8 (size before relaxing)

.debug_loc      0x0000000000000000    0x2990d
 *(.debug_loc)
 .debug_loc     0x0000000000000000       0x99 /opt/ps3dev/ppu/lib/gcc/powerpc64-ps3-elf/4.7.0/../../../../powerpc64-ps3-elf/lib/libc.a(lib_a-atexit.o)
 .debug_loc     0x0000000000000099       0x72 /opt/ps3dev/ppu/lib/gcc/powerpc64-ps3-elf/4.7.0/../../../../powerpc64-ps3-elf/lib/libc.a(lib_a-exit.o)
 .debug_loc     0x000000000000010b       0xe5 /opt/ps3dev/ppu/lib/gcc/powerpc64-ps3-elf/4.7.0/../../../../powerpc64-ps3-elf/lib/libc.a(lib_a-malign.o)
 .debug_loc     0x00000000000001f0      0x4cd /opt/ps3dev/ppu/lib/gcc/powerpc64-ps3-elf/4.7.0/../../../../powerpc64-ps3-elf/lib/libc.a(lib_a-malignr.o)
 .debug_loc     0x00000000000006bd      0x132 /opt/ps3dev/ppu/lib/gcc/powerpc64-ps3-elf/4.7.0/../../../../powerpc64-ps3-elf/lib/libc.a(lib_a-malloc.o)
 .debug_loc     0x00000000000007ef     0x1651 /opt/ps3dev/ppu/lib/gcc/powerpc64-ps3-elf/4.7.0/../../../../powerpc64-ps3-elf/lib/libc.a(lib_a-mallocr.o)
 .debug_loc     0x0000000000001e40      0x342 /opt/ps3dev/ppu/lib/gcc/powerpc64-ps3-elf/4.7.0/../../../../powerpc64-ps3-elf/lib/libc.a(lib_a-memcpy.o)
 .debug_loc     0x0000000000002182      0x2eb /opt/ps3dev/ppu/lib/gcc/powerpc64-ps3-elf/4.7.0/../../../../powerpc64-ps3-elf/lib/libc.a(lib_a-memset.o)
 .debug_loc     0x000000000000246d      0x10c /opt/ps3dev/ppu/lib/gcc/powerpc64-ps3-elf/4.7.0/../../../../powerpc64-ps3-elf/lib/libc.a(lib_a-mlock.o)
 .debug_loc     0x0000000000002579       0xd3 /opt/ps3dev/ppu/lib/gcc/powerpc64-ps3-elf/4.7.0/../../../../powerpc64-ps3-elf/lib/libc.a(lib_a-rand.o)
 .debug_loc     0x000000000000264c      0x208 /opt/ps3dev/ppu/lib/gcc/powerpc64-ps3-elf/4.7.0/../../../../powerpc64-ps3-elf/lib/libc.a(lib_a-strcasecmp.o)
 .debug_loc     0x0000000000002854      0x2ae /opt/ps3dev/ppu/lib/gcc/powerpc64-ps3-elf/4.7.0/../../../../powerpc64-ps3-elf/lib/libc.a(lib_a-vsprintf.o)
 .debug_loc     0x0000000000002b02      0x31a /opt/ps3dev/ppu/lib/gcc/powerpc64-ps3-elf/4.7.0/../../../../powerpc64-ps3-elf/lib/libc.a(lib_a-__atexit.o)
 .debug_loc     0x0000000000002e1c      0x2fd /opt/ps3dev/ppu/lib/gcc/powerpc64-ps3-elf/4.7.0/../../../../powerpc64-ps3-elf/lib/libc.a(lib_a-__call_atexit.o)
 .debug_loc     0x0000000000003119      0x967 /opt/ps3dev/ppu/lib/gcc/powerpc64-ps3-elf/4.7.0/../../../../powerpc64-ps3-elf/lib/libc.a(lib_a-freer.o)
 .debug_loc     0x0000000000003a80       0xd2 /opt/ps3dev/ppu/lib/gcc/powerpc64-ps3-elf/4.7.0/../../../../powerpc64-ps3-elf/lib/libc.a(lib_a-getreent.o)
 .debug_loc     0x0000000000003b52      0x2d7 /opt/ps3dev/ppu/lib/gcc/powerpc64-ps3-elf/4.7.0/../../../../powerpc64-ps3-elf/lib/libc.a(lib_a-lock_recursive.o)
 .debug_loc     0x0000000000003e29     0x3a40 /opt/ps3dev/ppu/lib/gcc/powerpc64-ps3-elf/4.7.0/../../../../powerpc64-ps3-elf/lib/libc.a(lib_a-svfprintf.o)
 .debug_loc     0x0000000000007869     0x3ddf /opt/ps3dev/ppu/lib/gcc/powerpc64-ps3-elf/4.7.0/../../../../powerpc64-ps3-elf/lib/libc.a(lib_a-dtoa.o)
 .debug_loc     0x000000000000b648      0x2c8 /opt/ps3dev/ppu/lib/gcc/powerpc64-ps3-elf/4.7.0/../../../../powerpc64-ps3-elf/lib/libc.a(lib_a-locale.o)
 .debug_loc     0x000000000000b910      0x123 /opt/ps3dev/ppu/lib/gcc/powerpc64-ps3-elf/4.7.0/../../../../powerpc64-ps3-elf/lib/libc.a(lib_a-lock_internal.o)
 .debug_loc     0x000000000000ba33      0x2ba /opt/ps3dev/ppu/lib/gcc/powerpc64-ps3-elf/4.7.0/../../../../powerpc64-ps3-elf/lib/libc.a(lib_a-memchr.o)
 .debug_loc     0x000000000000bced     0x3756 /opt/ps3dev/ppu/lib/gcc/powerpc64-ps3-elf/4.7.0/../../../../powerpc64-ps3-elf/lib/libc.a(lib_a-mprec.o)
 .debug_loc     0x000000000000f443       0x23 /opt/ps3dev/ppu/lib/gcc/powerpc64-ps3-elf/4.7.0/../../../../powerpc64-ps3-elf/lib/libc.a(lib_a-s_fpclassify.o)
 .debug_loc     0x000000000000f466      0x1ae /opt/ps3dev/ppu/lib/gcc/powerpc64-ps3-elf/4.7.0/../../../../powerpc64-ps3-elf/lib/libc.a(lib_a-strcmp.o)
 .debug_loc     0x000000000000f614      0x121 /opt/ps3dev/ppu/lib/gcc/powerpc64-ps3-elf/4.7.0/../../../../powerpc64-ps3-elf/lib/libc.a(lib_a-strlen.o)
 .debug_loc     0x000000000000f735     0x208d /opt/ps3dev/ppu/lib/gcc/powerpc64-ps3-elf/4.7.0/../../../../powerpc64-ps3-elf/lib/libc.a(lib_a-svfiprintf.o)
 .debug_loc     0x00000000000117c2       0x39 /opt/ps3dev/ppu/lib/gcc/powerpc64-ps3-elf/4.7.0/../../../../powerpc64-ps3-elf/lib/libc.a(lib_a-abort.o)
 .debug_loc     0x00000000000117fb      0x3e5 /opt/ps3dev/ppu/lib/gcc/powerpc64-ps3-elf/4.7.0/../../../../powerpc64-ps3-elf/lib/libc.a(lib_a-callocr.o)
 .debug_loc     0x0000000000011be0      0x3b4 /opt/ps3dev/ppu/lib/gcc/powerpc64-ps3-elf/4.7.0/../../../../powerpc64-ps3-elf/lib/libc.a(lib_a-memmove.o)
 .debug_loc     0x0000000000011f94     0x2126 /opt/ps3dev/ppu/lib/gcc/powerpc64-ps3-elf/4.7.0/../../../../powerpc64-ps3-elf/lib/libc.a(lib_a-reallocr.o)
 .debug_loc     0x00000000000140ba      0x95b /opt/ps3dev/ppu/lib/gcc/powerpc64-ps3-elf/4.7.0/../../../../powerpc64-ps3-elf/lib/libc.a(lib_a-signal.o)
 .debug_loc     0x0000000000014a15      0x1ea /opt/ps3dev/ppu/lib/gcc/powerpc64-ps3-elf/4.7.0/../../../../powerpc64-ps3-elf/lib/libm.a(lib_a-sf_cos.o)
 .debug_loc     0x0000000000014bff      0x1ea /opt/ps3dev/ppu/lib/gcc/powerpc64-ps3-elf/4.7.0/../../../../powerpc64-ps3-elf/lib/libm.a(lib_a-sf_sin.o)
 .debug_loc     0x0000000000014de9      0x1ce /opt/ps3dev/ppu/lib/gcc/powerpc64-ps3-elf/4.7.0/../../../../powerpc64-ps3-elf/lib/libm.a(lib_a-sf_tan.o)
 .debug_loc     0x0000000000014fb7      0x18f /opt/ps3dev/ppu/lib/gcc/powerpc64-ps3-elf/4.7.0/../../../../powerpc64-ps3-elf/lib/libm.a(lib_a-wf_sqrt.o)
 .debug_loc     0x0000000000015146      0x18f /opt/ps3dev/ppu/lib/gcc/powerpc64-ps3-elf/4.7.0/../../../../powerpc64-ps3-elf/lib/libm.a(lib_a-w_sqrt.o)
 .debug_loc     0x00000000000152d5      0xae4 /opt/ps3dev/ppu/lib/gcc/powerpc64-ps3-elf/4.7.0/../../../../powerpc64-ps3-elf/lib/libm.a(lib_a-ef_rem_pio2.o)
 .debug_loc     0x0000000000015db9      0x46f /opt/ps3dev/ppu/lib/gcc/powerpc64-ps3-elf/4.7.0/../../../../powerpc64-ps3-elf/lib/libm.a(lib_a-ef_sqrt.o)
 .debug_loc     0x0000000000016228      0x7e5 /opt/ps3dev/ppu/lib/gcc/powerpc64-ps3-elf/4.7.0/../../../../powerpc64-ps3-elf/lib/libm.a(lib_a-e_sqrt.o)
 .debug_loc     0x0000000000016a0d      0x3d6 /opt/ps3dev/ppu/lib/gcc/powerpc64-ps3-elf/4.7.0/../../../../powerpc64-ps3-elf/lib/libm.a(lib_a-kf_cos.o)
 .debug_loc     0x0000000000016de3      0xefa /opt/ps3dev/ppu/lib/gcc/powerpc64-ps3-elf/4.7.0/../../../../powerpc64-ps3-elf/lib/libm.a(lib_a-kf_rem_pio2.o)
 .debug_loc     0x0000000000017cdd      0x140 /opt/ps3dev/ppu/lib/gcc/powerpc64-ps3-elf/4.7.0/../../../../powerpc64-ps3-elf/lib/libm.a(lib_a-kf_sin.o)
 .debug_loc     0x0000000000017e1d      0x9fa /opt/ps3dev/ppu/lib/gcc/powerpc64-ps3-elf/4.7.0/../../../../powerpc64-ps3-elf/lib/libm.a(lib_a-kf_tan.o)
 .debug_loc     0x0000000000018817       0x9b /opt/ps3dev/ppu/lib/gcc/powerpc64-ps3-elf/4.7.0/../../../../powerpc64-ps3-elf/lib/libm.a(lib_a-sf_fabs.o)
 .debug_loc     0x00000000000188b2      0x3e8 /opt/ps3dev/ppu/lib/gcc/powerpc64-ps3-elf/4.7.0/../../../../powerpc64-ps3-elf/lib/libm.a(lib_a-sf_floor.o)
 .debug_loc     0x0000000000018c9a      0x5b1 /opt/ps3dev/ppu/lib/gcc/powerpc64-ps3-elf/4.7.0/../../../../powerpc64-ps3-elf/lib/libm.a(lib_a-sf_scalbn.o)
 .debug_loc     0x000000000001924b       0x39 /opt/ps3dev/ppu/lib/gcc/powerpc64-ps3-elf/4.7.0/../../../../powerpc64-ps3-elf/lib/libm.a(lib_a-s_matherr.o)
 .debug_loc     0x0000000000019284      0x11a /opt/ps3dev/ppu/lib/gcc/powerpc64-ps3-elf/4.7.0/../../../../powerpc64-ps3-elf/lib/libm.a(lib_a-sf_copysign.o)
 .debug_loc     0x000000000001939e       0xf8 /opt/ps3dev/ppu/lib/gcc/powerpc64-ps3-elf/4.7.0/../../../../powerpc64-ps3-elf/lib/libsysbase.a(sbrk.o)
 .debug_loc     0x0000000000019496       0x72 /opt/ps3dev/ppu/lib/gcc/powerpc64-ps3-elf/4.7.0/../../../../powerpc64-ps3-elf/lib/libsysbase.a(_exit.o)
 .debug_loc     0x0000000000019508      0x483 /opt/ps3dev/ppu/lib/gcc/powerpc64-ps3-elf/4.7.0/../../../../powerpc64-ps3-elf/lib/libsysbase.a(lock.o)
 .debug_loc     0x000000000001998b       0xac /opt/ps3dev/ppu/lib/gcc/powerpc64-ps3-elf/4.7.0/../../../../powerpc64-ps3-elf/lib/libsysbase.a(getpid.o)
 .debug_loc     0x0000000000019a37       0x39 /opt/ps3dev/ppu/lib/gcc/powerpc64-ps3-elf/4.7.0/../../../../powerpc64-ps3-elf/lib/libsysbase.a(kill.o)
 .debug_loc     0x0000000000019a70      0x170 /opt/ps3dev/ppu/lib/gcc/powerpc64-ps3-elf/4.7.0/../../../../powerpc64-ps3-elf/lib/libsysbase.a(sleep.o)
 .debug_loc     0x0000000000019be0       0x4d /opt/ps3dev/ppu/lib/gcc/powerpc64-ps3-elf/4.7.0/../../../../powerpc64-ps3-elf/lib/libc.a(lib_a-errno.o)
 .debug_loc     0x0000000000019c2d      0x1dd /opt/ps3dev/ppu/lib/gcc/powerpc64-ps3-elf/4.7.0/../../../../powerpc64-ps3-elf/lib/libc.a(lib_a-sscanf.o)
 .debug_loc     0x0000000000019e0a      0x6c4 /opt/ps3dev/ppu/lib/gcc/powerpc64-ps3-elf/4.7.0/../../../../powerpc64-ps3-elf/lib/libc.a(lib_a-stdio.o)
 .debug_loc     0x000000000001a4ce      0x23b /opt/ps3dev/ppu/lib/gcc/powerpc64-ps3-elf/4.7.0/../../../../powerpc64-ps3-elf/lib/libc.a(lib_a-strncpy.o)
 .debug_loc     0x000000000001a709     0x224e /opt/ps3dev/ppu/lib/gcc/powerpc64-ps3-elf/4.7.0/../../../../powerpc64-ps3-elf/lib/libc.a(lib_a-svfscanf.o)
 .debug_loc     0x000000000001c957       0x62 /opt/ps3dev/ppu/lib/gcc/powerpc64-ps3-elf/4.7.0/../../../../powerpc64-ps3-elf/lib/libc.a(lib_a-iswspace.o)
 .debug_loc     0x000000000001c9b9      0x5e3 /opt/ps3dev/ppu/lib/gcc/powerpc64-ps3-elf/4.7.0/../../../../powerpc64-ps3-elf/lib/libc.a(lib_a-mbrtowc.o)
 .debug_loc     0x000000000001cf9c      0x251 /opt/ps3dev/ppu/lib/gcc/powerpc64-ps3-elf/4.7.0/../../../../powerpc64-ps3-elf/lib/libc.a(lib_a-mbtowc_r.o)
 .debug_loc     0x000000000001d1ed      0x2ec /opt/ps3dev/ppu/lib/gcc/powerpc64-ps3-elf/4.7.0/../../../../powerpc64-ps3-elf/lib/libc.a(lib_a-sccl.o)
 .debug_loc     0x000000000001d4d9      0x1dd /opt/ps3dev/ppu/lib/gcc/powerpc64-ps3-elf/4.7.0/../../../../powerpc64-ps3-elf/lib/libc.a(lib_a-sprintf.o)
 .debug_loc     0x000000000001d6b6     0x3b72 /opt/ps3dev/ppu/lib/gcc/powerpc64-ps3-elf/4.7.0/../../../../powerpc64-ps3-elf/lib/libc.a(lib_a-strtod.o)
 .debug_loc     0x0000000000021228      0x5e6 /opt/ps3dev/ppu/lib/gcc/powerpc64-ps3-elf/4.7.0/../../../../powerpc64-ps3-elf/lib/libc.a(lib_a-strtoll_r.o)
 .debug_loc     0x000000000002180e      0x72a /opt/ps3dev/ppu/lib/gcc/powerpc64-ps3-elf/4.7.0/../../../../powerpc64-ps3-elf/lib/libc.a(lib_a-strtol.o)
 .debug_loc     0x0000000000021f38      0x4f1 /opt/ps3dev/ppu/lib/gcc/powerpc64-ps3-elf/4.7.0/../../../../powerpc64-ps3-elf/lib/libc.a(lib_a-strtoull_r.o)
 .debug_loc     0x0000000000022429      0x635 /opt/ps3dev/ppu/lib/gcc/powerpc64-ps3-elf/4.7.0/../../../../powerpc64-ps3-elf/lib/libc.a(lib_a-strtoul.o)
 .debug_loc     0x0000000000022a5e     0x2007 /opt/ps3dev/ppu/lib/gcc/powerpc64-ps3-elf/4.7.0/../../../../powerpc64-ps3-elf/lib/libc.a(lib_a-svfiscanf.o)
 .debug_loc     0x0000000000024a65      0x6ce /opt/ps3dev/ppu/lib/gcc/powerpc64-ps3-elf/4.7.0/../../../../powerpc64-ps3-elf/lib/libc.a(lib_a-ungetc.o)
 .debug_loc     0x0000000000025133      0x86d /opt/ps3dev/ppu/lib/gcc/powerpc64-ps3-elf/4.7.0/../../../../powerpc64-ps3-elf/lib/libc.a(lib_a-fflush.o)
 .debug_loc     0x00000000000259a0      0x879 /opt/ps3dev/ppu/lib/gcc/powerpc64-ps3-elf/4.7.0/../../../../powerpc64-ps3-elf/lib/libc.a(lib_a-findfp.o)
 .debug_loc     0x0000000000026219      0x5ca /opt/ps3dev/ppu/lib/gcc/powerpc64-ps3-elf/4.7.0/../../../../powerpc64-ps3-elf/lib/libc.a(lib_a-fwalk.o)
 .debug_loc     0x00000000000267e3     0x1c6a /opt/ps3dev/ppu/lib/gcc/powerpc64-ps3-elf/4.7.0/../../../../powerpc64-ps3-elf/lib/libc.a(lib_a-gdtoa-gethex.o)
 .debug_loc     0x000000000002844d      0x86a /opt/ps3dev/ppu/lib/gcc/powerpc64-ps3-elf/4.7.0/../../../../powerpc64-ps3-elf/lib/libc.a(lib_a-gdtoa-hexnan.o)
 .debug_loc     0x0000000000028cb7      0x347 /opt/ps3dev/ppu/lib/gcc/powerpc64-ps3-elf/4.7.0/../../../../powerpc64-ps3-elf/lib/libc.a(lib_a-strncmp.o)
 .debug_loc     0x0000000000028ffe      0x367 /opt/ps3dev/ppu/lib/gcc/powerpc64-ps3-elf/4.7.0/../../../../powerpc64-ps3-elf/lib/libc.a(lib_a-fclose.o)
 .debug_loc     0x0000000000029365       0xf8 /opt/ps3dev/ppu/lib/gcc/powerpc64-ps3-elf/4.7.0/../../../../powerpc64-ps3-elf/lib/libsysbase.a(close.o)
 .debug_loc     0x000000000002945d      0x190 /opt/ps3dev/ppu/lib/gcc/powerpc64-ps3-elf/4.7.0/../../../../powerpc64-ps3-elf/lib/libsysbase.a(lseek.o)
 .debug_loc     0x00000000000295ed      0x190 /opt/ps3dev/ppu/lib/gcc/powerpc64-ps3-elf/4.7.0/../../../../powerpc64-ps3-elf/lib/libsysbase.a(read.o)
 .debug_loc     0x000000000002977d      0x190 /opt/ps3dev/ppu/lib/gcc/powerpc64-ps3-elf/4.7.0/../../../../powerpc64-ps3-elf/lib/libsysbase.a(write.o)

.debug_macinfo
 *(.debug_macinfo)

.debug_weaknames
 *(.debug_weaknames)

.debug_funcnames
 *(.debug_funcnames)

.debug_typenames
 *(.debug_typenames)

.debug_varnames
 *(.debug_varnames)

.debug_pubtypes
 *(.debug_pubtypes)

.debug_ranges   0x0000000000000000     0x2510
 *(.debug_ranges)
 .debug_ranges  0x0000000000000000       0x20 /opt/ps3dev/ppu/lib/gcc/powerpc64-ps3-elf/4.7.0/../../../../powerpc64-ps3-elf/lib/libc.a(lib_a-atexit.o)
 .debug_ranges  0x0000000000000020       0x20 /opt/ps3dev/ppu/lib/gcc/powerpc64-ps3-elf/4.7.0/../../../../powerpc64-ps3-elf/lib/libc.a(lib_a-exit.o)
 .debug_ranges  0x0000000000000040       0x20 /opt/ps3dev/ppu/lib/gcc/powerpc64-ps3-elf/4.7.0/../../../../powerpc64-ps3-elf/lib/libc.a(lib_a-malign.o)
 .debug_ranges  0x0000000000000060       0x20 /opt/ps3dev/ppu/lib/gcc/powerpc64-ps3-elf/4.7.0/../../../../powerpc64-ps3-elf/lib/libc.a(lib_a-malignr.o)
 .debug_ranges  0x0000000000000080       0x30 /opt/ps3dev/ppu/lib/gcc/powerpc64-ps3-elf/4.7.0/../../../../powerpc64-ps3-elf/lib/libc.a(lib_a-malloc.o)
 .debug_ranges  0x00000000000000b0      0x100 /opt/ps3dev/ppu/lib/gcc/powerpc64-ps3-elf/4.7.0/../../../../powerpc64-ps3-elf/lib/libc.a(lib_a-mallocr.o)
 .debug_ranges  0x00000000000001b0       0x20 /opt/ps3dev/ppu/lib/gcc/powerpc64-ps3-elf/4.7.0/../../../../powerpc64-ps3-elf/lib/libc.a(lib_a-memcpy.o)
 .debug_ranges  0x00000000000001d0       0x20 /opt/ps3dev/ppu/lib/gcc/powerpc64-ps3-elf/4.7.0/../../../../powerpc64-ps3-elf/lib/libc.a(lib_a-memset.o)
 .debug_ranges  0x00000000000001f0       0x30 /opt/ps3dev/ppu/lib/gcc/powerpc64-ps3-elf/4.7.0/../../../../powerpc64-ps3-elf/lib/libc.a(lib_a-mlock.o)
 .debug_ranges  0x0000000000000220       0x30 /opt/ps3dev/ppu/lib/gcc/powerpc64-ps3-elf/4.7.0/../../../../powerpc64-ps3-elf/lib/libc.a(lib_a-rand.o)
 .debug_ranges  0x0000000000000250       0x90 /opt/ps3dev/ppu/lib/gcc/powerpc64-ps3-elf/4.7.0/../../../../powerpc64-ps3-elf/lib/libc.a(lib_a-strcasecmp.o)
 .debug_ranges  0x00000000000002e0       0x30 /opt/ps3dev/ppu/lib/gcc/powerpc64-ps3-elf/4.7.0/../../../../powerpc64-ps3-elf/lib/libc.a(lib_a-vsprintf.o)
 .debug_ranges  0x0000000000000310       0x20 /opt/ps3dev/ppu/lib/gcc/powerpc64-ps3-elf/4.7.0/../../../../powerpc64-ps3-elf/lib/libc.a(lib_a-__atexit.o)
 .debug_ranges  0x0000000000000330       0x70 /opt/ps3dev/ppu/lib/gcc/powerpc64-ps3-elf/4.7.0/../../../../powerpc64-ps3-elf/lib/libc.a(lib_a-__call_atexit.o)
 .debug_ranges  0x00000000000003a0       0x30 /opt/ps3dev/ppu/lib/gcc/powerpc64-ps3-elf/4.7.0/../../../../powerpc64-ps3-elf/lib/libc.a(lib_a-freer.o)
 .debug_ranges  0x00000000000003d0       0x70 /opt/ps3dev/ppu/lib/gcc/powerpc64-ps3-elf/4.7.0/../../../../powerpc64-ps3-elf/lib/libc.a(lib_a-getreent.o)
 .debug_ranges  0x0000000000000440       0x60 /opt/ps3dev/ppu/lib/gcc/powerpc64-ps3-elf/4.7.0/../../../../powerpc64-ps3-elf/lib/libc.a(lib_a-lock_recursive.o)
 .debug_ranges  0x00000000000004a0      0x3b0 /opt/ps3dev/ppu/lib/gcc/powerpc64-ps3-elf/4.7.0/../../../../powerpc64-ps3-elf/lib/libc.a(lib_a-svfprintf.o)
 .debug_ranges  0x0000000000000850       0x30 /opt/ps3dev/ppu/lib/gcc/powerpc64-ps3-elf/4.7.0/../../../../powerpc64-ps3-elf/lib/libc.a(lib_a-dtoa.o)
 .debug_ranges  0x0000000000000880       0x90 /opt/ps3dev/ppu/lib/gcc/powerpc64-ps3-elf/4.7.0/../../../../powerpc64-ps3-elf/lib/libc.a(lib_a-locale.o)
 .debug_ranges  0x0000000000000910       0x30 /opt/ps3dev/ppu/lib/gcc/powerpc64-ps3-elf/4.7.0/../../../../powerpc64-ps3-elf/lib/libc.a(lib_a-lock_internal.o)
 .debug_ranges  0x0000000000000940       0x20 /opt/ps3dev/ppu/lib/gcc/powerpc64-ps3-elf/4.7.0/../../../../powerpc64-ps3-elf/lib/libc.a(lib_a-memchr.o)
 .debug_ranges  0x0000000000000960      0x1f0 /opt/ps3dev/ppu/lib/gcc/powerpc64-ps3-elf/4.7.0/../../../../powerpc64-ps3-elf/lib/libc.a(lib_a-mprec.o)
 .debug_ranges  0x0000000000000b50       0x50 /opt/ps3dev/ppu/lib/gcc/powerpc64-ps3-elf/4.7.0/../../../../powerpc64-ps3-elf/lib/libc.a(lib_a-s_fpclassify.o)
 .debug_ranges  0x0000000000000ba0       0x20 /opt/ps3dev/ppu/lib/gcc/powerpc64-ps3-elf/4.7.0/../../../../powerpc64-ps3-elf/lib/libc.a(lib_a-strcmp.o)
 .debug_ranges  0x0000000000000bc0       0x20 /opt/ps3dev/ppu/lib/gcc/powerpc64-ps3-elf/4.7.0/../../../../powerpc64-ps3-elf/lib/libc.a(lib_a-strlen.o)
 .debug_ranges  0x0000000000000be0       0xe0 /opt/ps3dev/ppu/lib/gcc/powerpc64-ps3-elf/4.7.0/../../../../powerpc64-ps3-elf/lib/libc.a(lib_a-svfiprintf.o)
 .debug_ranges  0x0000000000000cc0       0x20 /opt/ps3dev/ppu/lib/gcc/powerpc64-ps3-elf/4.7.0/../../../../powerpc64-ps3-elf/lib/libc.a(lib_a-abort.o)
 .debug_ranges  0x0000000000000ce0       0x80 /opt/ps3dev/ppu/lib/gcc/powerpc64-ps3-elf/4.7.0/../../../../powerpc64-ps3-elf/lib/libc.a(lib_a-callocr.o)
 .debug_ranges  0x0000000000000d60       0x20 /opt/ps3dev/ppu/lib/gcc/powerpc64-ps3-elf/4.7.0/../../../../powerpc64-ps3-elf/lib/libc.a(lib_a-memmove.o)
 .debug_ranges  0x0000000000000d80      0x2c0 /opt/ps3dev/ppu/lib/gcc/powerpc64-ps3-elf/4.7.0/../../../../powerpc64-ps3-elf/lib/libc.a(lib_a-reallocr.o)
 .debug_ranges  0x0000000000001040       0xf0 /opt/ps3dev/ppu/lib/gcc/powerpc64-ps3-elf/4.7.0/../../../../powerpc64-ps3-elf/lib/libc.a(lib_a-signal.o)
 .debug_ranges  0x0000000000001130       0x20 /opt/ps3dev/ppu/lib/gcc/powerpc64-ps3-elf/4.7.0/../../../../powerpc64-ps3-elf/lib/libm.a(lib_a-sf_cos.o)
 .debug_ranges  0x0000000000001150       0x20 /opt/ps3dev/ppu/lib/gcc/powerpc64-ps3-elf/4.7.0/../../../../powerpc64-ps3-elf/lib/libm.a(lib_a-sf_sin.o)
 .debug_ranges  0x0000000000001170       0x20 /opt/ps3dev/ppu/lib/gcc/powerpc64-ps3-elf/4.7.0/../../../../powerpc64-ps3-elf/lib/libm.a(lib_a-sf_tan.o)
 .debug_ranges  0x0000000000001190       0x20 /opt/ps3dev/ppu/lib/gcc/powerpc64-ps3-elf/4.7.0/../../../../powerpc64-ps3-elf/lib/libm.a(lib_a-wf_sqrt.o)
 .debug_ranges  0x00000000000011b0       0x20 /opt/ps3dev/ppu/lib/gcc/powerpc64-ps3-elf/4.7.0/../../../../powerpc64-ps3-elf/lib/libm.a(lib_a-w_sqrt.o)
 .debug_ranges  0x00000000000011d0       0xa0 /opt/ps3dev/ppu/lib/gcc/powerpc64-ps3-elf/4.7.0/../../../../powerpc64-ps3-elf/lib/libm.a(lib_a-ef_rem_pio2.o)
 .debug_ranges  0x0000000000001270       0x50 /opt/ps3dev/ppu/lib/gcc/powerpc64-ps3-elf/4.7.0/../../../../powerpc64-ps3-elf/lib/libm.a(lib_a-ef_sqrt.o)
 .debug_ranges  0x00000000000012c0       0x80 /opt/ps3dev/ppu/lib/gcc/powerpc64-ps3-elf/4.7.0/../../../../powerpc64-ps3-elf/lib/libm.a(lib_a-e_sqrt.o)
 .debug_ranges  0x0000000000001340       0x20 /opt/ps3dev/ppu/lib/gcc/powerpc64-ps3-elf/4.7.0/../../../../powerpc64-ps3-elf/lib/libm.a(lib_a-kf_cos.o)
 .debug_ranges  0x0000000000001360       0x20 /opt/ps3dev/ppu/lib/gcc/powerpc64-ps3-elf/4.7.0/../../../../powerpc64-ps3-elf/lib/libm.a(lib_a-kf_rem_pio2.o)
 .debug_ranges  0x0000000000001380       0x20 /opt/ps3dev/ppu/lib/gcc/powerpc64-ps3-elf/4.7.0/../../../../powerpc64-ps3-elf/lib/libm.a(lib_a-kf_sin.o)
 .debug_ranges  0x00000000000013a0       0xa0 /opt/ps3dev/ppu/lib/gcc/powerpc64-ps3-elf/4.7.0/../../../../powerpc64-ps3-elf/lib/libm.a(lib_a-kf_tan.o)
 .debug_ranges  0x0000000000001440       0x20 /opt/ps3dev/ppu/lib/gcc/powerpc64-ps3-elf/4.7.0/../../../../powerpc64-ps3-elf/lib/libm.a(lib_a-sf_fabs.o)
 .debug_ranges  0x0000000000001460       0x50 /opt/ps3dev/ppu/lib/gcc/powerpc64-ps3-elf/4.7.0/../../../../powerpc64-ps3-elf/lib/libm.a(lib_a-sf_floor.o)
 .debug_ranges  0x00000000000014b0       0x20 /opt/ps3dev/ppu/lib/gcc/powerpc64-ps3-elf/4.7.0/../../../../powerpc64-ps3-elf/lib/libm.a(lib_a-sf_fpclassify.o)
 .debug_ranges  0x00000000000014d0       0xb0 /opt/ps3dev/ppu/lib/gcc/powerpc64-ps3-elf/4.7.0/../../../../powerpc64-ps3-elf/lib/libm.a(lib_a-sf_scalbn.o)
 .debug_ranges  0x0000000000001580       0x20 /opt/ps3dev/ppu/lib/gcc/powerpc64-ps3-elf/4.7.0/../../../../powerpc64-ps3-elf/lib/libm.a(lib_a-s_matherr.o)
 .debug_ranges  0x00000000000015a0       0x20 /opt/ps3dev/ppu/lib/gcc/powerpc64-ps3-elf/4.7.0/../../../../powerpc64-ps3-elf/lib/libm.a(lib_a-sf_copysign.o)
 .debug_ranges  0x00000000000015c0       0x20 /opt/ps3dev/ppu/lib/gcc/powerpc64-ps3-elf/4.7.0/../../../../powerpc64-ps3-elf/lib/libsysbase.a(sbrk.o)
 .debug_ranges  0x00000000000015e0       0x20 /opt/ps3dev/ppu/lib/gcc/powerpc64-ps3-elf/4.7.0/../../../../powerpc64-ps3-elf/lib/libsysbase.a(_exit.o)
 .debug_ranges  0x0000000000001600       0x60 /opt/ps3dev/ppu/lib/gcc/powerpc64-ps3-elf/4.7.0/../../../../powerpc64-ps3-elf/lib/libsysbase.a(lock.o)
 .debug_ranges  0x0000000000001660       0x20 /opt/ps3dev/ppu/lib/gcc/powerpc64-ps3-elf/4.7.0/../../../../powerpc64-ps3-elf/lib/libsysbase.a(getpid.o)
 .debug_ranges  0x0000000000001680       0x20 /opt/ps3dev/ppu/lib/gcc/powerpc64-ps3-elf/4.7.0/../../../../powerpc64-ps3-elf/lib/libsysbase.a(kill.o)
 .debug_ranges  0x00000000000016a0       0x30 /opt/ps3dev/ppu/lib/gcc/powerpc64-ps3-elf/4.7.0/../../../../powerpc64-ps3-elf/lib/libsysbase.a(sleep.o)
 .debug_ranges  0x00000000000016d0       0x20 /opt/ps3dev/ppu/lib/gcc/powerpc64-ps3-elf/4.7.0/../../../../powerpc64-ps3-elf/lib/libc.a(lib_a-errno.o)
 .debug_ranges  0x00000000000016f0       0x30 /opt/ps3dev/ppu/lib/gcc/powerpc64-ps3-elf/4.7.0/../../../../powerpc64-ps3-elf/lib/libc.a(lib_a-sscanf.o)
 .debug_ranges  0x0000000000001720       0x60 /opt/ps3dev/ppu/lib/gcc/powerpc64-ps3-elf/4.7.0/../../../../powerpc64-ps3-elf/lib/libc.a(lib_a-stdio.o)
 .debug_ranges  0x0000000000001780       0x20 /opt/ps3dev/ppu/lib/gcc/powerpc64-ps3-elf/4.7.0/../../../../powerpc64-ps3-elf/lib/libc.a(lib_a-strncpy.o)
 .debug_ranges  0x00000000000017a0      0x3c0 /opt/ps3dev/ppu/lib/gcc/powerpc64-ps3-elf/4.7.0/../../../../powerpc64-ps3-elf/lib/libc.a(lib_a-svfscanf.o)
 .debug_ranges  0x0000000000001b60       0x20 /opt/ps3dev/ppu/lib/gcc/powerpc64-ps3-elf/4.7.0/../../../../powerpc64-ps3-elf/lib/libc.a(lib_a-iswspace.o)
 .debug_ranges  0x0000000000001b80       0x30 /opt/ps3dev/ppu/lib/gcc/powerpc64-ps3-elf/4.7.0/../../../../powerpc64-ps3-elf/lib/libc.a(lib_a-mbrtowc.o)
 .debug_ranges  0x0000000000001bb0       0x30 /opt/ps3dev/ppu/lib/gcc/powerpc64-ps3-elf/4.7.0/../../../../powerpc64-ps3-elf/lib/libc.a(lib_a-mbtowc_r.o)
 .debug_ranges  0x0000000000001be0       0x20 /opt/ps3dev/ppu/lib/gcc/powerpc64-ps3-elf/4.7.0/../../../../powerpc64-ps3-elf/lib/libc.a(lib_a-sccl.o)
 .debug_ranges  0x0000000000001c00       0x20 /opt/ps3dev/ppu/lib/gcc/powerpc64-ps3-elf/4.7.0/../../../../powerpc64-ps3-elf/lib/libc.a(lib_a-sf_nan.o)
 .debug_ranges  0x0000000000001c20       0x30 /opt/ps3dev/ppu/lib/gcc/powerpc64-ps3-elf/4.7.0/../../../../powerpc64-ps3-elf/lib/libc.a(lib_a-sprintf.o)
 .debug_ranges  0x0000000000001c50      0x1f0 /opt/ps3dev/ppu/lib/gcc/powerpc64-ps3-elf/4.7.0/../../../../powerpc64-ps3-elf/lib/libc.a(lib_a-strtod.o)
 .debug_ranges  0x0000000000001e40       0x20 /opt/ps3dev/ppu/lib/gcc/powerpc64-ps3-elf/4.7.0/../../../../powerpc64-ps3-elf/lib/libc.a(lib_a-strtoll_r.o)
 .debug_ranges  0x0000000000001e60       0x30 /opt/ps3dev/ppu/lib/gcc/powerpc64-ps3-elf/4.7.0/../../../../powerpc64-ps3-elf/lib/libc.a(lib_a-strtol.o)
 .debug_ranges  0x0000000000001e90       0x20 /opt/ps3dev/ppu/lib/gcc/powerpc64-ps3-elf/4.7.0/../../../../powerpc64-ps3-elf/lib/libc.a(lib_a-strtoull_r.o)
 .debug_ranges  0x0000000000001eb0       0x30 /opt/ps3dev/ppu/lib/gcc/powerpc64-ps3-elf/4.7.0/../../../../powerpc64-ps3-elf/lib/libc.a(lib_a-strtoul.o)
 .debug_ranges  0x0000000000001ee0      0x1c0 /opt/ps3dev/ppu/lib/gcc/powerpc64-ps3-elf/4.7.0/../../../../powerpc64-ps3-elf/lib/libc.a(lib_a-svfiscanf.o)
 .debug_ranges  0x00000000000020a0       0x40 /opt/ps3dev/ppu/lib/gcc/powerpc64-ps3-elf/4.7.0/../../../../powerpc64-ps3-elf/lib/libc.a(lib_a-ungetc.o)
 .debug_ranges  0x00000000000020e0      0x160 /opt/ps3dev/ppu/lib/gcc/powerpc64-ps3-elf/4.7.0/../../../../powerpc64-ps3-elf/lib/libc.a(lib_a-fflush.o)
 .debug_ranges  0x0000000000002240       0xf0 /opt/ps3dev/ppu/lib/gcc/powerpc64-ps3-elf/4.7.0/../../../../powerpc64-ps3-elf/lib/libc.a(lib_a-findfp.o)
 .debug_ranges  0x0000000000002330       0x30 /opt/ps3dev/ppu/lib/gcc/powerpc64-ps3-elf/4.7.0/../../../../powerpc64-ps3-elf/lib/libc.a(lib_a-fwalk.o)
 .debug_ranges  0x0000000000002360       0xc0 /opt/ps3dev/ppu/lib/gcc/powerpc64-ps3-elf/4.7.0/../../../../powerpc64-ps3-elf/lib/libc.a(lib_a-gdtoa-gethex.o)
 .debug_ranges  0x0000000000002420       0x20 /opt/ps3dev/ppu/lib/gcc/powerpc64-ps3-elf/4.7.0/../../../../powerpc64-ps3-elf/lib/libc.a(lib_a-gdtoa-hexnan.o)
 .debug_ranges  0x0000000000002440       0x20 /opt/ps3dev/ppu/lib/gcc/powerpc64-ps3-elf/4.7.0/../../../../powerpc64-ps3-elf/lib/libc.a(lib_a-strncmp.o)
 .debug_ranges  0x0000000000002460       0x30 /opt/ps3dev/ppu/lib/gcc/powerpc64-ps3-elf/4.7.0/../../../../powerpc64-ps3-elf/lib/libc.a(lib_a-fclose.o)
 .debug_ranges  0x0000000000002490       0x20 /opt/ps3dev/ppu/lib/gcc/powerpc64-ps3-elf/4.7.0/../../../../powerpc64-ps3-elf/lib/libsysbase.a(close.o)
 .debug_ranges  0x00000000000024b0       0x20 /opt/ps3dev/ppu/lib/gcc/powerpc64-ps3-elf/4.7.0/../../../../powerpc64-ps3-elf/lib/libsysbase.a(lseek.o)
 .debug_ranges  0x00000000000024d0       0x20 /opt/ps3dev/ppu/lib/gcc/powerpc64-ps3-elf/4.7.0/../../../../powerpc64-ps3-elf/lib/libsysbase.a(read.o)
 .debug_ranges  0x00000000000024f0       0x20 /opt/ps3dev/ppu/lib/gcc/powerpc64-ps3-elf/4.7.0/../../../../powerpc64-ps3-elf/lib/libsysbase.a(write.o)

.gnu.attributes
 *(.gnu.attributes)

/DISCARD/
 *(.note.GNU-stack)
 *(.gnu_debuglink)
LOAD /opt/ps3dev/ppu/lib/gcc/powerpc64-ps3-elf/4.7.0/../../../../powerpc64-ps3-elf/lib/lv2-crti.o
LOAD /opt/ps3dev/ppu/lib/gcc/powerpc64-ps3-elf/4.7.0/crtbegin.o
LOAD /opt/ps3dev/ppu/lib/gcc/powerpc64-ps3-elf/4.7.0/../../../../powerpc64-ps3-elf/lib/lv2-crt0.o
LOAD /opt/ps3dev/ppu/lib/gcc/powerpc64-ps3-elf/4.7.0/../../../../powerpc64-ps3-elf/lib/lv2-sprx.o
LOAD alphaimg.png.o
LOAD pngsample.png.o
LOAD main.o
LOAD /opt/ps3dev/portlibs/ppu/lib/libya2d.a
LOAD /opt/ps3dev/portlibs/ppu/lib/libfont.a
LOAD /opt/ps3dev/portlibs/ppu/lib/libtiny3d.a
LOAD /opt/ps3dev/ppu/lib/gcc/powerpc64-ps3-elf/4.7.0/../../../../powerpc64-ps3-elf/lib/libc.a
LOAD /opt/ps3dev/psl1ght/ppu/lib/libgcm_sys.a
LOAD /opt/ps3dev/psl1ght/ppu/lib/librsx.a
LOAD /opt/ps3dev/psl1ght/ppu/lib/libsysutil.a
LOAD /opt/ps3dev/psl1ght/ppu/lib/libio.a
LOAD /opt/ps3dev/ppu/lib/gcc/powerpc64-ps3-elf/4.7.0/../../../../powerpc64-ps3-elf/lib/libm.a
LOAD /opt/ps3dev/portlibs/ppu/lib/libfreetype.a
LOAD /opt/ps3dev/portlibs/ppu/lib/libz.a
LOAD /opt/ps3dev/portlibs/ppu/lib/libpixman-1.a
LOAD /opt/ps3dev/psl1ght/ppu/lib/librt.a
LOAD /opt/ps3dev/psl1ght/ppu/lib/liblv2.a
LOAD /opt/ps3dev/psl1ght/ppu/lib/libsysmodule.a
LOAD /opt/ps3dev/portlibs/ppu/lib/libpng.a
LOAD /opt/ps3dev/psl1ght/ppu/lib/libpngdec.a
LOAD /opt/ps3dev/psl1ght/ppu/lib/libjpgdec.a
LOAD /opt/ps3dev/ppu/lib/gcc/powerpc64-ps3-elf/4.7.0/libgcc.a
START GROUP
LOAD /opt/ps3dev/ppu/lib/gcc/powerpc64-ps3-elf/4.7.0/../../../../powerpc64-ps3-elf/lib/libsysbase.a
LOAD /opt/ps3dev/ppu/lib/gcc/powerpc64-ps3-elf/4.7.0/../../../../powerpc64-ps3-elf/lib/libc.a
LOAD /opt/ps3dev/psl1ght/ppu/lib/librt.a
LOAD /opt/ps3dev/psl1ght/ppu/lib/liblv2.a
END GROUP
LOAD /opt/ps3dev/ppu/lib/gcc/powerpc64-ps3-elf/4.7.0/libgcc.a
LOAD /opt/ps3dev/ppu/lib/gcc/powerpc64-ps3-elf/4.7.0/crtend.o
LOAD /opt/ps3dev/ppu/lib/gcc/powerpc64-ps3-elf/4.7.0/../../../../powerpc64-ps3-elf/lib/lv2-crtn.o
OUTPUT(/home/xerpi/Escritorio/YA2D_PS3/sample/YA2D_SAMPLE.elf elf64-powerpc)
